LX51 LINKER/LOCATER V3.65                                                               12/12/2006  14:05:45  PAGE 1


LX51 LINKER/LOCATER V3.65, INVOKED BY:
C:\KEIL\C51\BIN\LX51.EXE TT120_Get_OS_Version.obj, TT120_Send_ATR.obj, TT120_STARTUP.obj, TT120_ISR.obj, TT120_Mass_Eras
>> e_UCM_Leaving_Bootloader.obj, TT120_API_JumpTable.obj, .\Chip_Init.obj, .\Get_Interrupt_Enable.obj, .\Set_Interrupt_E
>> nable.obj, .\Get_Pullup_Resistor.obj, .\Set_Pullup_Resistor.obj, .\Global_Vars.obj, .\IO.obj, .\Main.obj, .\SHA-1.obj
>> , .\Set_Idle_Mode.obj, .\ISO_Select_Speed.obj, .\Change_ISO_Speed.obj, .\Set_Security_Status.obj, .\Get_Security_Stat
>> us.obj, .\Get_Response.obj, .\Timer0_Functions.obj, .\Write_UCM_Bytes_From_IRAM_Buffer_Extended_Addressing.obj, .\Get
>> _TCON.obj, .\CRC16_Normal.obj, .\CODE_Memory_Dump_Extended_Addressing.obj, .\XDATA_Memory_Dump_Extended_Addressing.ob
>> j, .\IDATA_Memory_Dump.obj, .\Conv_Two_Bytes_To_Int.obj, .\Write_To_IRAM.obj, .\Write_To_XRAM_Extended_Addressing.obj
>> , .\Software_APIs_Extended_Addressing.obj, .\Get_Chip_ID.obj, .\Get_Clock_Source.obj, .\Get_Diagnostic_Data.obj, .\Se
>> t_Security_Mask.obj, .\Get_Clock_Control.obj, .\Set_Security_Action.obj, .\Get_Firmware_Version.obj, .\Load_DPX.obj, 
>> .\Set_Clock.obj, .\Erase_256_UCM_Extended_Addressing.obj, .\Erase_512_UCM_Extended_Addressing.obj, .\Write_Byte_UCM_E
>> xtended_Addressing.obj, .\Get_Random_Number.obj, .\Set_Execute_Only_Status.obj, .\Set_Protection_Status.obj, .\Erase_
>> UCM_Blocks__R6R7_Passing.obj, .\Mass_Erase_UCM.obj, INIT.obj TO Generic_TT120_Example_C_Code CLASSES (XDATA (X:0X1E80
>> 0-X:0X1EFFF), HDATA (X:0X1E800-X:0X1EFFF), CODE (C:0X800-C:0XFFFF), ECODE (C:0X800-C:0X1E7FF), HCONST (C:0X800-C:0X1E
>> 7FF), CONST (C:0X800-C:0XFFFF))


CPU MODE:     DALLAS CONTIGIOUS MODE
MEMORY MODEL: SMALL


INPUT MODULES INCLUDED:
  TT120_Get_OS_Version.obj (TT120_GET_OS_VERSION)
         COMMENT TYPE 0: C51 V7.50
  TT120_Send_ATR.obj (TT120_SEND_ATR)
         COMMENT TYPE 0: C51 V7.50
  TT120_STARTUP.obj (?C_STARTUP)
         COMMENT TYPE 0: AX51 V2.14
  TT120_ISR.obj (TT120_ISR)
         COMMENT TYPE 0: C51 V7.50
  TT120_Mass_Erase_UCM_Leaving_Bootloader.obj (TT120_MASS_ERASE_UCM_LEAVING_BOOTLOADER)
         COMMENT TYPE 0: AX51 V2.14
  TT120_API_JumpTable.obj (TT120_API_JUMPTABLE)
         COMMENT TYPE 0: AX51 V2.14
  .\Chip_Init.obj (CHIP_INIT)
         COMMENT TYPE 0: C51 V7.50
  .\Get_Interrupt_Enable.obj (GET_INTERRUPT_ENABLE)
         COMMENT TYPE 0: C51 V7.50
  .\Set_Interrupt_Enable.obj (SET_INTERRUPT_ENABLE)
         COMMENT TYPE 0: C51 V7.50
  .\Get_Pullup_Resistor.obj (GET_PULLUP_RESISTOR)
         COMMENT TYPE 0: C51 V7.50
  .\Set_Pullup_Resistor.obj (SET_PULLUP_RESISTOR)
         COMMENT TYPE 0: C51 V7.50
  .\Global_Vars.obj (GLOBAL_VARS)
         COMMENT TYPE 0: C51 V7.50
  .\IO.obj (IO)
         COMMENT TYPE 0: C51 V7.50
  .\Main.obj (MAIN)
         COMMENT TYPE 0: C51 V7.50
  .\SHA-1.obj (SHA_1)
         COMMENT TYPE 0: C51 V7.50
  .\Set_Idle_Mode.obj (SET_IDLE_MODE)
         COMMENT TYPE 0: C51 V7.50
  .\ISO_Select_Speed.obj (ISO_SELECT_SPEED)
         COMMENT TYPE 0: C51 V7.50
  .\Change_ISO_Speed.obj (CHANGE_ISO_SPEED)
         COMMENT TYPE 0: C51 V7.50
  .\Set_Security_Status.obj (SET_SECURITY_STATUS)
         COMMENT TYPE 0: C51 V7.50
  .\Get_Security_Status.obj (GET_SECURITY_STATUS)
         COMMENT TYPE 0: C51 V7.50
  .\Get_Response.obj (GET_RESPONSE)
         COMMENT TYPE 0: C51 V7.50
  .\Timer0_Functions.obj (TIMER0_FUNCTIONS)
         COMMENT TYPE 0: C51 V7.50
LX51 LINKER/LOCATER V3.65                                                             12/12/2006  14:05:45  PAGE 2


  .\Write_UCM_Bytes_From_IRAM_Buffer_Extended_Addressing.obj (WRITE_UCM_BYTES_FROM_IRAM_BUFFER_EXTENDED)
         COMMENT TYPE 0: C51 V7.50
  .\Get_TCON.obj (GET_TCON)
         COMMENT TYPE 0: C51 V7.50
  .\CRC16_Normal.obj (CRC16_NORMAL)
         COMMENT TYPE 0: C51 V7.50
  .\CODE_Memory_Dump_Extended_Addressing.obj (CODE_MEMORY_DUMP_EXTENDED_ADDRESSING)
         COMMENT TYPE 0: C51 V7.50
  .\XDATA_Memory_Dump_Extended_Addressing.obj (XDATA_MEMORY_DUMP_EXTENDED_ADDRESSING)
         COMMENT TYPE 0: C51 V7.50
  .\IDATA_Memory_Dump.obj (IDATA_MEMORY_DUMP)
         COMMENT TYPE 0: C51 V7.50
  .\Conv_Two_Bytes_To_Int.obj (CONV_TWO_BYTES_TO_INT)
         COMMENT TYPE 0: C51 V7.50
  .\Write_To_IRAM.obj (WRITE_TO_IRAM)
         COMMENT TYPE 0: C51 V7.50
  .\Write_To_XRAM_Extended_Addressing.obj (WRITE_TO_XRAM_EXTENDED_ADDRESSING)
         COMMENT TYPE 0: C51 V7.50
  .\Software_APIs_Extended_Addressing.obj (SOFTWARE_APIS_EXTENDED_ADDRESSING)
         COMMENT TYPE 0: AX51 V2.14
  .\Get_Chip_ID.obj (GET_CHIP_ID)
         COMMENT TYPE 0: C51 V7.50
  .\Get_Clock_Source.obj (GET_CLOCK_SOURCE)
         COMMENT TYPE 0: C51 V7.50
  .\Get_Diagnostic_Data.obj (GET_DIAGNOSTIC_DATA)
         COMMENT TYPE 0: C51 V7.50
  .\Set_Security_Mask.obj (SET_SECURITY_MASK)
         COMMENT TYPE 0: C51 V7.50
  .\Get_Clock_Control.obj (GET_CLOCK_CONTROL)
         COMMENT TYPE 0: C51 V7.50
  .\Set_Security_Action.obj (SET_SECURITY_ACTION)
         COMMENT TYPE 0: C51 V7.50
  .\Get_Firmware_Version.obj (GET_FIRMWARE_VERSION)
         COMMENT TYPE 0: C51 V7.50
  .\Load_DPX.obj (LOAD_DPX)
         COMMENT TYPE 0: C51 V7.50
  .\Set_Clock.obj (SET_CLOCK)
         COMMENT TYPE 0: C51 V7.50
  .\Erase_256_UCM_Extended_Addressing.obj (ERASE_256_UCM_EXTENDED_ADDRESSING)
         COMMENT TYPE 0: C51 V7.50
  .\Erase_512_UCM_Extended_Addressing.obj (ERASE_512_UCM_EXTENDED_ADDRESSING)
         COMMENT TYPE 0: C51 V7.50
  .\Write_Byte_UCM_Extended_Addressing.obj (WRITE_BYTE_UCM_EXTENDED_ADDRESSING)
         COMMENT TYPE 0: C51 V7.50
  .\Get_Random_Number.obj (GET_RANDOM_NUMBER)
         COMMENT TYPE 0: C51 V7.50
  .\Set_Execute_Only_Status.obj (SET_EXECUTE_ONLY_STATUS)
         COMMENT TYPE 0: C51 V7.50
  .\Set_Protection_Status.obj (SET_PROTECTION_STATUS)
         COMMENT TYPE 0: C51 V7.50
  .\Erase_UCM_Blocks__R6R7_Passing.obj (ERASE_UCM_BLOCKS__R6R7_PASSING)
         COMMENT TYPE 0: C51 V7.50
  .\Mass_Erase_UCM.obj (MASS_ERASE_UCM)
         COMMENT TYPE 0: C51 V7.50
  INIT.obj (?C_INIT)
         COMMENT TYPE 0: AX51 V2.14
  C:\KEIL\C51\LIB\CD51S.LIB (?C?CLDPTR)
         COMMENT TYPE 0: AX51 V2.14
  C:\KEIL\C51\LIB\CD51S.LIB (?C?CSTPTR)
         COMMENT TYPE 0: AX51 V2.14
  C:\KEIL\C51\LIB\CD51S.LIB (?C?UIDIV)
         COMMENT TYPE 0: AX51 V2.14
  C:\KEIL\C51\LIB\CD51S.LIB (?C?LADD)
         COMMENT TYPE 0: AX51 V2.14
  C:\KEIL\C51\LIB\CD51S.LIB (?C?LOR)
LX51 LINKER/LOCATER V3.65                                                             12/12/2006  14:05:45  PAGE 3


         COMMENT TYPE 0: AX51 V2.14
  C:\KEIL\C51\LIB\CD51S.LIB (?C?LXOR)
         COMMENT TYPE 0: AX51 V2.14
  C:\KEIL\C51\LIB\CD51S.LIB (?C?LNOT)
         COMMENT TYPE 0: AX51 V2.14
  C:\KEIL\C51\LIB\CD51S.LIB (?C?ULCMP)
         COMMENT TYPE 0: AX51 V2.14
  C:\KEIL\C51\LIB\CD51S.LIB (?C?ULSHR)
         COMMENT TYPE 0: AX51 V2.14
  C:\KEIL\C51\LIB\CD51S.LIB (?C?LSHL)
         COMMENT TYPE 0: AX51 V2.14
  C:\KEIL\C51\LIB\CD51S.LIB (?C?LLDIDATA)
         COMMENT TYPE 0: AX51 V2.14
  C:\KEIL\C51\LIB\CD51S.LIB (?C?LLDIDATA0)
         COMMENT TYPE 0: AX51 V2.14
  C:\KEIL\C51\LIB\CD51S.LIB (?C?LLDIIDATA)
         COMMENT TYPE 0: AX51 V2.14
  C:\KEIL\C51\LIB\CD51S.LIB (?C?LSTIDATA)
         COMMENT TYPE 0: AX51 V2.14
  C:\KEIL\C51\LIB\CD51S.LIB (?C?OFFXADD)
         COMMENT TYPE 0: AX51 V2.14
  C:\KEIL\C51\LIB\CD51S.LIB (?C?PLDIIDATA)
         COMMENT TYPE 0: AX51 V2.14
  C:\KEIL\C51\LIB\CD51S.LIB (?C?PLDCODE)
         COMMENT TYPE 0: AX51 V2.14
  C:\KEIL\C51\LIB\CD51S.LIB (?C?CCASE)
         COMMENT TYPE 0: AX51 V2.14
  C:\KEIL\C51\LIB\CD51S.LIB (?C?ICALL390)
         COMMENT TYPE 0: AX51 V2.14


ACTIVE MEMORY CLASSES OF MODULE:  Generic_TT120_Example_C_Code (TT120_GET_OS_VERSION)

BASE        START       END         USED      MEMORY CLASS
==========================================================
X:010000H   X:01E800H   X:01EFFFH   000040H   XDATA
X:000000H   X:01E800H   X:01EFFFH             HDATA
C:000000H   C:000800H   C:00FFFFH   00038AH   CODE
C:000000H   C:000800H   C:01E7FFH   001047H   ECODE
C:000000H   C:000800H   C:01E7FFH             HCONST
C:000000H   C:000800H   C:00FFFFH   000380H   CONST
I:000000H   I:000000H   I:0000FFH   00006CH   IDATA
I:000000H   I:000000H   I:00007FH   00004BH   DATA


MEMORY MAP OF MODULE:  Generic_TT120_Example_C_Code (TT120_GET_OS_VERSION)


START     STOP      LENGTH    ALIGN  RELOC    MEMORY CLASS   SEGMENT NAME
=========================================================================

* * * * * * * * * * *   D A T A   M E M O R Y   * * * * * * * * * * * * *
000000H   000007H   000008H   ---    AT..     DATA           "REG BANK 0"
000008H   000042H   00003BH   BYTE   UNIT     DATA           _DATA_GROUP_
000043H   00004AH   000008H   BYTE   UNIT     DATA           ?DT?GLOBAL_VARS
00004BH   00008AH   000040H   BYTE   UNIT     IDATA          _IDATA_GROUP_
00008BH   0000A7H   00001DH   BYTE   UNIT     IDATA          ?ID?GLOBAL_VARS
0000A8H   0000B6H   00000FH   BYTE   UNIT     IDATA          ?STACK

* * * * * * * * * * *   C O D E   M E M O R Y   * * * * * * * * * * * * *
0001CDH   0001F3H   000027H   ---    OFFS..   CODE           ?CO?TT120_API_JUMPTABLE?1
0001F4H   0001F6H   000003H   ---    OFFS..   CODE           ?CO?TT120_API_JUMPTABLE?2
0001F7H   0007FFH   000609H   ---    ---      **GAP**
000800H   000803H   000004H   ---    OFFS..   CODE           ?CO?TT120_STARTUP?3
000804H   000807H   000004H   BYTE   UNIT     CODE           ?C_INITSEG
LX51 LINKER/LOCATER V3.65                                                             12/12/2006  14:05:45  PAGE 4


000808H   000808H   000001H   BYTE   INSEG    ECODE          ?PR?SERIAL_ISR?TT120_ISR
000809H   00080AH   000002H   ---    ---      **GAP**
00080BH   00080DH   000003H   BYTE   OFFS..   CODE           ?TT120_ISR?0080B
00080EH   000821H   000014H   BYTE   INSEG    ECODE          ?PR?_SERIAL_RECEIVE_X_BYTES?IO
000822H   000822H   000001H   ---    ---      **GAP**
000823H   000825H   000003H   BYTE   OFFS..   CODE           ?TT120_ISR?00823
000826H   00082AH   000005H   BYTE   INSEG    ECODE          ?PR?_CONV_TWO_BYTES_TO_INT?CONV_TWO_BYTES_TO_INT
00082BH   00082DH   000003H   BYTE   OFFS..   CODE           ?TT120_ISR?0082B
00082EH   0009BAH   00018DH   BYTE   UNIT     CODE           ?C?LIB_CODE
0009BBH   000A8EH   0000D4H   BYTE   UNIT     CODE           ?C_C51STARTUP
000A8FH   000AF0H   000062H   BYTE   UNIT     CODE           ?PR?TT120_FSM_INTERFACE_SEGMENT?TT120_API_JUMPTABLE
000AF1H   000B29H   000039H   BYTE   UNIT     CODE           ?PR?MASS_ERASE_UCM_LEAVING_BOOTLOADER?TT120_MASS_ERASE_UCM
                                                             -_LEAVING_BOOTLOADER
000B2AH   000B5DH   000034H   BYTE   INPAGE   CODE           ?PR?MASS_ERASE_CODE_TO_GO_INTO_XRAM?TT120_MASS_ERASE_UCM_L
                                                             -EAVING_BOOTLOADER
000B5EH   000B7CH   00001FH   BYTE   UNIT     CODE           ?PR?SOFTWARE_APIS_EXTENDED_ADDRESSING?SOFTWARE_APIS_EXTEND
                                                             -ED_ADDRESSING
000B7DH   000D7CH   000200H   BYTE   UNIT     CONST          ?CO?CRC16_NORMAL
000D7DH   000EFCH   000180H   BYTE   UNIT     CONST          ?CO?MAIN
000EFDH   00145EH   000562H   BYTE   INSEG    ECODE          ?PR?_SHA_1_HASH?SHA_1
00145FH   0015E2H   000184H   BYTE   INSEG    ECODE          ?PR?_ISO_SELECT_SPEED?ISO_SELECT_SPEED
0015E3H   001663H   000081H   BYTE   INSEG    ECODE          ?PR?CALL_SHA1?SHA_1
001664H   0016DAH   000077H   BYTE   INSEG    ECODE          ?PR?PROCESS_APDU_COMMAND?MAIN
0016DBH   00173AH   000060H   BYTE   INSEG    ECODE          ?PR?_ENTER_IDLE_MODE?MAIN
00173BH   00178EH   000054H   BYTE   INSEG    ECODE          ?PR?_CALCULATECRC?CRC16_NORMAL
00178FH   0017E0H   000052H   BYTE   INSEG    ECODE          ?PR?TIMER0_READ?TIMER0_FUNCTIONS
0017E1H   001832H   000052H   BYTE   INSEG    ECODE          ?PR?WRITE_TO_RAM_EXTENDED_ADDRESSING?WRITE_TO_XRAM_EXTENDE
                                                             -D_ADDRESSING
001833H   001883H   000051H   BYTE   INSEG    ECODE          ?PR?CODE_MEMORY_DUMP_EXTENDED_ADDRESSING?CODE_MEMORY_DUMP_
                                                             -EXTENDED_ADDRESSING
001884H   0018D4H   000051H   BYTE   INSEG    ECODE          ?PR?XDATA_MEMORY_DUMP_EXTENDED_ADDRESSING?XDATA_MEMORY_DUM
                                                             -P_EXTENDED_ADDRESSING
0018D5H   001924H   000050H   BYTE   INSEG    ECODE          ?PR?SET_CLOCK?SET_CLOCK
001925H   001973H   00004FH   BYTE   INSEG    ECODE          ?PR?CREATE_CRC16_HASH_OF_XDATA?CRC16_NORMAL
001974H   0019BCH   000049H   BYTE   INSEG    ECODE          ?PR?SECURITY_FAULT_ISR?TT120_ISR
0019BDH   001A04H   000048H   BYTE   INSEG    ECODE          ?PR?WRITE_UCM_BYTES_FROM_IRAM_BUFFER_EXTENDED_ADDRESSING?W
                                                             -RITE_UCM_BYTES_FROM_IRAM_BUFFER_EXTENDED
001A05H   001A46H   000042H   BYTE   INSEG    ECODE          ?PR?GET_RESPONSE?GET_RESPONSE
001A47H   001A88H   000042H   BYTE   INSEG    ECODE          ?PR?WRITE_BYTE_UCM_EXTENDED_ADDRESSING?WRITE_BYTE_UCM_EXTE
                                                             -NDED_ADDRESSING
001A89H   001ACAH   000042H   BYTE   INSEG    ECODE          ?PR?SET_EXECUTE_ONLY_STATUS?SET_EXECUTE_ONLY_STATUS
001ACBH   001B0CH   000042H   BYTE   INSEG    ECODE          ?PR?SET_PROTECTION_STATUS?SET_PROTECTION_STATUS
001B0DH   001B4BH   00003FH   BYTE   INSEG    ECODE          ?PR?GET_CHIP_ID?GET_CHIP_ID
001B4CH   001B8AH   00003FH   BYTE   INSEG    ECODE          ?PR?GET_DIAGNOSTIC_DATA?GET_DIAGNOSTIC_DATA
001B8BH   001BC4H   00003AH   BYTE   INSEG    ECODE          ?PR?ERASE_256_UCM_EXTENDED_ADDRESSING?ERASE_256_UCM_EXTEND
                                                             -ED_ADDRESSING
001BC5H   001BFEH   00003AH   BYTE   INSEG    ECODE          ?PR?ERASE_512_UCM_EXTENDED_ADDRESSING?ERASE_512_UCM_EXTEND
                                                             -ED_ADDRESSING
001BFFH   001C37H   000039H   BYTE   INSEG    ECODE          ?PR?MAIN?MAIN
001C38H   001C5FH   000028H   BYTE   INSEG    ECODE          ?PR?SEND_ATR?TT120_SEND_ATR
001C60H   001C86H   000027H   BYTE   INSEG    ECODE          ?PR?SET_PULLUP_RESISTOR?SET_PULLUP_RESISTOR
001C87H   001CADH   000027H   BYTE   INSEG    ECODE          ?PR?SET_SECURITY_MASK?SET_SECURITY_MASK
001CAEH   001CD4H   000027H   BYTE   INSEG    ECODE          ?PR?SET_SECURITY_ACTION?SET_SECURITY_ACTION
001CD5H   001CF7H   000023H   BYTE   INSEG    ECODE          ?PR?GET_PULLUP_RESISTOR?GET_PULLUP_RESISTOR
001CF8H   001D19H   000022H   BYTE   INSEG    ECODE          ?PR?GET_IDLE_MODE?SET_IDLE_MODE
001D1AH   001D3AH   000021H   BYTE   INSEG    ECODE          ?PR?GET_CLOCK_SOURCE?GET_CLOCK_SOURCE
001D3BH   001D5BH   000021H   BYTE   INSEG    ECODE          ?PR?GET_CLOCK_CONTROL?GET_CLOCK_CONTROL
001D5CH   001D7CH   000021H   BYTE   INSEG    ECODE          ?PR?GET_FIRMWARE_VERSION?GET_FIRMWARE_VERSION
001D7DH   001D9CH   000020H   BYTE   INSEG    ECODE          ?PR?GET_INTERRUPT_ENABLE?GET_INTERRUPT_ENABLE
001D9DH   001DBCH   000020H   BYTE   INSEG    ECODE          ?PR?GET_SECURITY_STATUS?GET_SECURITY_STATUS
001DBDH   001DDCH   000020H   BYTE   INSEG    ECODE          ?PR?GET_TCON?GET_TCON
001DDDH   001DF6H   00001AH   BYTE   INSEG    ECODE          ?PR?CHIP_INIT?CHIP_INIT
001DF7H   001E10H   00001AH   BYTE   INSEG    ECODE          ?PR?_TIMER0_SETUP?TIMER0_FUNCTIONS
001E11H   001E2AH   00001AH   BYTE   INSEG    ECODE          ?PR?IDATA_MEMORY_DUMP?IDATA_MEMORY_DUMP
001E2BH   001E44H   00001AH   BYTE   INSEG    ECODE          ?PR?WRITE_TO_IRAM?WRITE_TO_IRAM
LX51 LINKER/LOCATER V3.65                                                             12/12/2006  14:05:45  PAGE 5


001E45H   001E5BH   000017H   BYTE   INSEG    ECODE          ?PR?TIMER0_START?TIMER0_FUNCTIONS
001E5CH   001E6FH   000014H   BYTE   INSEG    ECODE          ?PR?_SERIAL_TRANSMIT_X_BYTES?IO
001E70H   001E81H   000012H   BYTE   INSEG    ECODE          ?PR?_PUTCHAR?IO
001E82H   001E93H   000012H   BYTE   INSEG    ECODE          ?PR?CHANGE_ISO_SPEED?CHANGE_ISO_SPEED
001E94H   001EA5H   000012H   BYTE   INSEG    ECODE          ?PR?ERASE_UCM_BLOCKS__R6R7_PASSING?ERASE_UCM_BLOCKS__R6R7_
                                                             -PASSING
001EA6H   001EB5H   000010H   BYTE   INSEG    ECODE          ?PR?PROCESS_PPS_COMMAND?MAIN
001EB6H   001EC5H   000010H   BYTE   INSEG    ECODE          ?PR?GET_RANDOM_NUMBER?GET_RANDOM_NUMBER
001EC6H   001ED4H   00000FH   BYTE   INSEG    ECODE          ?PR?GET_OS_VERSION?TT120_GET_OS_VERSION
001ED5H   001EE3H   00000FH   BYTE   INSEG    ECODE          ?PR?TIMER0_ISR?TT120_ISR
001EE4H   001EF0H   00000DH   BYTE   INSEG    ECODE          ?PR?SET_IDLE_MODE?SET_IDLE_MODE
001EF1H   001EFBH   00000BH   BYTE   INSEG    ECODE          ?PR?LOAD_DPX?LOAD_DPX
001EFCH   001F05H   00000AH   BYTE   INSEG    ECODE          ?PR?SET_INTERRUPT_ENABLE?SET_INTERRUPT_ENABLE
001F06H   001F0FH   00000AH   BYTE   INSEG    ECODE          ?PR?SET_SECURITY_STATUS?SET_SECURITY_STATUS
001F10H   001F19H   00000AH   BYTE   INSEG    ECODE          ?PR?TIMER0_STOP?TIMER0_FUNCTIONS
001F1AH   001F21H   000008H   BYTE   INSEG    ECODE          ?PR?GETCHAR?IO
001F22H   001F29H   000008H   BYTE   INSEG    ECODE          ?PR?MASS_ERASE_UCM?MASS_ERASE_UCM

* * * * * * * * * * *  X D A T A   M E M O R Y  * * * * * * * * * * * * *
01E800H   01E83FH   000040H   BYTE   UNIT     XDATA          ?XD?GLOBAL_VARS



OVERLAY MAP OF MODULE:   Generic_TT120_Example_C_Code (TT120_GET_OS_VERSION)


FUNCTION/MODULE                                BIT_GROUP   DATA_GROUP   IDATA_GROUP
--> CALLED FUNCTION/MODULE                    START  STOP  START  STOP  START  STOP
===================================================================================
?C_C51STARTUP                                 ----- -----  ----- -----  ----- -----
  +--> ?PR?MAIN?MAIN
  +--> ?C_INITSEG

MAIN/MAIN                                     ----- -----  ----- -----  ----- -----
  +--> ?PR?CHIP_INIT?CHIP_INIT
  +--> ?PR?SEND_ATR?TT120_SEND_ATR
  +--> ?PR?_ENTER_IDLE_MODE?MAIN
  +--> ?PR?GETCHAR?IO
  +--> ?PR?PROCESS_PPS_COMMAND?MAIN
  +--> ?PR?_SERIAL_RECEIVE_X_BYTES?IO
  +--> ?PR?PROCESS_APDU_COMMAND?MAIN

CHIP_INIT/CHIP_INIT                           ----- -----  ----- -----  ----- -----
  +--> ?CO?TT120_API_JUMPTABLE?1
  +--> ?PR?_ISO_SELECT_SPEED?ISO_SELECT_SPEED

?CO?TT120_API_JUMPTABLE?1                     ----- -----  ----- -----  ----- -----

_ISO_SELECT_SPEED/ISO_SELECT_SPEED            ----- -----  0008H 0008H  004BH 0050H
  +--> ?PR?_SERIAL_TRANSMIT_X_BYTES?IO
  +--> ?PR?_PUTCHAR?IO

_SERIAL_TRANSMIT_X_BYTES/IO                   ----- -----  ----- -----  ----- -----
  +--> ?PR?_PUTCHAR?IO

_PUTCHAR/IO                                   ----- -----  ----- -----  ----- -----

SEND_ATR/TT120_SEND_ATR                       ----- -----  ----- -----  ----- -----
  +--> ?PR?_PUTCHAR?IO
  +--> ?CO?TT120_API_JUMPTABLE?1

_ENTER_IDLE_MODE/MAIN                         ----- -----  ----- -----  ----- -----
  +--> ?CO?TT120_API_JUMPTABLE?1

GETCHAR/IO                                    ----- -----  ----- -----  ----- -----
LX51 LINKER/LOCATER V3.65                                                             12/12/2006  14:05:45  PAGE 6



PROCESS_PPS_COMMAND/MAIN                      ----- -----  ----- -----  ----- -----
  +--> ?PR?_SERIAL_RECEIVE_X_BYTES?IO
  +--> ?PR?_ISO_SELECT_SPEED?ISO_SELECT_SPEED

_SERIAL_RECEIVE_X_BYTES/IO                    ----- -----  ----- -----  ----- -----
  +--> ?PR?GETCHAR?IO

PROCESS_APDU_COMMAND/MAIN                     ----- -----  ----- -----  ----- -----
  +--> ?CO?MAIN
  +--> ?PR?_PUTCHAR?IO
  +--> ?PR?_SERIAL_TRANSMIT_X_BYTES?IO

?CO?MAIN                                      ----- -----  ----- -----  ----- -----
  +--> ?PR?GET_CHIP_ID?GET_CHIP_ID
  +--> ?PR?GET_CLOCK_SOURCE?GET_CLOCK_SOURCE
  +--> ?PR?GET_CLOCK_CONTROL?GET_CLOCK_CONTROL
  +--> ?PR?SET_PROTECTION_STATUS?SET_PROTECT...
  +--> ?PR?SET_EXECUTE_ONLY_STATUS?SET_EXECU...
  +--> ?PR?SET_SECURITY_ACTION?SET_SECURITY_...
  +--> ?PR?SET_SECURITY_MASK?SET_SECURITY_MASK
  +--> ?PR?SET_CLOCK?SET_CLOCK
  +--> ?PR?SET_INTERRUPT_ENABLE?SET_INTERRUP...
  +--> ?PR?GET_INTERRUPT_ENABLE?GET_INTERRUP...
  +--> ?PR?GET_FIRMWARE_VERSION?GET_FIRMWARE...
  +--> ?PR?MASS_ERASE_UCM_LEAVING_BOOTLOADER...
  +--> ?PR?MASS_ERASE_UCM?MASS_ERASE_UCM
  +--> ?PR?GET_RANDOM_NUMBER?GET_RANDOM_NUMBER
  +--> ?PR?CHANGE_ISO_SPEED?CHANGE_ISO_SPEED
  +--> ?PR?SET_SECURITY_STATUS?SET_SECURITY_...
  +--> ?PR?GET_SECURITY_STATUS?GET_SECURITY_...
  +--> ?PR?TIMER0_START?TIMER0_FUNCTIONS
  +--> ?PR?TIMER0_STOP?TIMER0_FUNCTIONS
  +--> ?PR?ERASE_UCM_BLOCKS__R6R7_PASSING?ER...
  +--> ?PR?GET_DIAGNOSTIC_DATA?GET_DIAGNOSTI...
  +--> ?PR?SET_IDLE_MODE?SET_IDLE_MODE
  +--> ?PR?TIMER0_READ?TIMER0_FUNCTIONS
  +--> ?PR?CALL_SHA1?SHA_1
  +--> ?PR?CODE_MEMORY_DUMP_EXTENDED_ADDRESS...
  +--> ?PR?IDATA_MEMORY_DUMP?IDATA_MEMORY_DUMP
  +--> ?PR?XDATA_MEMORY_DUMP_EXTENDED_ADDRES...
  +--> ?PR?CREATE_CRC16_HASH_OF_XDATA?CRC16_...
  +--> ?PR?WRITE_TO_IRAM?WRITE_TO_IRAM
  +--> ?PR?GET_OS_VERSION?TT120_GET_OS_VERSION
  +--> ?PR?WRITE_BYTE_UCM_EXTENDED_ADDRESSIN...
  +--> ?PR?ERASE_256_UCM_EXTENDED_ADDRESSING...
  +--> ?PR?ERASE_512_UCM_EXTENDED_ADDRESSING...
  +--> ?PR?LOAD_DPX?LOAD_DPX
  +--> ?PR?WRITE_TO_RAM_EXTENDED_ADDRESSING?...
  +--> ?PR?GET_RESPONSE?GET_RESPONSE
  +--> ?PR?GET_TCON?GET_TCON
  +--> ?PR?WRITE_UCM_BYTES_FROM_IRAM_BUFFER_...
  +--> ?PR?GET_IDLE_MODE?SET_IDLE_MODE
  +--> ?PR?SET_PULLUP_RESISTOR?SET_PULLUP_RE...
  +--> ?PR?GET_PULLUP_RESISTOR?GET_PULLUP_RE...

GET_CHIP_ID/GET_CHIP_ID                       ----- -----  ----- -----  ----- -----
  +--> ?CO?TT120_API_JUMPTABLE?1
  +--> ?PR?_SERIAL_TRANSMIT_X_BYTES?IO

GET_CLOCK_SOURCE/GET_CLOCK_SOURCE             ----- -----  ----- -----  ----- -----
  +--> ?CO?TT120_API_JUMPTABLE?1
  +--> ?PR?_PUTCHAR?IO

GET_CLOCK_CONTROL/GET_CLOCK_CONTROL           ----- -----  ----- -----  ----- -----
LX51 LINKER/LOCATER V3.65                                                             12/12/2006  14:05:45  PAGE 7


  +--> ?CO?TT120_API_JUMPTABLE?1
  +--> ?PR?_PUTCHAR?IO

SET_PROTECTION_STATUS/SET_PROTECTION_...      ----- -----  ----- -----  ----- -----
  +--> ?PR?_SERIAL_RECEIVE_X_BYTES?IO
  +--> ?PR?_CONV_TWO_BYTES_TO_INT?CONV_TWO_B...
  +--> ?CO?TT120_API_JUMPTABLE?1

_CONV_TWO_BYTES_TO_INT/CONV_TWO_BYTES...      ----- -----  ----- -----  ----- -----

SET_EXECUTE_ONLY_STATUS/SET_EXECUTE_O...      ----- -----  ----- -----  ----- -----
  +--> ?PR?_SERIAL_RECEIVE_X_BYTES?IO
  +--> ?PR?_CONV_TWO_BYTES_TO_INT?CONV_TWO_B...
  +--> ?CO?TT120_API_JUMPTABLE?1

SET_SECURITY_ACTION/SET_SECURITY_ACTION       ----- -----  ----- -----  ----- -----
  +--> ?CO?TT120_API_JUMPTABLE?1

SET_SECURITY_MASK/SET_SECURITY_MASK           ----- -----  ----- -----  ----- -----
  +--> ?CO?TT120_API_JUMPTABLE?1

SET_CLOCK/SET_CLOCK                           ----- -----  ----- -----  ----- -----
  +--> ?PR?_SERIAL_RECEIVE_X_BYTES?IO
  +--> ?CO?TT120_API_JUMPTABLE?1

SET_INTERRUPT_ENABLE/SET_INTERRUPT_EN...      ----- -----  ----- -----  ----- -----

GET_INTERRUPT_ENABLE/GET_INTERRUPT_EN...      ----- -----  ----- -----  ----- -----
  +--> ?PR?_PUTCHAR?IO

GET_FIRMWARE_VERSION/GET_FIRMWARE_VER...      ----- -----  ----- -----  ----- -----
  +--> ?CO?TT120_API_JUMPTABLE?1
  +--> ?PR?_PUTCHAR?IO

MASS_ERASE_UCM_LEAVING_BOOTLOADER/TT1...      ----- -----  ----- -----  ----- -----
  +--> ?PR?MASS_ERASE_CODE_TO_GO_INTO_XRAM?T...

MASS_ERASE_CODE_TO_GO_INTO_XRAM/TT120...      ----- -----  ----- -----  ----- -----
  +--> ?CO?TT120_API_JUMPTABLE?1

MASS_ERASE_UCM/MASS_ERASE_UCM                 ----- -----  ----- -----  ----- -----
  +--> ?PR?TT120_FSM_INTERFACE_SEGMENT?TT120...

TT120_FSM_INTERFACE_SEGMENT/TT120_API...      ----- -----  ----- -----  ----- -----

GET_RANDOM_NUMBER/GET_RANDOM_NUMBER           ----- -----  ----- -----  ----- -----
  +--> ?CO?TT120_API_JUMPTABLE?1
  +--> ?PR?_PUTCHAR?IO

CHANGE_ISO_SPEED/CHANGE_ISO_SPEED             ----- -----  ----- -----  ----- -----
  +--> ?PR?_ISO_SELECT_SPEED?ISO_SELECT_SPEED

SET_SECURITY_STATUS/SET_SECURITY_STATUS       ----- -----  ----- -----  ----- -----

GET_SECURITY_STATUS/GET_SECURITY_STATUS       ----- -----  ----- -----  ----- -----
  +--> ?PR?_PUTCHAR?IO

TIMER0_START/TIMER0_FUNCTIONS                 ----- -----  ----- -----  ----- -----
  +--> ?PR?GETCHAR?IO
  +--> ?PR?_TIMER0_SETUP?TIMER0_FUNCTIONS

_TIMER0_SETUP/TIMER0_FUNCTIONS                ----- -----  ----- -----  ----- -----

TIMER0_STOP/TIMER0_FUNCTIONS                  ----- -----  ----- -----  ----- -----

LX51 LINKER/LOCATER V3.65                                                             12/12/2006  14:05:45  PAGE 8


ERASE_UCM_BLOCKS__R6R7_PASSING/ERASE_...      ----- -----  ----- -----  ----- -----
  +--> ?PR?_CONV_TWO_BYTES_TO_INT?CONV_TWO_B...
  +--> ?CO?TT120_API_JUMPTABLE?1

GET_DIAGNOSTIC_DATA/GET_DIAGNOSTIC_DATA       ----- -----  ----- -----  ----- -----
  +--> ?CO?TT120_API_JUMPTABLE?1
  +--> ?PR?_SERIAL_TRANSMIT_X_BYTES?IO

SET_IDLE_MODE/SET_IDLE_MODE                   ----- -----  ----- -----  ----- -----

TIMER0_READ/TIMER0_FUNCTIONS                  ----- -----  ----- -----  ----- -----
  +--> ?PR?_PUTCHAR?IO

CALL_SHA1/SHA_1                               ----- -----  0008H 000CH  ----- -----
  +--> ?PR?_SHA_1_HASH?SHA_1
  +--> ?PR?_PUTCHAR?IO

_SHA_1_HASH/SHA_1                             ----- -----  000DH 0042H  004BH 008AH

CODE_MEMORY_DUMP_EXTENDED_ADDRESSING/...      ----- -----  ----- -----  ----- -----
  +--> ?PR?_PUTCHAR?IO

IDATA_MEMORY_DUMP/IDATA_MEMORY_DUMP           ----- -----  ----- -----  ----- -----
  +--> ?PR?_PUTCHAR?IO

XDATA_MEMORY_DUMP_EXTENDED_ADDRESSING...      ----- -----  ----- -----  ----- -----
  +--> ?PR?_PUTCHAR?IO

CREATE_CRC16_HASH_OF_XDATA/CRC16_NORMAL       ----- -----  0008H 0009H  ----- -----
  +--> ?PR?_CALCULATECRC?CRC16_NORMAL
  +--> ?PR?_PUTCHAR?IO

_CALCULATECRC/CRC16_NORMAL                    ----- -----  000AH 000DH  ----- -----
  +--> ?CO?CRC16_NORMAL

?CO?CRC16_NORMAL                              ----- -----  ----- -----  ----- -----

WRITE_TO_IRAM/WRITE_TO_IRAM                   ----- -----  ----- -----  ----- -----
  +--> ?PR?GETCHAR?IO

GET_OS_VERSION/TT120_GET_OS_VERSION           ----- -----  ----- -----  ----- -----
  +--> ?PR?_PUTCHAR?IO

WRITE_BYTE_UCM_EXTENDED_ADDRESSING/WR...      ----- -----  ----- -----  ----- -----
  +--> ?PR?_SERIAL_RECEIVE_X_BYTES?IO
  +--> ?PR?GETCHAR?IO
  +--> ?PR?TT120_FSM_INTERFACE_SEGMENT?TT120...

ERASE_256_UCM_EXTENDED_ADDRESSING/ERA...      ----- -----  ----- -----  ----- -----
  +--> ?PR?_SERIAL_RECEIVE_X_BYTES?IO
  +--> ?PR?TT120_FSM_INTERFACE_SEGMENT?TT120...

ERASE_512_UCM_EXTENDED_ADDRESSING/ERA...      ----- -----  ----- -----  ----- -----
  +--> ?PR?_SERIAL_RECEIVE_X_BYTES?IO
  +--> ?PR?TT120_FSM_INTERFACE_SEGMENT?TT120...

LOAD_DPX/LOAD_DPX                             ----- -----  ----- -----  ----- -----

WRITE_TO_RAM_EXTENDED_ADDRESSING/WRIT...      ----- -----  ----- -----  ----- -----
  +--> ?PR?GETCHAR?IO

GET_RESPONSE/GET_RESPONSE                     ----- -----  ----- -----  ----- -----
  +--> ?PR?_PUTCHAR?IO

GET_TCON/GET_TCON                             ----- -----  ----- -----  ----- -----
LX51 LINKER/LOCATER V3.65                                                             12/12/2006  14:05:45  PAGE 9


  +--> ?PR?_PUTCHAR?IO

WRITE_UCM_BYTES_FROM_IRAM_BUFFER_EXTE...      ----- -----  ----- -----  ----- -----
  +--> ?PR?_SERIAL_RECEIVE_X_BYTES?IO
  +--> ?PR?SOFTWARE_APIS_EXTENDED_ADDRESSING...

SOFTWARE_APIS_EXTENDED_ADDRESSING/SOF...      ----- -----  ----- -----  ----- -----
  +--> ?PR?TT120_FSM_INTERFACE_SEGMENT?TT120...

GET_IDLE_MODE/SET_IDLE_MODE                   ----- -----  ----- -----  ----- -----
  +--> ?PR?_PUTCHAR?IO

SET_PULLUP_RESISTOR/SET_PULLUP_RESISTOR       ----- -----  ----- -----  ----- -----
  +--> ?CO?TT120_API_JUMPTABLE?2

?CO?TT120_API_JUMPTABLE?2                     ----- -----  ----- -----  ----- -----

GET_PULLUP_RESISTOR/GET_PULLUP_RESISTOR       ----- -----  ----- -----  ----- -----
  +--> ?PR?_PUTCHAR?IO

?C_INITSEG                                    ----- -----  ----- -----  ----- -----

*** NEW ROOT ********************************

TIMER0_ISR/TT120_ISR                          ----- -----  ----- -----  ----- -----

*** NEW ROOT ********************************

SERIAL_ISR/TT120_ISR                          ----- -----  ----- -----  ----- -----

*** NEW ROOT ********************************

SECURITY_FAULT_ISR/TT120_ISR                  ----- -----  ----- -----  ----- -----
  +--> ?PR?_PUTCHAR?IO



PUBLIC SYMBOLS OF MODULE:  Generic_TT120_Example_C_Code (TT120_GET_OS_VERSION)


      VALUE       CLASS    TYPE      PUBLIC SYMBOL NAME
      =================================================
      01000986H   CODE     NEAR LAB  ?C?CCASE
      0100082EH   CODE     NEAR LAB  ?C?CLDPTR
      00000081H   NUMBER   ---       ?C?CODEMTYPE
      00000000H   NUMBER   ---       ?C?CODESEG
      01000844H   CODE     NEAR LAB  ?C?CSTPTR
      010009AEH   CODE     NEAR LAB  ?C?ICALL390
      010009B4H   CODE     NEAR LAB  ?C?ICALLX2
      010008AEH   CODE     NEAR LAB  ?C?LADD
      01000919H   CODE     NEAR LAB  ?C?LLDIDATA
      01000925H   CODE     NEAR LAB  ?C?LLDIDATA0
      0100093BH   CODE     NEAR LAB  ?C?LLDIIDATA
      01000932H   CODE     NEAR LAB  ?C?LLDIIDATA1
      01000934H   CODE     NEAR LAB  ?C?LLDIIDATA8
      010008D5H   CODE     NEAR LAB  ?C?LNOT
      010008BBH   CODE     NEAR LAB  ?C?LOR
      01000906H   CODE     NEAR LAB  ?C?LSHL
      01000952H   CODE     NEAR LAB  ?C?LSTIDATA
      010008C8H   CODE     NEAR LAB  ?C?LXOR
      0100095EH   CODE     NEAR LAB  ?C?OFFXADD
      0100097AH   CODE     NEAR LAB  ?C?PLDCODE
      0100096AH   CODE     NEAR LAB  ?C?PLDIIDATA
      01000858H   CODE     NEAR LAB  ?C?UIDIV
      010008E2H   CODE     NEAR LAB  ?C?ULCMP
LX51 LINKER/LOCATER V3.65                                                             12/12/2006  14:05:45  PAGE 10


      010008F3H   CODE     NEAR LAB  ?C?ULSHR
      00000002H   NUMBER   ---       ?C?XDATAMTYPE
      00000001H   NUMBER   ---       ?C?XDATASEG
      01000A01H   CODE     NEAR LAB  ?C_START
      01000800H   CODE     NEAR LAB  ?C_STARTUP
      0100173BH   ECODE    ---       _CalculateCRC
      01000826H   ECODE    ---       _Conv_Two_Bytes_To_Int
      010016DBH   ECODE    ---       _Enter_Idle_Mode
      01000A8FH   CODE     NEAR LAB  _FIRMWARE_ERASEPAGEUCM
      01000A8FH   CODE     NEAR LAB  _FIRMWARE_ERASEUCM256BYTES
      01000A9CH   CODE     NEAR LAB  _FIRMWARE_ERASEUCM512BYTES
      010001D0H   CODE     NEAR LAB  _FIRMWARE_ERASEUCMBLOCK
      010001DFH   CODE     NEAR LAB  _FIRMWARE_GETCHIPID
      010001EBH   CODE     NEAR LAB  _FIRMWARE_GETCLOCKCONTROLSFR
      010001E8H   CODE     NEAR LAB  _FIRMWARE_GETCLOCKSOURCESELECTSFR
      010001EEH   CODE     NEAR LAB  _FIRMWARE_GETDIAGNOSTICDATA
      010001E2H   CODE     NEAR LAB  _FIRMWARE_GETFIRMWAREVERSION
      010001F1H   CODE     NEAR LAB  _FIRMWARE_GETRANDOMNUMBER
      01000AA9H   CODE     NEAR LAB  _FIRMWARE_MASSERASEUCM
      010001F4H   CODE     NEAR LAB  _FIRMWARE_SET_IO_PULLUP
      010001E5H   CODE     NEAR LAB  _FIRMWARE_SETCLOCK
      010001CDH   CODE     NEAR LAB  _FIRMWARE_SETCLOCKTRIM
      010001D9H   CODE     NEAR LAB  _FIRMWARE_SETEXECUTEONLYSTATUS
      010001DCH   CODE     NEAR LAB  _FIRMWARE_SETPROTECTSTATUS
      010001D3H   CODE     NEAR LAB  _FIRMWARE_SETSECURITYACTION
      010001D6H   CODE     NEAR LAB  _FIRMWARE_SETSECURITYMASK
      01000AB3H   CODE     NEAR LAB  _FIRMWARE_WRITEBYTEUCM
      01000B5EH   CODE     NEAR LAB  _FIRMWARE_WRITEEE
      01000B5EH   CODE     NEAR LAB  _Firmware_WriteUCM
      0100145FH   ECODE    ---       _ISO_Select_Speed
      01000AF1H   CODE     NEAR LAB  _MASS_ERASE_UCM_LEAVING_BOOTLOADER
      01001E70H   ECODE    ---       _PutChar
      0100080EH   ECODE    ---       _Serial_Receive_X_Bytes
      01001E5CH   ECODE    ---       _Serial_Transmit_X_Bytes
      01000EFDH   ECODE    ---       _SHA_1_Hash
      01001DF7H   ECODE    ---       _Timer0_Setup
*SFR* 000000D0H.6 DATA     BIT       AC
*SFR* 000000E0H   DATA     BYTE      ACC
*SFR* 000000E8H   DATA     BIT       AM
      00000099H   IDATA    ---       APDU_CMD
*SFR* 000000F0H   DATA     BYTE      B
      010015E3H   ECODE    ---       Call_SHA1
*SFR* 000000A1H   DATA     BYTE      CBSL
      01001E82H   ECODE    ---       Change_ISO_Speed
      01001DDDH   ECODE    ---       Chip_Init
      01001833H   ECODE    ---       CODE_Memory_Dump_Extended_Addressing
      00000049H   DATA     ---       CODE_PTR
      01000B7DH   CONST    ---       CRC16_LookUp_Table
      01001925H   ECODE    ---       Create_CRC16_Hash_Of_XDATA
      000000A7H   IDATA    CHAR      cRet_Val_Char
*SFR* 000000D0H.7 DATA     BIT       CY
*SFR* 00000083H   DATA     BYTE      DPH
*SFR* 00000083H   DATA     BYTE      DPH0
*SFR* 00000085H   DATA     BYTE      DPH1
*SFR* 00000082H   DATA     BYTE      DPL
*SFR* 00000082H   DATA     BYTE      DPL0
*SFR* 00000084H   DATA     BYTE      DPL1
*SFR* 00000086H   DATA     BYTE      DPS
*SFR* 00000093H   DATA     BYTE      DPX
*SFR* 00000093H   DATA     BYTE      DPX0
*SFR* 00000095H   DATA     BYTE      DPX1
      00000098H   IDATA    BYTE      DPX_Addr
*SFR* 000000E8H   DATA     BYTE      EPSW
      01001B8BH   ECODE    ---       Erase_256_UCM_Extended_Addressing
      01001BC5H   ECODE    ---       Erase_512_UCM_Extended_Addressing
LX51 LINKER/LOCATER V3.65                                                             12/12/2006  14:05:45  PAGE 11


      01001E94H   ECODE    ---       Erase_UCM_Blocks__R6R7_Passing
*SFR* 000000D0H.5 DATA     BIT       F0
*SFR* 000000E8H.1 DATA     BIT       F1
      01000A8FH   CODE     NEAR LAB  FIRMWARE_ERASEPAGEUCM
      01000A8FH   CODE     NEAR LAB  FIRMWARE_ERASEUCM256BYTES
      01000A9CH   CODE     NEAR LAB  FIRMWARE_ERASEUCM512BYTES
      010001D0H   CODE     NEAR LAB  FIRMWARE_ERASEUCMBLOCK
      010001DFH   CODE     NEAR LAB  FIRMWARE_GETCHIPID
      010001EBH   CODE     NEAR LAB  FIRMWARE_GETCLOCKCONTROLSFR
      010001E8H   CODE     NEAR LAB  FIRMWARE_GETCLOCKSOURCESELECTSFR
      010001EEH   CODE     NEAR LAB  FIRMWARE_GETDIAGNOSTICDATA
      010001E2H   CODE     NEAR LAB  Firmware_GetFirmwareVersion
      010001F1H   CODE     NEAR LAB  FIRMWARE_GETRANDOMNUMBER
      01000AA9H   CODE     NEAR LAB  FIRMWARE_MASSERASEUCM
      010001F4H   CODE     NEAR LAB  FIRMWARE_SET_IO_PULLUP
      010001E5H   CODE     NEAR LAB  FIRMWARE_SETCLOCK
      010001CDH   CODE     NEAR LAB  FIRMWARE_SETCLOCKTRIM
      010001D9H   CODE     NEAR LAB  FIRMWARE_SETEXECUTEONLYSTATUS
      010001DCH   CODE     NEAR LAB  FIRMWARE_SETPROTECTSTATUS
      010001D3H   CODE     NEAR LAB  FIRMWARE_SETSECURITYACTION
      010001D6H   CODE     NEAR LAB  FIRMWARE_SETSECURITYMASK
      01000AB3H   CODE     NEAR LAB  FIRMWARE_WRITEBYTEUCM
      01000B5EH   CODE     NEAR LAB  FIRMWARE_WRITEEE
      01000B5EH   CODE     NEAR LAB  FIRMWARE_WRITEUCM
*SFR* 00000080H   DATA     BIT       FSM_FINISH
*SFR* 00000080H.5 DATA     BIT       FSM_RESULT
*SFR* 00000080H.1 DATA     BIT       FSM_START
      01001B0DH   ECODE    ---       Get_Chip_ID
      01001D3BH   ECODE    ---       Get_Clock_Control
      01001D1AH   ECODE    ---       Get_Clock_Source
      01001B4CH   ECODE    ---       Get_Diagnostic_Data
      01001D5CH   ECODE    ---       Get_Firmware_Version
      01001CF8H   ECODE    ---       Get_Idle_Mode
      01001D7DH   ECODE    ---       Get_Interrupt_Enable
      01001EC6H   ECODE    ---       Get_OS_Version
      01001CD5H   ECODE    ---       Get_Pullup_Resistor
      01001EB6H   ECODE    ---       Get_Random_Number
      01001A05H   ECODE    ---       Get_Response
      01001D9DH   ECODE    ---       Get_Security_Status
      01001DBDH   ECODE    ---       Get_TCON
      01001F1AH   ECODE    ---       GetChar
      01001E11H   ECODE    ---       IDATA_Memory_Dump
      00000043H   DATA     ---       IDATA_PTR
      00000092H   IDATA    BYTE      IDLE_MODE
*SFR* 000000A8H   DATA     BYTE      IE
      01000D7DH   CONST    ---       INS_FPTR
      0201E800H   XDATA    ---       IO_Buffer
*SFR* 000000B8H   DATA     BYTE      IP
      00000093H   IDATA    INT       iRet_Val_Int
*SFR* 000000B2H   DATA     BYTE      ISOCON
*SFR* 000000B4H   DATA     BYTE      ISOTMR
      01001EF1H   ECODE    ---       Load_DPX
      01001BFFH   ECODE    ---       main
      01001F22H   ECODE    ---       Mass_Erase_UCM
      01000AF1H   CODE     NEAR LAB  MASS_ERASE_UCM_LEAVING_BOOTLOADER
*SFR* 000000F7H   DATA     BYTE      MFCON
*SFR* 00000088H.3 DATA     BIT       MFLT
*SFR* 000000A2H   DATA     BYTE      MPTR
*SFR* 000000EAH   DATA     BYTE      MPTRX
*SFR* 00000080H   DATA     BYTE      NVFSMCON
*SFR* 000000C9H   DATA     BYTE      NvFsmMode
*SFR* 000000D0H.2 DATA     BIT       OV
*SFR* 000000D0H   DATA     BIT       P
*SFR* 00000087H   DATA     BYTE      PCON
      01001664H   ECODE    ---       Process_APDU_Command
LX51 LINKER/LOCATER V3.65                                                             12/12/2006  14:05:45  PAGE 12


      01001EA6H   ECODE    ---       Process_PPS_Command
*SFR* 000000C0H   DATA     BYTE      PROGIO
*SFR* 000000D0H   DATA     BYTE      PSW
*SFR* 000000C0H   DATA     BIT       PULLUP_RES_STATE
*SFR* 00000098H   DATA     BIT       RI
*SFR* 000000D0H.3 DATA     BIT       RS0
*SFR* 000000D0H.4 DATA     BIT       RS1
*SFR* 00000099H   DATA     BYTE      SBUF
*SFR* 00000098H   DATA     BYTE      SCON
      01001974H   ECODE    ---       Security_Fault_ISR
*SFR* 000000B0H   DATA     BYTE      SECURITYSTATUS
      01001C38H   ECODE    ---       Send_ATR
      01000808H   ECODE    ---       Serial_ISR
      010018D5H   ECODE    ---       Set_Clock
      01001A89H   ECODE    ---       Set_Execute_Only_Status
      01001EE4H   ECODE    ---       Set_Idle_Mode
      01001EFCH   ECODE    ---       Set_Interrupt_Enable
      01001ACBH   ECODE    ---       Set_Protection_Status
      01001C60H   ECODE    ---       Set_Pullup_Resistor
      01001CAEH   ECODE    ---       Set_Security_Action
      01001C87H   ECODE    ---       Set_Security_Mask
      01001F06H   ECODE    ---       Set_Security_Status
*SFR* 00000088H.1 DATA     BIT       SINT
*SFR* 00000081H   DATA     BYTE      SP
*SFR* 000000D8H   DATA     BYTE      SPSW
*SFR* 00000088H   DATA     BIT       SSINT
      00000096H   IDATA    WORD      SW1SW2
*SFR* 00000088H   DATA     BYTE      TCON
      0000009FH   IDATA    ---       TEMP_BUF
*SFR* 00000088H.5 DATA     BIT       TF0
*SFR* 00000088H.7 DATA     BIT       TF1
*SFR* 0000008CH   DATA     BYTE      TH0
*SFR* 0000008DH   DATA     BYTE      TH1
*SFR* 00000098H.1 DATA     BIT       TI
      00000095H   IDATA    BYTE      Timer0_Int_Count
      01001ED5H   ECODE    ---       Timer0_ISR
      0100178FH   ECODE    ---       Timer0_Read
      01001E45H   ECODE    ---       Timer0_Start
      01001F10H   ECODE    ---       Timer0_Stop
*SFR* 0000008AH   DATA     BYTE      TL0
*SFR* 0000008BH   DATA     BYTE      TL1
*SFR* 00000089H   DATA     BYTE      TMOD
*SFR* 00000088H.4 DATA     BIT       TR0
*SFR* 00000088H.6 DATA     BIT       TR1
      00000046H   DATA     ---       uc_Fptr
      0000008BH   IDATA    BYTE      ucByte_To_Write
      0000009EH   IDATA    BYTE      ucCount
      00000090H   IDATA    WORD      uiTemp_Address
      0000008CH   IDATA    DWORD     ulTemp_Var
*SFR* 00000088H.1 DATA     BIT       USINT
      01001A47H   ECODE    ---       Write_Byte_UCM_Extended_Addressing
      01001E2BH   ECODE    ---       Write_To_IRAM
      010017E1H   ECODE    ---       Write_To_RAM_Extended_Addressing
      010019BDH   ECODE    ---       Write_UCM_Bytes_From_IRAM_Buffer_Extended_Addressing
      01001884H   ECODE    ---       XDATA_Memory_Dump_Extended_Addressing
      00000044H   DATA     ---       XDATA_PTR



SYMBOL TABLE OF MODULE:  Generic_TT120_Example_C_Code (TT120_GET_OS_VERSION)

      VALUE       REP       CLASS    TYPE      SYMBOL NAME
      ====================================================
      ---         MODULE    ---      ---       TT120_GET_OS_VERSION
      01001EC6H   PUBLIC    ECODE    ---       Get_OS_Version
LX51 LINKER/LOCATER V3.65                                                             12/12/2006  14:05:45  PAGE 13


      000000D0H.6 SFRSYM    DATA     BIT       AC
      00000080H   SFRSYM    DATA     BIT       FSM_FINISH
      00000083H   SFRSYM    DATA     BYTE      DPH0
      000000E8H   SFRSYM    DATA     BIT       AM
      000000A8H   SFRSYM    DATA     BYTE      IE
      00000085H   SFRSYM    DATA     BYTE      DPH1
      00000082H   SFRSYM    DATA     BYTE      DPL0
      00000084H   SFRSYM    DATA     BYTE      DPL1
      00000088H   SFRSYM    DATA     BIT       SSINT
      000000C0H   SFRSYM    DATA     BIT       PULLUP_RES_STATE
      00000088H.1 SFRSYM    DATA     BIT       USINT
      000000B8H   SFRSYM    DATA     BYTE      IP
      00000098H   SFRSYM    DATA     BIT       RI
      000000D0H.7 SFRSYM    DATA     BIT       CY
      00000098H.1 SFRSYM    DATA     BIT       TI
      000000EAH   SFRSYM    DATA     BYTE      MPTRX
      00000093H   SFRSYM    DATA     BYTE      DPX0
      00000095H   SFRSYM    DATA     BYTE      DPX1
      00000081H   SFRSYM    DATA     BYTE      SP
      000000D0H.2 SFRSYM    DATA     BIT       OV
      000000A1H   SFRSYM    DATA     BYTE      CBSL
      00000080H.5 SFRSYM    DATA     BIT       FSM_RESULT
      00000099H   SFRSYM    DATA     BYTE      SBUF
      00000087H   SFRSYM    DATA     BYTE      PCON
      00000088H.3 SFRSYM    DATA     BIT       MFLT
      00000098H   SFRSYM    DATA     BYTE      SCON
      00000089H   SFRSYM    DATA     BYTE      TMOD
      00000088H   SFRSYM    DATA     BYTE      TCON
      00000088H.1 SFRSYM    DATA     BIT       SINT
      000000E8H   SFRSYM    DATA     BYTE      EPSW
      000000F0H   SFRSYM    DATA     BYTE      B
      000000A2H   SFRSYM    DATA     BYTE      MPTR
      000000E0H   SFRSYM    DATA     BYTE      ACC
      00000088H.5 SFRSYM    DATA     BIT       TF0
      00000088H.7 SFRSYM    DATA     BIT       TF1
      0000008CH   SFRSYM    DATA     BYTE      TH0
      000000B2H   SFRSYM    DATA     BYTE      ISOCON
      0000008DH   SFRSYM    DATA     BYTE      TH1
      000000D8H   SFRSYM    DATA     BYTE      SPSW
      000000D0H   SFRSYM    DATA     BIT       P
      0000008AH   SFRSYM    DATA     BYTE      TL0
      0000008BH   SFRSYM    DATA     BYTE      TL1
      000000C0H   SFRSYM    DATA     BYTE      PROGIO
      000000D0H.3 SFRSYM    DATA     BIT       RS0
      00000088H.4 SFRSYM    DATA     BIT       TR0
      000000D0H.4 SFRSYM    DATA     BIT       RS1
      00000080H.1 SFRSYM    DATA     BIT       FSM_START
      00000088H.6 SFRSYM    DATA     BIT       TR1
      00000083H   SFRSYM    DATA     BYTE      DPH
      000000B4H   SFRSYM    DATA     BYTE      ISOTMR
      00000082H   SFRSYM    DATA     BYTE      DPL
      000000B0H   SFRSYM    DATA     BYTE      SECURITYSTATUS
      00000086H   SFRSYM    DATA     BYTE      DPS
      00000093H   SFRSYM    DATA     BYTE      DPX
      00000080H   SFRSYM    DATA     BYTE      NVFSMCON
      000000F7H   SFRSYM    DATA     BYTE      MFCON
      000000C9H   SFRSYM    DATA     BYTE      NvFsmMode
      000000D0H.5 SFRSYM    DATA     BIT       F0
      000000E8H.1 SFRSYM    DATA     BIT       F1
      000000D0H   SFRSYM    DATA     BYTE      PSW

      01001EC6H   BLOCK     ECODE    ---       LVL=0
      01001EC6H   LINE      ECODE    ---       #57
      01001EC6H   LINE      ECODE    ---       #58
      01001EC6H   LINE      ECODE    ---       #59
LX51 LINKER/LOCATER V3.65                                                             12/12/2006  14:05:45  PAGE 14


      01001ECBH   LINE      ECODE    ---       #60
      01001ED0H   LINE      ECODE    ---       #62
      01001ED4H   LINE      ECODE    ---       #64
      ---         BLOCKEND  ---      ---       LVL=0

      ---         MODULE    ---      ---       TT120_SEND_ATR
      01001C38H   PUBLIC    ECODE    ---       Send_ATR
      000000D0H.6 SFRSYM    DATA     BIT       AC
      00000080H   SFRSYM    DATA     BIT       FSM_FINISH
      00000083H   SFRSYM    DATA     BYTE      DPH0
      000000E8H   SFRSYM    DATA     BIT       AM
      000000A8H   SFRSYM    DATA     BYTE      IE
      00000085H   SFRSYM    DATA     BYTE      DPH1
      00000082H   SFRSYM    DATA     BYTE      DPL0
      00000084H   SFRSYM    DATA     BYTE      DPL1
      00000088H   SFRSYM    DATA     BIT       SSINT
      000000C0H   SFRSYM    DATA     BIT       PULLUP_RES_STATE
      00000088H.1 SFRSYM    DATA     BIT       USINT
      000000B8H   SFRSYM    DATA     BYTE      IP
      00000098H   SFRSYM    DATA     BIT       RI
      000000D0H.7 SFRSYM    DATA     BIT       CY
      00000098H.1 SFRSYM    DATA     BIT       TI
      000000EAH   SFRSYM    DATA     BYTE      MPTRX
      00000093H   SFRSYM    DATA     BYTE      DPX0
      00000095H   SFRSYM    DATA     BYTE      DPX1
      00000081H   SFRSYM    DATA     BYTE      SP
      000000D0H.2 SFRSYM    DATA     BIT       OV
      000000A1H   SFRSYM    DATA     BYTE      CBSL
      00000080H.5 SFRSYM    DATA     BIT       FSM_RESULT
      00000099H   SFRSYM    DATA     BYTE      SBUF
      00000087H   SFRSYM    DATA     BYTE      PCON
      00000088H.3 SFRSYM    DATA     BIT       MFLT
      00000098H   SFRSYM    DATA     BYTE      SCON
      00000089H   SFRSYM    DATA     BYTE      TMOD
      00000088H   SFRSYM    DATA     BYTE      TCON
      00000088H.1 SFRSYM    DATA     BIT       SINT
      000000E8H   SFRSYM    DATA     BYTE      EPSW
      000000F0H   SFRSYM    DATA     BYTE      B
      000000A2H   SFRSYM    DATA     BYTE      MPTR
      000000E0H   SFRSYM    DATA     BYTE      ACC
      00000088H.5 SFRSYM    DATA     BIT       TF0
      00000088H.7 SFRSYM    DATA     BIT       TF1
      0000008CH   SFRSYM    DATA     BYTE      TH0
      000000B2H   SFRSYM    DATA     BYTE      ISOCON
      0000008DH   SFRSYM    DATA     BYTE      TH1
      000000D8H   SFRSYM    DATA     BYTE      SPSW
      000000D0H   SFRSYM    DATA     BIT       P
      0000008AH   SFRSYM    DATA     BYTE      TL0
      0000008BH   SFRSYM    DATA     BYTE      TL1
      000000C0H   SFRSYM    DATA     BYTE      PROGIO
      000000D0H.3 SFRSYM    DATA     BIT       RS0
      00000088H.4 SFRSYM    DATA     BIT       TR0
      000000D0H.4 SFRSYM    DATA     BIT       RS1
      00000080H.1 SFRSYM    DATA     BIT       FSM_START
      00000088H.6 SFRSYM    DATA     BIT       TR1
      00000083H   SFRSYM    DATA     BYTE      DPH
      000000B4H   SFRSYM    DATA     BYTE      ISOTMR
      00000082H   SFRSYM    DATA     BYTE      DPL
      000000B0H   SFRSYM    DATA     BYTE      SECURITYSTATUS
      00000086H   SFRSYM    DATA     BYTE      DPS
      00000093H   SFRSYM    DATA     BYTE      DPX
      00000080H   SFRSYM    DATA     BYTE      NVFSMCON
      000000F7H   SFRSYM    DATA     BYTE      MFCON
      000000C9H   SFRSYM    DATA     BYTE      NvFsmMode
      000000D0H.5 SFRSYM    DATA     BIT       F0
LX51 LINKER/LOCATER V3.65                                                             12/12/2006  14:05:45  PAGE 15


      000000E8H.1 SFRSYM    DATA     BIT       F1
      000000D0H   SFRSYM    DATA     BYTE      PSW

      01001C38H   BLOCK     ECODE    ---       LVL=0
      01001C38H   LINE      ECODE    ---       #47
      01001C38H   LINE      ECODE    ---       #48
      01001C38H   LINE      ECODE    ---       #49
      01001C3DH   LINE      ECODE    ---       #51
      01001C42H   LINE      ECODE    ---       #53
      01001C47H   LINE      ECODE    ---       #55
      01001C4CH   LINE      ECODE    ---       #57
      01001C51H   LINE      ECODE    ---       #59
      01001C56H   LINE      ECODE    ---       #61
      01001C5DH   LINE      ECODE    ---       #63
      ---         BLOCKEND  ---      ---       LVL=0

      ---         MODULE    ---      ---       ?C_STARTUP
      01000800H   PUBLIC    CODE     NEAR LAB  ?C_STARTUP
      000000D0H.6 SFRSYM    DATA     BIT       AC
      000000E0H   SFRSYM    DATA     BYTE      ACC
      000000E8H   SFRSYM    DATA     BIT       AM
      000000F0H   SFRSYM    DATA     BYTE      B
      000000A1H   SFRSYM    DATA     BYTE      CBSL
      000000D0H.7 SFRSYM    DATA     BIT       CY
      00000083H   SFRSYM    DATA     BYTE      DPH
      00000083H   SFRSYM    DATA     BYTE      DPH0
      00000085H   SFRSYM    DATA     BYTE      DPH1
      00000082H   SFRSYM    DATA     BYTE      DPL
      00000082H   SFRSYM    DATA     BYTE      DPL0
      00000084H   SFRSYM    DATA     BYTE      DPL1
      00000086H   SFRSYM    DATA     BYTE      DPS
      00000093H   SFRSYM    DATA     BYTE      DPX
      00000093H   SFRSYM    DATA     BYTE      DPX0
      00000095H   SFRSYM    DATA     BYTE      DPX1
      000000E8H   SFRSYM    DATA     BYTE      EPSW
      000000D0H.5 SFRSYM    DATA     BIT       F0
      000000E8H.1 SFRSYM    DATA     BIT       F1
      00000080H   SFRSYM    DATA     BIT       FSM_FINISH
      00000080H.5 SFRSYM    DATA     BIT       FSM_RESULT
      00000080H.1 SFRSYM    DATA     BIT       FSM_START
      000000A8H   SFRSYM    DATA     BYTE      IE
      000000B8H   SFRSYM    DATA     BYTE      IP
      000000B2H   SFRSYM    DATA     BYTE      ISOCON
      000000B4H   SFRSYM    DATA     BYTE      ISOTMR
      000000F7H   SFRSYM    DATA     BYTE      MFCON
      00000088H.3 SFRSYM    DATA     BIT       MFLT
      000000A2H   SFRSYM    DATA     BYTE      MPTR
      000000EAH   SFRSYM    DATA     BYTE      MPTRX
      00000080H   SFRSYM    DATA     BYTE      NVFSMCON
      000000C9H   SFRSYM    DATA     BYTE      NVFSMMODE
      000000D0H.2 SFRSYM    DATA     BIT       OV
      000000D0H   SFRSYM    DATA     BIT       P
      00000087H   SFRSYM    DATA     BYTE      PCON
      000000C0H   SFRSYM    DATA     BYTE      PROGIO
      000000D0H   SFRSYM    DATA     BYTE      PSW
      000000C0H   SFRSYM    DATA     BIT       PULLUP_RES_STATE
      00000098H   SFRSYM    DATA     BIT       RI
      000000D0H.3 SFRSYM    DATA     BIT       RS0
      000000D0H.4 SFRSYM    DATA     BIT       RS1
      00000099H   SFRSYM    DATA     BYTE      SBUF
      00000098H   SFRSYM    DATA     BYTE      SCON
      000000B0H   SFRSYM    DATA     BYTE      SECURITYSTATUS
      00000088H.1 SFRSYM    DATA     BIT       SINT
      00000081H   SFRSYM    DATA     BYTE      SP
      000000D8H   SFRSYM    DATA     BYTE      SPSW
LX51 LINKER/LOCATER V3.65                                                             12/12/2006  14:05:45  PAGE 16


      00000088H   SFRSYM    DATA     BIT       SSINT
      00000088H   SFRSYM    DATA     BYTE      TCON
      00000088H.5 SFRSYM    DATA     BIT       TF0
      00000088H.7 SFRSYM    DATA     BIT       TF1
      0000008CH   SFRSYM    DATA     BYTE      TH0
      0000008DH   SFRSYM    DATA     BYTE      TH1
      00000098H.1 SFRSYM    DATA     BIT       TI
      0000008AH   SFRSYM    DATA     BYTE      TL0
      0000008BH   SFRSYM    DATA     BYTE      TL1
      00000089H   SFRSYM    DATA     BYTE      TMOD
      00000088H.4 SFRSYM    DATA     BIT       TR0
      00000088H.6 SFRSYM    DATA     BIT       TR1
      00000088H.1 SFRSYM    DATA     BIT       USINT
      00000004H   SYMBOL    NUMBER   ---       APDU_JUMPTABLE_SIZE
      00000000H   SYMBOL    NUMBER   ---       IBPSTACK
      00000100H   SYMBOL    NUMBER   ---       IBPSTACKTOP
      00000100H   SYMBOL    NUMBER   ---       IDATALEN
      010009BEH   SYMBOL    CODE     NEAR LAB  IDATALOOP
      00000000H   SYMBOL    NUMBER   ---       PBPSTACK
      00010000H   SYMBOL    NUMBER   ---       PBPSTACKTOP
      00000000H   SYMBOL    NUMBER   ---       PDATALEN
      00000000H   SYMBOL    NUMBER   ---       PDATASTART
      00000000H   SYMBOL    NUMBER   ---       PPAGE
      00000000H   SYMBOL    NUMBER   ---       PPAGEENABLE
      010009BBH   SYMBOL    CODE     NEAR LAB  STARTUP1
      00000000H   SYMBOL    NUMBER   ---       XBPSTACK
      00010000H   SYMBOL    NUMBER   ---       XBPSTACKTOP
      00000800H   SYMBOL    NUMBER   ---       XDATALEN
      010009CAH   SYMBOL    CODE     NEAR LAB  XDATALOOP
      0001E800H   SYMBOL    NUMBER   ---       XDATASTART
      0001E800H   SYMBOL    NUMBER   ---       XRAM_START_ADDRESS

      01000800H   BLOCK     CODE     NEAR LAB  LVL=0
      01000800H   LINE      CODE     ---       #93
      ---         BLOCKEND  ---      ---       LVL=0

      010009BBH   BLOCK     CODE     NEAR LAB  LVL=0
      010009BBH   LINE      CODE     ---       #101
      010009BDH   LINE      CODE     ---       #102
      010009BEH   LINE      CODE     ---       #103
      010009BFH   LINE      CODE     ---       #104
      010009C1H   LINE      CODE     ---       #109
      010009C5H   LINE      CODE     ---       #110
      010009C7H   LINE      CODE     ---       #116
      010009C9H   LINE      CODE     ---       #119
      010009CAH   LINE      CODE     ---       #120
      010009CBH   LINE      CODE     ---       #121
      010009CCH   LINE      CODE     ---       #122
      010009CEH   LINE      CODE     ---       #123
      010009D0H   LINE      CODE     ---       #163
      010009D3H   LINE      CODE     ---       #164
      ---         BLOCKEND  ---      ---       LVL=0

      ---         MODULE    ---      ---       TT120_ISR
      01001974H   PUBLIC    ECODE    ---       Security_Fault_ISR
      01000808H   PUBLIC    ECODE    ---       Serial_ISR
      01001ED5H   PUBLIC    ECODE    ---       Timer0_ISR
      000000D0H.6 SFRSYM    DATA     BIT       AC
      00000080H   SFRSYM    DATA     BIT       FSM_FINISH
      00000083H   SFRSYM    DATA     BYTE      DPH0
      000000E8H   SFRSYM    DATA     BIT       AM
      000000A8H   SFRSYM    DATA     BYTE      IE
      00000085H   SFRSYM    DATA     BYTE      DPH1
      00000082H   SFRSYM    DATA     BYTE      DPL0
      00000084H   SFRSYM    DATA     BYTE      DPL1
LX51 LINKER/LOCATER V3.65                                                             12/12/2006  14:05:45  PAGE 17


      00000088H   SFRSYM    DATA     BIT       SSINT
      000000C0H   SFRSYM    DATA     BIT       PULLUP_RES_STATE
      00000088H.1 SFRSYM    DATA     BIT       USINT
      000000B8H   SFRSYM    DATA     BYTE      IP
      00000098H   SFRSYM    DATA     BIT       RI
      000000D0H.7 SFRSYM    DATA     BIT       CY
      00000098H.1 SFRSYM    DATA     BIT       TI
      000000EAH   SFRSYM    DATA     BYTE      MPTRX
      00000093H   SFRSYM    DATA     BYTE      DPX0
      00000095H   SFRSYM    DATA     BYTE      DPX1
      00000081H   SFRSYM    DATA     BYTE      SP
      000000D0H.2 SFRSYM    DATA     BIT       OV
      000000A1H   SFRSYM    DATA     BYTE      CBSL
      00000080H.5 SFRSYM    DATA     BIT       FSM_RESULT
      00000099H   SFRSYM    DATA     BYTE      SBUF
      00000087H   SFRSYM    DATA     BYTE      PCON
      00000088H.3 SFRSYM    DATA     BIT       MFLT
      00000098H   SFRSYM    DATA     BYTE      SCON
      00000089H   SFRSYM    DATA     BYTE      TMOD
      00000088H   SFRSYM    DATA     BYTE      TCON
      00000088H.1 SFRSYM    DATA     BIT       SINT
      000000E8H   SFRSYM    DATA     BYTE      EPSW
      000000F0H   SFRSYM    DATA     BYTE      B
      000000A2H   SFRSYM    DATA     BYTE      MPTR
      000000E0H   SFRSYM    DATA     BYTE      ACC
      00000088H.5 SFRSYM    DATA     BIT       TF0
      00000088H.7 SFRSYM    DATA     BIT       TF1
      0000008CH   SFRSYM    DATA     BYTE      TH0
      000000B2H   SFRSYM    DATA     BYTE      ISOCON
      0000008DH   SFRSYM    DATA     BYTE      TH1
      000000D8H   SFRSYM    DATA     BYTE      SPSW
      000000D0H   SFRSYM    DATA     BIT       P
      0000008AH   SFRSYM    DATA     BYTE      TL0
      0000008BH   SFRSYM    DATA     BYTE      TL1
      000000C0H   SFRSYM    DATA     BYTE      PROGIO
      000000D0H.3 SFRSYM    DATA     BIT       RS0
      00000088H.4 SFRSYM    DATA     BIT       TR0
      000000D0H.4 SFRSYM    DATA     BIT       RS1
      00000080H.1 SFRSYM    DATA     BIT       FSM_START
      00000088H.6 SFRSYM    DATA     BIT       TR1
      00000083H   SFRSYM    DATA     BYTE      DPH
      000000B4H   SFRSYM    DATA     BYTE      ISOTMR
      00000082H   SFRSYM    DATA     BYTE      DPL
      000000B0H   SFRSYM    DATA     BYTE      SECURITYSTATUS
      00000086H   SFRSYM    DATA     BYTE      DPS
      00000093H   SFRSYM    DATA     BYTE      DPX
      00000080H   SFRSYM    DATA     BYTE      NVFSMCON
      000000F7H   SFRSYM    DATA     BYTE      MFCON
      000000C9H   SFRSYM    DATA     BYTE      NvFsmMode
      000000D0H.5 SFRSYM    DATA     BIT       F0
      000000E8H.1 SFRSYM    DATA     BIT       F1
      000000D0H   SFRSYM    DATA     BYTE      PSW

      01001ED5H   BLOCK     ECODE    ---       LVL=0
      01001ED5H   LINE      ECODE    ---       #66
      01001EDCH   LINE      ECODE    ---       #68
      01001EDFH   LINE      ECODE    ---       #69
      ---         BLOCKEND  ---      ---       LVL=0

      01000808H   BLOCK     ECODE    ---       LVL=0
      01000808H   LINE      ECODE    ---       #80
      01000808H   LINE      ECODE    ---       #83
      ---         BLOCKEND  ---      ---       LVL=0

      01001974H   BLOCK     ECODE    ---       LVL=0
LX51 LINKER/LOCATER V3.65                                                             12/12/2006  14:05:45  PAGE 18


      01001974H   LINE      ECODE    ---       #94
      01001993H   LINE      ECODE    ---       #98
      01001998H   LINE      ECODE    ---       #100
      0100199DH   LINE      ECODE    ---       #102
      010019A0H   LINE      ECODE    ---       #116
      ---         BLOCKEND  ---      ---       LVL=0

      ---         MODULE    ---      ---       TT120_MASS_ERASE_UCM_LEAVING_BOOTLOADER
      01000AF1H   PUBLIC    CODE     NEAR LAB  _MASS_ERASE_UCM_LEAVING_BOOTLOADER
      01000AF1H   PUBLIC    CODE     NEAR LAB  MASS_ERASE_UCM_LEAVING_BOOTLOADER
      000000D0H.6 SFRSYM    DATA     BIT       AC
      000000E0H   SFRSYM    DATA     BYTE      ACC
      000000E8H   SFRSYM    DATA     BIT       AM
      000000F0H   SFRSYM    DATA     BYTE      B
      000000A1H   SFRSYM    DATA     BYTE      CBSL
      000000D0H.7 SFRSYM    DATA     BIT       CY
      00000083H   SFRSYM    DATA     BYTE      DPH
      00000083H   SFRSYM    DATA     BYTE      DPH0
      00000085H   SFRSYM    DATA     BYTE      DPH1
      00000082H   SFRSYM    DATA     BYTE      DPL
      00000082H   SFRSYM    DATA     BYTE      DPL0
      00000084H   SFRSYM    DATA     BYTE      DPL1
      00000086H   SFRSYM    DATA     BYTE      DPS
      00000093H   SFRSYM    DATA     BYTE      DPX
      00000093H   SFRSYM    DATA     BYTE      DPX0
      00000095H   SFRSYM    DATA     BYTE      DPX1
      000000E8H   SFRSYM    DATA     BYTE      EPSW
      000000D0H.5 SFRSYM    DATA     BIT       F0
      000000E8H.1 SFRSYM    DATA     BIT       F1
      00000080H   SFRSYM    DATA     BIT       FSM_FINISH
      00000080H.5 SFRSYM    DATA     BIT       FSM_RESULT
      00000080H.1 SFRSYM    DATA     BIT       FSM_START
      000000A8H   SFRSYM    DATA     BYTE      IE
      000000B8H   SFRSYM    DATA     BYTE      IP
      000000B2H   SFRSYM    DATA     BYTE      ISOCON
      000000B4H   SFRSYM    DATA     BYTE      ISOTMR
      000000F7H   SFRSYM    DATA     BYTE      MFCON
      00000088H.3 SFRSYM    DATA     BIT       MFLT
      000000A2H   SFRSYM    DATA     BYTE      MPTR
      000000EAH   SFRSYM    DATA     BYTE      MPTRX
      00000080H   SFRSYM    DATA     BYTE      NVFSMCON
      000000C9H   SFRSYM    DATA     BYTE      NVFSMMODE
      000000D0H.2 SFRSYM    DATA     BIT       OV
      000000D0H   SFRSYM    DATA     BIT       P
      00000087H   SFRSYM    DATA     BYTE      PCON
      000000C0H   SFRSYM    DATA     BYTE      PROGIO
      000000D0H   SFRSYM    DATA     BYTE      PSW
      000000C0H   SFRSYM    DATA     BIT       PULLUP_RES_STATE
      00000098H   SFRSYM    DATA     BIT       RI
      000000D0H.3 SFRSYM    DATA     BIT       RS0
      000000D0H.4 SFRSYM    DATA     BIT       RS1
      00000099H   SFRSYM    DATA     BYTE      SBUF
      00000098H   SFRSYM    DATA     BYTE      SCON
      000000B0H   SFRSYM    DATA     BYTE      SECURITYSTATUS
      00000088H.1 SFRSYM    DATA     BIT       SINT
      00000081H   SFRSYM    DATA     BYTE      SP
      000000D8H   SFRSYM    DATA     BYTE      SPSW
      00000088H   SFRSYM    DATA     BIT       SSINT
      00000088H   SFRSYM    DATA     BYTE      TCON
      00000088H.5 SFRSYM    DATA     BIT       TF0
      00000088H.7 SFRSYM    DATA     BIT       TF1
      0000008CH   SFRSYM    DATA     BYTE      TH0
      0000008DH   SFRSYM    DATA     BYTE      TH1
      00000098H.1 SFRSYM    DATA     BIT       TI
      0000008AH   SFRSYM    DATA     BYTE      TL0
LX51 LINKER/LOCATER V3.65                                                             12/12/2006  14:05:45  PAGE 19


      0000008BH   SFRSYM    DATA     BYTE      TL1
      00000089H   SFRSYM    DATA     BYTE      TMOD
      00000088H.4 SFRSYM    DATA     BIT       TR0
      00000088H.6 SFRSYM    DATA     BIT       TR1
      00000088H.1 SFRSYM    DATA     BIT       USINT
      00000004H   SYMBOL    NUMBER   ---       APDU_JUMPTABLE_SIZE
      01000AFAH   SYMBOL    CODE     NEAR LAB  COPY_CODE_AND_JUMP_FOREVER_LOOP_TO_XRAM_AND_JUMP_TO_IT
      01000B01H   SYMBOL    CODE     NEAR LAB  COPY_XRAM_CODE_LOOP
      01000B2AH   SYMBOL    CODE     NEAR LAB  MASS_ERASE_CODE_TO_GO_INTO_XRAM
      01000B38H   SYMBOL    CODE     NEAR LAB  MASS_ERASE_UCM__BOOTLOADER_SAFE__LOOP
      0001E800H   SYMBOL    NUMBER   ---       XRAM_CODE_LOCATION
      0001E900H   SYMBOL    NUMBER   ---       XRAM_LOOP_FOREVER_ADDR
      0001E800H   SYMBOL    NUMBER   ---       XRAM_START_ADDRESS

      01000AF1H   BLOCK     CODE     NEAR LAB  LVL=0
      01000AF1H   LINE      CODE     ---       #59
      01000AF3H   LINE      CODE     ---       #60
      01000AF6H   LINE      CODE     ---       #61
      01000AFAH   LINE      CODE     ---       #64
      01000AFDH   LINE      CODE     ---       #65
      01000B01H   LINE      CODE     ---       #68
      01000B04H   LINE      CODE     ---       #69
      01000B05H   LINE      CODE     ---       #70
      01000B06H   LINE      CODE     ---       #71
      01000B07H   LINE      CODE     ---       #73
      01000B0AH   LINE      CODE     ---       #74
      01000B0BH   LINE      CODE     ---       #75
      01000B0CH   LINE      CODE     ---       #76
      01000B0EH   LINE      CODE     ---       #79
      01000B12H   LINE      CODE     ---       #80
      01000B14H   LINE      CODE     ---       #81
      01000B15H   LINE      CODE     ---       #82
      01000B16H   LINE      CODE     ---       #83
      01000B18H   LINE      CODE     ---       #84
      01000B19H   LINE      CODE     ---       #85
      01000B1AH   LINE      CODE     ---       #86
      01000B1CH   LINE      CODE     ---       #87
      01000B1DH   LINE      CODE     ---       #88
      01000B1EH   LINE      CODE     ---       #89
      01000B20H   LINE      CODE     ---       #90
      01000B21H   LINE      CODE     ---       #92
      01000B24H   LINE      CODE     ---       #95
      01000B26H   LINE      CODE     ---       #98
      ---         BLOCKEND  ---      ---       LVL=0

      01000B2AH   BLOCK     CODE     NEAR LAB  LVL=0
      01000B2AH   LINE      CODE     ---       #111
      01000B2CH   LINE      CODE     ---       #112
      01000B2EH   LINE      CODE     ---       #113
      01000B32H   LINE      CODE     ---       #116
      01000B36H   LINE      CODE     ---       #117
      01000B38H   LINE      CODE     ---       #121
      01000B3BH   LINE      CODE     ---       #122
      01000B3CH   LINE      CODE     ---       #123
      01000B3FH   LINE      CODE     ---       #124
      01000B42H   LINE      CODE     ---       #126
      01000B44H   LINE      CODE     ---       #128
      01000B46H   LINE      CODE     ---       #129
      01000B48H   LINE      CODE     ---       #131
      01000B4AH   LINE      CODE     ---       #133
      01000B4DH   LINE      CODE     ---       #134
      01000B50H   LINE      CODE     ---       #135
      01000B52H   LINE      CODE     ---       #137
      01000B55H   LINE      CODE     ---       #138
      01000B58H   LINE      CODE     ---       #139
LX51 LINKER/LOCATER V3.65                                                             12/12/2006  14:05:45  PAGE 20


      01000B5AH   LINE      CODE     ---       #141
      ---         BLOCKEND  ---      ---       LVL=0

      ---         MODULE    ---      ---       TT120_API_JUMPTABLE
      01000A8FH   PUBLIC    CODE     NEAR LAB  _FIRMWARE_ERASEPAGEUCM
      01000A8FH   PUBLIC    CODE     NEAR LAB  _FIRMWARE_ERASEUCM256BYTES
      01000A9CH   PUBLIC    CODE     NEAR LAB  _FIRMWARE_ERASEUCM512BYTES
      010001D0H   PUBLIC    CODE     NEAR LAB  _FIRMWARE_ERASEUCMBLOCK
      010001DFH   PUBLIC    CODE     NEAR LAB  _FIRMWARE_GETCHIPID
      010001EBH   PUBLIC    CODE     NEAR LAB  _FIRMWARE_GETCLOCKCONTROLSFR
      010001E8H   PUBLIC    CODE     NEAR LAB  _FIRMWARE_GETCLOCKSOURCESELECTSFR
      010001EEH   PUBLIC    CODE     NEAR LAB  _FIRMWARE_GETDIAGNOSTICDATA
      010001E2H   PUBLIC    CODE     NEAR LAB  _FIRMWARE_GETFIRMWAREVERSION
      010001F1H   PUBLIC    CODE     NEAR LAB  _FIRMWARE_GETRANDOMNUMBER
      01000AA9H   PUBLIC    CODE     NEAR LAB  _FIRMWARE_MASSERASEUCM
      010001F4H   PUBLIC    CODE     NEAR LAB  _FIRMWARE_SET_IO_PULLUP
      010001E5H   PUBLIC    CODE     NEAR LAB  _FIRMWARE_SETCLOCK
      010001CDH   PUBLIC    CODE     NEAR LAB  _FIRMWARE_SETCLOCKTRIM
      010001D9H   PUBLIC    CODE     NEAR LAB  _FIRMWARE_SETEXECUTEONLYSTATUS
      010001DCH   PUBLIC    CODE     NEAR LAB  _FIRMWARE_SETPROTECTSTATUS
      010001D3H   PUBLIC    CODE     NEAR LAB  _FIRMWARE_SETSECURITYACTION
      010001D6H   PUBLIC    CODE     NEAR LAB  _FIRMWARE_SETSECURITYMASK
      01000AB3H   PUBLIC    CODE     NEAR LAB  _FIRMWARE_WRITEBYTEUCM
      01000A8FH   PUBLIC    CODE     NEAR LAB  FIRMWARE_ERASEPAGEUCM
      01000A8FH   PUBLIC    CODE     NEAR LAB  FIRMWARE_ERASEUCM256BYTES
      01000A9CH   PUBLIC    CODE     NEAR LAB  FIRMWARE_ERASEUCM512BYTES
      010001D0H   PUBLIC    CODE     NEAR LAB  FIRMWARE_ERASEUCMBLOCK
      010001DFH   PUBLIC    CODE     NEAR LAB  FIRMWARE_GETCHIPID
      010001EBH   PUBLIC    CODE     NEAR LAB  FIRMWARE_GETCLOCKCONTROLSFR
      010001E8H   PUBLIC    CODE     NEAR LAB  FIRMWARE_GETCLOCKSOURCESELECTSFR
      010001EEH   PUBLIC    CODE     NEAR LAB  FIRMWARE_GETDIAGNOSTICDATA
      010001E2H   PUBLIC    CODE     NEAR LAB  FIRMWARE_GETFIRMWAREVERSION
      010001F1H   PUBLIC    CODE     NEAR LAB  FIRMWARE_GETRANDOMNUMBER
      01000AA9H   PUBLIC    CODE     NEAR LAB  FIRMWARE_MASSERASEUCM
      010001F4H   PUBLIC    CODE     NEAR LAB  FIRMWARE_SET_IO_PULLUP
      010001E5H   PUBLIC    CODE     NEAR LAB  FIRMWARE_SETCLOCK
      010001CDH   PUBLIC    CODE     NEAR LAB  FIRMWARE_SETCLOCKTRIM
      010001D9H   PUBLIC    CODE     NEAR LAB  FIRMWARE_SETEXECUTEONLYSTATUS
      010001DCH   PUBLIC    CODE     NEAR LAB  FIRMWARE_SETPROTECTSTATUS
      010001D3H   PUBLIC    CODE     NEAR LAB  FIRMWARE_SETSECURITYACTION
      010001D6H   PUBLIC    CODE     NEAR LAB  FIRMWARE_SETSECURITYMASK
      01000AB3H   PUBLIC    CODE     NEAR LAB  FIRMWARE_WRITEBYTEUCM
      000000D0H.6 SFRSYM    DATA     BIT       AC
      000000E0H   SFRSYM    DATA     BYTE      ACC
      000000E8H   SFRSYM    DATA     BIT       AM
      000000F0H   SFRSYM    DATA     BYTE      B
      000000A1H   SFRSYM    DATA     BYTE      CBSL
      000000D0H.7 SFRSYM    DATA     BIT       CY
      00000083H   SFRSYM    DATA     BYTE      DPH
      00000083H   SFRSYM    DATA     BYTE      DPH0
      00000085H   SFRSYM    DATA     BYTE      DPH1
      00000082H   SFRSYM    DATA     BYTE      DPL
      00000082H   SFRSYM    DATA     BYTE      DPL0
      00000084H   SFRSYM    DATA     BYTE      DPL1
      00000086H   SFRSYM    DATA     BYTE      DPS
      00000093H   SFRSYM    DATA     BYTE      DPX
      00000093H   SFRSYM    DATA     BYTE      DPX0
      00000095H   SFRSYM    DATA     BYTE      DPX1
      000000E8H   SFRSYM    DATA     BYTE      EPSW
      000000D0H.5 SFRSYM    DATA     BIT       F0
      000000E8H.1 SFRSYM    DATA     BIT       F1
      00000080H   SFRSYM    DATA     BIT       FSM_FINISH
      00000080H.5 SFRSYM    DATA     BIT       FSM_RESULT
      00000080H.1 SFRSYM    DATA     BIT       FSM_START
      000000A8H   SFRSYM    DATA     BYTE      IE
LX51 LINKER/LOCATER V3.65                                                             12/12/2006  14:05:45  PAGE 21


      000000B8H   SFRSYM    DATA     BYTE      IP
      000000B2H   SFRSYM    DATA     BYTE      ISOCON
      000000B4H   SFRSYM    DATA     BYTE      ISOTMR
      000000F7H   SFRSYM    DATA     BYTE      MFCON
      00000088H.3 SFRSYM    DATA     BIT       MFLT
      000000A2H   SFRSYM    DATA     BYTE      MPTR
      000000EAH   SFRSYM    DATA     BYTE      MPTRX
      00000080H   SFRSYM    DATA     BYTE      NVFSMCON
      000000C9H   SFRSYM    DATA     BYTE      NVFSMMODE
      000000D0H.2 SFRSYM    DATA     BIT       OV
      000000D0H   SFRSYM    DATA     BIT       P
      00000087H   SFRSYM    DATA     BYTE      PCON
      000000C0H   SFRSYM    DATA     BYTE      PROGIO
      000000D0H   SFRSYM    DATA     BYTE      PSW
      000000C0H   SFRSYM    DATA     BIT       PULLUP_RES_STATE
      00000098H   SFRSYM    DATA     BIT       RI
      000000D0H.3 SFRSYM    DATA     BIT       RS0
      000000D0H.4 SFRSYM    DATA     BIT       RS1
      00000099H   SFRSYM    DATA     BYTE      SBUF
      00000098H   SFRSYM    DATA     BYTE      SCON
      000000B0H   SFRSYM    DATA     BYTE      SECURITYSTATUS
      00000088H.1 SFRSYM    DATA     BIT       SINT
      00000081H   SFRSYM    DATA     BYTE      SP
      000000D8H   SFRSYM    DATA     BYTE      SPSW
      00000088H   SFRSYM    DATA     BIT       SSINT
      00000088H   SFRSYM    DATA     BYTE      TCON
      00000088H.5 SFRSYM    DATA     BIT       TF0
      00000088H.7 SFRSYM    DATA     BIT       TF1
      0000008CH   SFRSYM    DATA     BYTE      TH0
      0000008DH   SFRSYM    DATA     BYTE      TH1
      00000098H.1 SFRSYM    DATA     BIT       TI
      0000008AH   SFRSYM    DATA     BYTE      TL0
      0000008BH   SFRSYM    DATA     BYTE      TL1
      00000089H   SFRSYM    DATA     BYTE      TMOD
      00000088H.4 SFRSYM    DATA     BIT       TR0
      00000088H.6 SFRSYM    DATA     BIT       TR1
      00000088H.1 SFRSYM    DATA     BIT       USINT
      01000AEEH   SYMBOL    CODE     NEAR LAB  ADDRESS_ERROR
      01000AE0H   SYMBOL    CODE     NEAR LAB  CHECK_HIGH_ADDRESS_BOUNDARY
      01000ABDH   SYMBOL    CODE     NEAR LAB  FIRMWARE_API_RUN_STATE_MACHINE
      01000ACCH   SYMBOL    CODE     NEAR LAB  FIRMWARE_API_RUN_STATE_MACHINE__RETURN
      01000ACDH   SYMBOL    CODE     NEAR LAB  LOAD_DPTR
      01000AEBH   SYMBOL    CODE     NEAR LAB  RETURN_ERROR

      01000A8FH   BLOCK     CODE     NEAR LAB  LVL=0
      01000A8FH   LINE      CODE     ---       #107
      01000A92H   LINE      CODE     ---       #110
      01000A94H   LINE      CODE     ---       #113
      01000A97H   LINE      CODE     ---       #114
      01000A98H   LINE      CODE     ---       #115
      01000A9BH   LINE      CODE     ---       #117
      01000A9CH   LINE      CODE     ---       #123
      01000A9FH   LINE      CODE     ---       #126
      01000AA1H   LINE      CODE     ---       #129
      01000AA4H   LINE      CODE     ---       #130
      01000AA5H   LINE      CODE     ---       #131
      01000AA8H   LINE      CODE     ---       #133
      01000AA9H   LINE      CODE     ---       #142
      01000AACH   LINE      CODE     ---       #143
      01000AAFH   LINE      CODE     ---       #144
      01000AB2H   LINE      CODE     ---       #146
      01000AB3H   LINE      CODE     ---       #152
      01000AB6H   LINE      CODE     ---       #155
      01000AB8H   LINE      CODE     ---       #158
      01000AB9H   LINE      CODE     ---       #160
LX51 LINKER/LOCATER V3.65                                                             12/12/2006  14:05:45  PAGE 22


      01000ABCH   LINE      CODE     ---       #161
      01000ABDH   LINE      CODE     ---       #167
      01000AC0H   LINE      CODE     ---       #168
      01000AC3H   LINE      CODE     ---       #171
      01000AC5H   LINE      CODE     ---       #176
      01000AC7H   LINE      CODE     ---       #177
      01000ACAH   LINE      CODE     ---       #178
      01000ACCH   LINE      CODE     ---       #182
      01000ACDH   LINE      CODE     ---       #187
      01000ACFH   LINE      CODE     ---       #188
      01000AD1H   LINE      CODE     ---       #189
      01000AD3H   LINE      CODE     ---       #194
      01000AD4H   LINE      CODE     ---       #195
      01000AD6H   LINE      CODE     ---       #196
      01000AD8H   LINE      CODE     ---       #198
      01000ADAH   LINE      CODE     ---       #199
      01000ADCH   LINE      CODE     ---       #200
      01000ADEH   LINE      CODE     ---       #202
      01000ADFH   LINE      CODE     ---       #204
      01000AE0H   LINE      CODE     ---       #207
      01000AE3H   LINE      CODE     ---       #209
      01000AE5H   LINE      CODE     ---       #210
      01000AE7H   LINE      CODE     ---       #211
      01000AE9H   LINE      CODE     ---       #213
      01000AEAH   LINE      CODE     ---       #215
      01000AEBH   LINE      CODE     ---       #218
      01000AEDH   LINE      CODE     ---       #220
      01000AEEH   LINE      CODE     ---       #225
      01000AF0H   LINE      CODE     ---       #227
      ---         BLOCKEND  ---      ---       LVL=0

      ---         MODULE    ---      ---       CHIP_INIT
      01001DDDH   PUBLIC    ECODE    ---       Chip_Init
      000000D0H.6 SFRSYM    DATA     BIT       AC
      00000080H   SFRSYM    DATA     BIT       FSM_FINISH
      00000083H   SFRSYM    DATA     BYTE      DPH0
      000000E8H   SFRSYM    DATA     BIT       AM
      000000A8H   SFRSYM    DATA     BYTE      IE
      00000085H   SFRSYM    DATA     BYTE      DPH1
      00000082H   SFRSYM    DATA     BYTE      DPL0
      00000084H   SFRSYM    DATA     BYTE      DPL1
      00000088H   SFRSYM    DATA     BIT       SSINT
      000000C0H   SFRSYM    DATA     BIT       PULLUP_RES_STATE
      00000088H.1 SFRSYM    DATA     BIT       USINT
      000000B8H   SFRSYM    DATA     BYTE      IP
      00000098H   SFRSYM    DATA     BIT       RI
      000000D0H.7 SFRSYM    DATA     BIT       CY
      00000098H.1 SFRSYM    DATA     BIT       TI
      000000EAH   SFRSYM    DATA     BYTE      MPTRX
      00000093H   SFRSYM    DATA     BYTE      DPX0
      00000095H   SFRSYM    DATA     BYTE      DPX1
      00000081H   SFRSYM    DATA     BYTE      SP
      000000D0H.2 SFRSYM    DATA     BIT       OV
      000000A1H   SFRSYM    DATA     BYTE      CBSL
      00000080H.5 SFRSYM    DATA     BIT       FSM_RESULT
      00000099H   SFRSYM    DATA     BYTE      SBUF
      00000087H   SFRSYM    DATA     BYTE      PCON
      00000088H.3 SFRSYM    DATA     BIT       MFLT
      00000098H   SFRSYM    DATA     BYTE      SCON
      00000089H   SFRSYM    DATA     BYTE      TMOD
      00000088H   SFRSYM    DATA     BYTE      TCON
      00000088H.1 SFRSYM    DATA     BIT       SINT
      000000E8H   SFRSYM    DATA     BYTE      EPSW
      000000F0H   SFRSYM    DATA     BYTE      B
      000000A2H   SFRSYM    DATA     BYTE      MPTR
LX51 LINKER/LOCATER V3.65                                                             12/12/2006  14:05:45  PAGE 23


      000000E0H   SFRSYM    DATA     BYTE      ACC
      00000088H.5 SFRSYM    DATA     BIT       TF0
      00000088H.7 SFRSYM    DATA     BIT       TF1
      0000008CH   SFRSYM    DATA     BYTE      TH0
      000000B2H   SFRSYM    DATA     BYTE      ISOCON
      0000008DH   SFRSYM    DATA     BYTE      TH1
      000000D8H   SFRSYM    DATA     BYTE      SPSW
      000000D0H   SFRSYM    DATA     BIT       P
      0000008AH   SFRSYM    DATA     BYTE      TL0
      0000008BH   SFRSYM    DATA     BYTE      TL1
      000000C0H   SFRSYM    DATA     BYTE      PROGIO
      000000D0H.3 SFRSYM    DATA     BIT       RS0
      00000088H.4 SFRSYM    DATA     BIT       TR0
      000000D0H.4 SFRSYM    DATA     BIT       RS1
      00000080H.1 SFRSYM    DATA     BIT       FSM_START
      00000088H.6 SFRSYM    DATA     BIT       TR1
      00000083H   SFRSYM    DATA     BYTE      DPH
      000000B4H   SFRSYM    DATA     BYTE      ISOTMR
      00000082H   SFRSYM    DATA     BYTE      DPL
      000000B0H   SFRSYM    DATA     BYTE      SECURITYSTATUS
      00000086H   SFRSYM    DATA     BYTE      DPS
      00000093H   SFRSYM    DATA     BYTE      DPX
      00000080H   SFRSYM    DATA     BYTE      NVFSMCON
      000000F7H   SFRSYM    DATA     BYTE      MFCON
      000000C9H   SFRSYM    DATA     BYTE      NvFsmMode
      000000D0H.5 SFRSYM    DATA     BIT       F0
      000000E8H.1 SFRSYM    DATA     BIT       F1
      000000D0H   SFRSYM    DATA     BYTE      PSW

      01001DDDH   BLOCK     ECODE    ---       LVL=0
      01001DDDH   LINE      ECODE    ---       #54
      01001DDDH   LINE      ECODE    ---       #55
      01001DDDH   LINE      ECODE    ---       #58
      01001DE5H   LINE      ECODE    ---       #64
      01001DE8H   LINE      ECODE    ---       #68
      01001DEBH   LINE      ECODE    ---       #71
      01001DF2H   LINE      ECODE    ---       #74
      01001DF6H   LINE      ECODE    ---       #76
      ---         BLOCKEND  ---      ---       LVL=0

      ---         MODULE    ---      ---       GET_INTERRUPT_ENABLE
      01001D7DH   PUBLIC    ECODE    ---       Get_Interrupt_Enable
      000000D0H.6 SFRSYM    DATA     BIT       AC
      00000080H   SFRSYM    DATA     BIT       FSM_FINISH
      00000083H   SFRSYM    DATA     BYTE      DPH0
      000000E8H   SFRSYM    DATA     BIT       AM
      000000A8H   SFRSYM    DATA     BYTE      IE
      00000085H   SFRSYM    DATA     BYTE      DPH1
      00000082H   SFRSYM    DATA     BYTE      DPL0
      00000084H   SFRSYM    DATA     BYTE      DPL1
      00000088H   SFRSYM    DATA     BIT       SSINT
      000000C0H   SFRSYM    DATA     BIT       PULLUP_RES_STATE
      00000088H.1 SFRSYM    DATA     BIT       USINT
      000000B8H   SFRSYM    DATA     BYTE      IP
      00000098H   SFRSYM    DATA     BIT       RI
      000000D0H.7 SFRSYM    DATA     BIT       CY
      00000098H.1 SFRSYM    DATA     BIT       TI
      000000EAH   SFRSYM    DATA     BYTE      MPTRX
      00000093H   SFRSYM    DATA     BYTE      DPX0
      00000095H   SFRSYM    DATA     BYTE      DPX1
      00000081H   SFRSYM    DATA     BYTE      SP
      000000D0H.2 SFRSYM    DATA     BIT       OV
      000000A1H   SFRSYM    DATA     BYTE      CBSL
      00000080H.5 SFRSYM    DATA     BIT       FSM_RESULT
      00000099H   SFRSYM    DATA     BYTE      SBUF
LX51 LINKER/LOCATER V3.65                                                             12/12/2006  14:05:45  PAGE 24


      00000087H   SFRSYM    DATA     BYTE      PCON
      00000088H.3 SFRSYM    DATA     BIT       MFLT
      00000098H   SFRSYM    DATA     BYTE      SCON
      00000089H   SFRSYM    DATA     BYTE      TMOD
      00000088H   SFRSYM    DATA     BYTE      TCON
      00000088H.1 SFRSYM    DATA     BIT       SINT
      000000E8H   SFRSYM    DATA     BYTE      EPSW
      000000F0H   SFRSYM    DATA     BYTE      B
      000000A2H   SFRSYM    DATA     BYTE      MPTR
      000000E0H   SFRSYM    DATA     BYTE      ACC
      00000088H.5 SFRSYM    DATA     BIT       TF0
      00000088H.7 SFRSYM    DATA     BIT       TF1
      0000008CH   SFRSYM    DATA     BYTE      TH0
      000000B2H   SFRSYM    DATA     BYTE      ISOCON
      0000008DH   SFRSYM    DATA     BYTE      TH1
      000000D8H   SFRSYM    DATA     BYTE      SPSW
      000000D0H   SFRSYM    DATA     BIT       P
      0000008AH   SFRSYM    DATA     BYTE      TL0
      0000008BH   SFRSYM    DATA     BYTE      TL1
      000000C0H   SFRSYM    DATA     BYTE      PROGIO
      000000D0H.3 SFRSYM    DATA     BIT       RS0
      00000088H.4 SFRSYM    DATA     BIT       TR0
      000000D0H.4 SFRSYM    DATA     BIT       RS1
      00000080H.1 SFRSYM    DATA     BIT       FSM_START
      00000088H.6 SFRSYM    DATA     BIT       TR1
      00000083H   SFRSYM    DATA     BYTE      DPH
      000000B4H   SFRSYM    DATA     BYTE      ISOTMR
      00000082H   SFRSYM    DATA     BYTE      DPL
      000000B0H   SFRSYM    DATA     BYTE      SECURITYSTATUS
      00000086H   SFRSYM    DATA     BYTE      DPS
      00000093H   SFRSYM    DATA     BYTE      DPX
      00000080H   SFRSYM    DATA     BYTE      NVFSMCON
      000000F7H   SFRSYM    DATA     BYTE      MFCON
      000000C9H   SFRSYM    DATA     BYTE      NvFsmMode
      000000D0H.5 SFRSYM    DATA     BIT       F0
      000000E8H.1 SFRSYM    DATA     BIT       F1
      000000D0H   SFRSYM    DATA     BYTE      PSW

      01001D7DH   BLOCK     ECODE    ---       LVL=0
      01001D7DH   LINE      ECODE    ---       #58
      01001D7DH   LINE      ECODE    ---       #59
      01001D7DH   LINE      ECODE    ---       #60
      01001D83H   LINE      ECODE    ---       #61
      01001D83H   LINE      ECODE    ---       #65
      01001D88H   LINE      ECODE    ---       #68
      01001D8CH   LINE      ECODE    ---       #69
      01001D8EH   LINE      ECODE    ---       #71
      01001D8EH   LINE      ECODE    ---       #72
      01001D95H   LINE      ECODE    ---       #73
      01001D95H   LINE      ECODE    ---       #75
      01001D9CH   LINE      ECODE    ---       #77
      ---         BLOCKEND  ---      ---       LVL=0

      ---         MODULE    ---      ---       SET_INTERRUPT_ENABLE
      01001EFCH   PUBLIC    ECODE    ---       Set_Interrupt_Enable
      000000D0H.6 SFRSYM    DATA     BIT       AC
      00000080H   SFRSYM    DATA     BIT       FSM_FINISH
      00000083H   SFRSYM    DATA     BYTE      DPH0
      000000E8H   SFRSYM    DATA     BIT       AM
      000000A8H   SFRSYM    DATA     BYTE      IE
      00000085H   SFRSYM    DATA     BYTE      DPH1
      00000082H   SFRSYM    DATA     BYTE      DPL0
      00000084H   SFRSYM    DATA     BYTE      DPL1
      00000088H   SFRSYM    DATA     BIT       SSINT
      000000C0H   SFRSYM    DATA     BIT       PULLUP_RES_STATE
LX51 LINKER/LOCATER V3.65                                                             12/12/2006  14:05:45  PAGE 25


      00000088H.1 SFRSYM    DATA     BIT       USINT
      000000B8H   SFRSYM    DATA     BYTE      IP
      00000098H   SFRSYM    DATA     BIT       RI
      000000D0H.7 SFRSYM    DATA     BIT       CY
      00000098H.1 SFRSYM    DATA     BIT       TI
      000000EAH   SFRSYM    DATA     BYTE      MPTRX
      00000093H   SFRSYM    DATA     BYTE      DPX0
      00000095H   SFRSYM    DATA     BYTE      DPX1
      00000081H   SFRSYM    DATA     BYTE      SP
      000000D0H.2 SFRSYM    DATA     BIT       OV
      000000A1H   SFRSYM    DATA     BYTE      CBSL
      00000080H.5 SFRSYM    DATA     BIT       FSM_RESULT
      00000099H   SFRSYM    DATA     BYTE      SBUF
      00000087H   SFRSYM    DATA     BYTE      PCON
      00000088H.3 SFRSYM    DATA     BIT       MFLT
      00000098H   SFRSYM    DATA     BYTE      SCON
      00000089H   SFRSYM    DATA     BYTE      TMOD
      00000088H   SFRSYM    DATA     BYTE      TCON
      00000088H.1 SFRSYM    DATA     BIT       SINT
      000000E8H   SFRSYM    DATA     BYTE      EPSW
      000000F0H   SFRSYM    DATA     BYTE      B
      000000A2H   SFRSYM    DATA     BYTE      MPTR
      000000E0H   SFRSYM    DATA     BYTE      ACC
      00000088H.5 SFRSYM    DATA     BIT       TF0
      00000088H.7 SFRSYM    DATA     BIT       TF1
      0000008CH   SFRSYM    DATA     BYTE      TH0
      000000B2H   SFRSYM    DATA     BYTE      ISOCON
      0000008DH   SFRSYM    DATA     BYTE      TH1
      000000D8H   SFRSYM    DATA     BYTE      SPSW
      000000D0H   SFRSYM    DATA     BIT       P
      0000008AH   SFRSYM    DATA     BYTE      TL0
      0000008BH   SFRSYM    DATA     BYTE      TL1
      000000C0H   SFRSYM    DATA     BYTE      PROGIO
      000000D0H.3 SFRSYM    DATA     BIT       RS0
      00000088H.4 SFRSYM    DATA     BIT       TR0
      000000D0H.4 SFRSYM    DATA     BIT       RS1
      00000080H.1 SFRSYM    DATA     BIT       FSM_START
      00000088H.6 SFRSYM    DATA     BIT       TR1
      00000083H   SFRSYM    DATA     BYTE      DPH
      000000B4H   SFRSYM    DATA     BYTE      ISOTMR
      00000082H   SFRSYM    DATA     BYTE      DPL
      000000B0H   SFRSYM    DATA     BYTE      SECURITYSTATUS
      00000086H   SFRSYM    DATA     BYTE      DPS
      00000093H   SFRSYM    DATA     BYTE      DPX
      00000080H   SFRSYM    DATA     BYTE      NVFSMCON
      000000F7H   SFRSYM    DATA     BYTE      MFCON
      000000C9H   SFRSYM    DATA     BYTE      NvFsmMode
      000000D0H.5 SFRSYM    DATA     BIT       F0
      000000E8H.1 SFRSYM    DATA     BIT       F1
      000000D0H   SFRSYM    DATA     BYTE      PSW

      01001EFCH   BLOCK     ECODE    ---       LVL=0
      01001EFCH   LINE      ECODE    ---       #56
      01001EFCH   LINE      ECODE    ---       #57
      01001EFCH   LINE      ECODE    ---       #61
      01001F01H   LINE      ECODE    ---       #64
      01001F05H   LINE      ECODE    ---       #66
      ---         BLOCKEND  ---      ---       LVL=0

      ---         MODULE    ---      ---       GET_PULLUP_RESISTOR
      01001CD5H   PUBLIC    ECODE    ---       Get_Pullup_Resistor
      000000D0H.6 SFRSYM    DATA     BIT       AC
      00000080H   SFRSYM    DATA     BIT       FSM_FINISH
      00000083H   SFRSYM    DATA     BYTE      DPH0
      000000E8H   SFRSYM    DATA     BIT       AM
LX51 LINKER/LOCATER V3.65                                                             12/12/2006  14:05:45  PAGE 26


      000000A8H   SFRSYM    DATA     BYTE      IE
      00000085H   SFRSYM    DATA     BYTE      DPH1
      00000082H   SFRSYM    DATA     BYTE      DPL0
      00000084H   SFRSYM    DATA     BYTE      DPL1
      00000088H   SFRSYM    DATA     BIT       SSINT
      000000C0H   SFRSYM    DATA     BIT       PULLUP_RES_STATE
      00000088H.1 SFRSYM    DATA     BIT       USINT
      000000B8H   SFRSYM    DATA     BYTE      IP
      00000098H   SFRSYM    DATA     BIT       RI
      000000D0H.7 SFRSYM    DATA     BIT       CY
      00000098H.1 SFRSYM    DATA     BIT       TI
      000000EAH   SFRSYM    DATA     BYTE      MPTRX
      00000093H   SFRSYM    DATA     BYTE      DPX0
      00000095H   SFRSYM    DATA     BYTE      DPX1
      00000081H   SFRSYM    DATA     BYTE      SP
      000000D0H.2 SFRSYM    DATA     BIT       OV
      000000A1H   SFRSYM    DATA     BYTE      CBSL
      00000080H.5 SFRSYM    DATA     BIT       FSM_RESULT
      00000099H   SFRSYM    DATA     BYTE      SBUF
      00000087H   SFRSYM    DATA     BYTE      PCON
      00000088H.3 SFRSYM    DATA     BIT       MFLT
      00000098H   SFRSYM    DATA     BYTE      SCON
      00000089H   SFRSYM    DATA     BYTE      TMOD
      00000088H   SFRSYM    DATA     BYTE      TCON
      00000088H.1 SFRSYM    DATA     BIT       SINT
      000000E8H   SFRSYM    DATA     BYTE      EPSW
      000000F0H   SFRSYM    DATA     BYTE      B
      000000A2H   SFRSYM    DATA     BYTE      MPTR
      000000E0H   SFRSYM    DATA     BYTE      ACC
      00000088H.5 SFRSYM    DATA     BIT       TF0
      00000088H.7 SFRSYM    DATA     BIT       TF1
      0000008CH   SFRSYM    DATA     BYTE      TH0
      000000B2H   SFRSYM    DATA     BYTE      ISOCON
      0000008DH   SFRSYM    DATA     BYTE      TH1
      000000D8H   SFRSYM    DATA     BYTE      SPSW
      000000D0H   SFRSYM    DATA     BIT       P
      0000008AH   SFRSYM    DATA     BYTE      TL0
      0000008BH   SFRSYM    DATA     BYTE      TL1
      000000C0H   SFRSYM    DATA     BYTE      PROGIO
      000000D0H.3 SFRSYM    DATA     BIT       RS0
      00000088H.4 SFRSYM    DATA     BIT       TR0
      000000D0H.4 SFRSYM    DATA     BIT       RS1
      00000080H.1 SFRSYM    DATA     BIT       FSM_START
      00000088H.6 SFRSYM    DATA     BIT       TR1
      00000083H   SFRSYM    DATA     BYTE      DPH
      000000B4H   SFRSYM    DATA     BYTE      ISOTMR
      00000082H   SFRSYM    DATA     BYTE      DPL
      000000B0H   SFRSYM    DATA     BYTE      SECURITYSTATUS
      00000086H   SFRSYM    DATA     BYTE      DPS
      00000093H   SFRSYM    DATA     BYTE      DPX
      00000080H   SFRSYM    DATA     BYTE      NVFSMCON
      000000F7H   SFRSYM    DATA     BYTE      MFCON
      000000C9H   SFRSYM    DATA     BYTE      NvFsmMode
      000000D0H.5 SFRSYM    DATA     BIT       F0
      000000E8H.1 SFRSYM    DATA     BIT       F1
      000000D0H   SFRSYM    DATA     BYTE      PSW

      01001CD5H   BLOCK     ECODE    ---       LVL=0
      01001CD5H   LINE      ECODE    ---       #58
      01001CD5H   LINE      ECODE    ---       #59
      01001CD5H   LINE      ECODE    ---       #60
      01001CDBH   LINE      ECODE    ---       #61
      01001CDBH   LINE      ECODE    ---       #63
      01001CE3H   LINE      ECODE    ---       #65
      01001CE7H   LINE      ECODE    ---       #66
LX51 LINKER/LOCATER V3.65                                                             12/12/2006  14:05:45  PAGE 27


      01001CE9H   LINE      ECODE    ---       #68
      01001CE9H   LINE      ECODE    ---       #69
      01001CF0H   LINE      ECODE    ---       #70
      01001CF0H   LINE      ECODE    ---       #72
      01001CF7H   LINE      ECODE    ---       #74
      ---         BLOCKEND  ---      ---       LVL=0

      ---         MODULE    ---      ---       SET_PULLUP_RESISTOR
      01001C60H   PUBLIC    ECODE    ---       Set_Pullup_Resistor
      000000D0H.6 SFRSYM    DATA     BIT       AC
      00000080H   SFRSYM    DATA     BIT       FSM_FINISH
      00000083H   SFRSYM    DATA     BYTE      DPH0
      000000E8H   SFRSYM    DATA     BIT       AM
      000000A8H   SFRSYM    DATA     BYTE      IE
      00000085H   SFRSYM    DATA     BYTE      DPH1
      00000082H   SFRSYM    DATA     BYTE      DPL0
      00000084H   SFRSYM    DATA     BYTE      DPL1
      00000088H   SFRSYM    DATA     BIT       SSINT
      000000C0H   SFRSYM    DATA     BIT       PULLUP_RES_STATE
      00000088H.1 SFRSYM    DATA     BIT       USINT
      000000B8H   SFRSYM    DATA     BYTE      IP
      00000098H   SFRSYM    DATA     BIT       RI
      000000D0H.7 SFRSYM    DATA     BIT       CY
      00000098H.1 SFRSYM    DATA     BIT       TI
      000000EAH   SFRSYM    DATA     BYTE      MPTRX
      00000093H   SFRSYM    DATA     BYTE      DPX0
      00000095H   SFRSYM    DATA     BYTE      DPX1
      00000081H   SFRSYM    DATA     BYTE      SP
      000000D0H.2 SFRSYM    DATA     BIT       OV
      000000A1H   SFRSYM    DATA     BYTE      CBSL
      00000080H.5 SFRSYM    DATA     BIT       FSM_RESULT
      00000099H   SFRSYM    DATA     BYTE      SBUF
      00000087H   SFRSYM    DATA     BYTE      PCON
      00000088H.3 SFRSYM    DATA     BIT       MFLT
      00000098H   SFRSYM    DATA     BYTE      SCON
      00000089H   SFRSYM    DATA     BYTE      TMOD
      00000088H   SFRSYM    DATA     BYTE      TCON
      00000088H.1 SFRSYM    DATA     BIT       SINT
      000000E8H   SFRSYM    DATA     BYTE      EPSW
      000000F0H   SFRSYM    DATA     BYTE      B
      000000A2H   SFRSYM    DATA     BYTE      MPTR
      000000E0H   SFRSYM    DATA     BYTE      ACC
      00000088H.5 SFRSYM    DATA     BIT       TF0
      00000088H.7 SFRSYM    DATA     BIT       TF1
      0000008CH   SFRSYM    DATA     BYTE      TH0
      000000B2H   SFRSYM    DATA     BYTE      ISOCON
      0000008DH   SFRSYM    DATA     BYTE      TH1
      000000D8H   SFRSYM    DATA     BYTE      SPSW
      000000D0H   SFRSYM    DATA     BIT       P
      0000008AH   SFRSYM    DATA     BYTE      TL0
      0000008BH   SFRSYM    DATA     BYTE      TL1
      000000C0H   SFRSYM    DATA     BYTE      PROGIO
      000000D0H.3 SFRSYM    DATA     BIT       RS0
      00000088H.4 SFRSYM    DATA     BIT       TR0
      000000D0H.4 SFRSYM    DATA     BIT       RS1
      00000080H.1 SFRSYM    DATA     BIT       FSM_START
      00000088H.6 SFRSYM    DATA     BIT       TR1
      00000083H   SFRSYM    DATA     BYTE      DPH
      000000B4H   SFRSYM    DATA     BYTE      ISOTMR
      00000082H   SFRSYM    DATA     BYTE      DPL
      000000B0H   SFRSYM    DATA     BYTE      SECURITYSTATUS
      00000086H   SFRSYM    DATA     BYTE      DPS
      00000093H   SFRSYM    DATA     BYTE      DPX
      00000080H   SFRSYM    DATA     BYTE      NVFSMCON
      000000F7H   SFRSYM    DATA     BYTE      MFCON
LX51 LINKER/LOCATER V3.65                                                             12/12/2006  14:05:45  PAGE 28


      000000C9H   SFRSYM    DATA     BYTE      NvFsmMode
      000000D0H.5 SFRSYM    DATA     BIT       F0
      000000E8H.1 SFRSYM    DATA     BIT       F1
      000000D0H   SFRSYM    DATA     BYTE      PSW

      01001C60H   BLOCK     ECODE    ---       LVL=0
      01001C60H   LINE      ECODE    ---       #58
      01001C60H   LINE      ECODE    ---       #59
      01001C60H   LINE      ECODE    ---       #61
      01001C6EH   LINE      ECODE    ---       #64
      01001C73H   LINE      ECODE    ---       #65
      01001C73H   LINE      ECODE    ---       #66
      01001C78H   LINE      ECODE    ---       #67
      01001C7AH   LINE      ECODE    ---       #69
      01001C7AH   LINE      ECODE    ---       #70
      01001C7FH   LINE      ECODE    ---       #71
      01001C7FH   LINE      ECODE    ---       #73
      01001C86H   LINE      ECODE    ---       #75
      ---         BLOCKEND  ---      ---       LVL=0

      ---         MODULE    ---      ---       GLOBAL_VARS
      000000A7H   PUBLIC    IDATA    CHAR      cRet_Val_Char
      0000009FH   PUBLIC    IDATA    ---       TEMP_BUF
      00000049H   PUBLIC    DATA     ---       CODE_PTR
      0000009EH   PUBLIC    IDATA    BYTE      ucCount
      00000099H   PUBLIC    IDATA    ---       APDU_CMD
      00000046H   PUBLIC    DATA     ---       uc_Fptr
      0201E800H   PUBLIC    XDATA    ---       IO_Buffer
      00000044H   PUBLIC    DATA     ---       XDATA_PTR
      00000098H   PUBLIC    IDATA    BYTE      DPX_Addr
      00000043H   PUBLIC    DATA     ---       IDATA_PTR
      00000096H   PUBLIC    IDATA    WORD      SW1SW2
      00000095H   PUBLIC    IDATA    BYTE      Timer0_Int_Count
      00000093H   PUBLIC    IDATA    INT       iRet_Val_Int
      00000092H   PUBLIC    IDATA    BYTE      IDLE_MODE
      00000090H   PUBLIC    IDATA    WORD      uiTemp_Address
      0000008CH   PUBLIC    IDATA    DWORD     ulTemp_Var
      0000008BH   PUBLIC    IDATA    BYTE      ucByte_To_Write

      ---         MODULE    ---      ---       IO
      01001E5CH   PUBLIC    ECODE    ---       _Serial_Transmit_X_Bytes
      0100080EH   PUBLIC    ECODE    ---       _Serial_Receive_X_Bytes
      01001F1AH   PUBLIC    ECODE    ---       GetChar
      01001E70H   PUBLIC    ECODE    ---       _PutChar
      000000D0H.6 SFRSYM    DATA     BIT       AC
      00000080H   SFRSYM    DATA     BIT       FSM_FINISH
      00000083H   SFRSYM    DATA     BYTE      DPH0
      000000E8H   SFRSYM    DATA     BIT       AM
      000000A8H   SFRSYM    DATA     BYTE      IE
      00000085H   SFRSYM    DATA     BYTE      DPH1
      00000082H   SFRSYM    DATA     BYTE      DPL0
      00000084H   SFRSYM    DATA     BYTE      DPL1
      00000088H   SFRSYM    DATA     BIT       SSINT
      000000C0H   SFRSYM    DATA     BIT       PULLUP_RES_STATE
      00000088H.1 SFRSYM    DATA     BIT       USINT
      000000B8H   SFRSYM    DATA     BYTE      IP
      00000098H   SFRSYM    DATA     BIT       RI
      000000D0H.7 SFRSYM    DATA     BIT       CY
      00000098H.1 SFRSYM    DATA     BIT       TI
      000000EAH   SFRSYM    DATA     BYTE      MPTRX
      00000093H   SFRSYM    DATA     BYTE      DPX0
      00000095H   SFRSYM    DATA     BYTE      DPX1
      00000081H   SFRSYM    DATA     BYTE      SP
      000000D0H.2 SFRSYM    DATA     BIT       OV
      000000A1H   SFRSYM    DATA     BYTE      CBSL
LX51 LINKER/LOCATER V3.65                                                             12/12/2006  14:05:45  PAGE 29


      00000080H.5 SFRSYM    DATA     BIT       FSM_RESULT
      00000099H   SFRSYM    DATA     BYTE      SBUF
      00000087H   SFRSYM    DATA     BYTE      PCON
      00000088H.3 SFRSYM    DATA     BIT       MFLT
      00000098H   SFRSYM    DATA     BYTE      SCON
      00000089H   SFRSYM    DATA     BYTE      TMOD
      00000088H   SFRSYM    DATA     BYTE      TCON
      00000088H.1 SFRSYM    DATA     BIT       SINT
      000000E8H   SFRSYM    DATA     BYTE      EPSW
      000000F0H   SFRSYM    DATA     BYTE      B
      000000A2H   SFRSYM    DATA     BYTE      MPTR
      000000E0H   SFRSYM    DATA     BYTE      ACC
      00000088H.5 SFRSYM    DATA     BIT       TF0
      00000088H.7 SFRSYM    DATA     BIT       TF1
      0000008CH   SFRSYM    DATA     BYTE      TH0
      000000B2H   SFRSYM    DATA     BYTE      ISOCON
      0000008DH   SFRSYM    DATA     BYTE      TH1
      000000D8H   SFRSYM    DATA     BYTE      SPSW
      000000D0H   SFRSYM    DATA     BIT       P
      0000008AH   SFRSYM    DATA     BYTE      TL0
      0000008BH   SFRSYM    DATA     BYTE      TL1
      000000C0H   SFRSYM    DATA     BYTE      PROGIO
      000000D0H.3 SFRSYM    DATA     BIT       RS0
      00000088H.4 SFRSYM    DATA     BIT       TR0
      000000D0H.4 SFRSYM    DATA     BIT       RS1
      00000080H.1 SFRSYM    DATA     BIT       FSM_START
      00000088H.6 SFRSYM    DATA     BIT       TR1
      00000083H   SFRSYM    DATA     BYTE      DPH
      000000B4H   SFRSYM    DATA     BYTE      ISOTMR
      00000082H   SFRSYM    DATA     BYTE      DPL
      000000B0H   SFRSYM    DATA     BYTE      SECURITYSTATUS
      00000086H   SFRSYM    DATA     BYTE      DPS
      00000093H   SFRSYM    DATA     BYTE      DPX
      00000080H   SFRSYM    DATA     BYTE      NVFSMCON
      000000F7H   SFRSYM    DATA     BYTE      MFCON
      000000C9H   SFRSYM    DATA     BYTE      NvFsmMode
      000000D0H.5 SFRSYM    DATA     BIT       F0
      000000E8H.1 SFRSYM    DATA     BIT       F1
      000000D0H   SFRSYM    DATA     BYTE      PSW

      01001E70H   BLOCK     ECODE    ---       LVL=0
      00000007H   SYMBOL    DATA     BYTE      ByteToTx
      01001E70H   LINE      ECODE    ---       #52
      01001E70H   LINE      ECODE    ---       #53
      01001E70H   LINE      ECODE    ---       #54
      01001E70H   LINE      ECODE    ---       #55
      01001E70H   LINE      ECODE    ---       #56
      01001E72H   LINE      ECODE    ---       #58
      01001E75H   LINE      ECODE    ---       #60
      01001E77H   LINE      ECODE    ---       #62
      01001E7CH   LINE      ECODE    ---       #63
      01001E7CH   LINE      ECODE    ---       #64
      01001E7CH   LINE      ECODE    ---       #65
      01001E7CH   LINE      ECODE    ---       #67
      01001E7FH   LINE      ECODE    ---       #68
      01001E81H   LINE      ECODE    ---       #70
      ---         BLOCKEND  ---      ---       LVL=0

      01001F1AH   BLOCK     ECODE    ---       LVL=0
      01001F1AH   LINE      ECODE    ---       #84
      01001F1AH   LINE      ECODE    ---       #85
      01001F1AH   LINE      ECODE    ---       #86
      01001F1DH   LINE      ECODE    ---       #88
      01001F1FH   LINE      ECODE    ---       #90
      01001F21H   LINE      ECODE    ---       #92
LX51 LINKER/LOCATER V3.65                                                             12/12/2006  14:05:45  PAGE 30


      ---         BLOCKEND  ---      ---       LVL=0

      0100080EH   BLOCK     ECODE    ---       LVL=0
      00000006H   SYMBOL    DATA     BYTE      Num_of_Bytes_To_RX
      00000000H   SYMBOL    DATA     ---       Buffer_to_Fill
      0100080EH   LINE      ECODE    ---       #104
      01000812H   LINE      ECODE    ---       #105
      01000812H   LINE      ECODE    ---       #106
      01000818H   LINE      ECODE    ---       #107
      01000818H   LINE      ECODE    ---       #108
      0100081DH   LINE      ECODE    ---       #110
      0100081EH   LINE      ECODE    ---       #112
      0100081FH   LINE      ECODE    ---       #113
      01000821H   LINE      ECODE    ---       #115
      ---         BLOCKEND  ---      ---       LVL=0

      01001E5CH   BLOCK     ECODE    ---       LVL=0
      00000006H   SYMBOL    DATA     BYTE      Num_of_Bytes_To_TX
      00000000H   SYMBOL    DATA     ---       Buffer_to_Send
      01001E5CH   LINE      ECODE    ---       #127
      01001E60H   LINE      ECODE    ---       #128
      01001E60H   LINE      ECODE    ---       #129
      01001E66H   LINE      ECODE    ---       #130
      01001E66H   LINE      ECODE    ---       #131
      01001E6BH   LINE      ECODE    ---       #133
      01001E6CH   LINE      ECODE    ---       #135
      01001E6DH   LINE      ECODE    ---       #136
      01001E6FH   LINE      ECODE    ---       #138
      ---         BLOCKEND  ---      ---       LVL=0

      ---         MODULE    ---      ---       MAIN
      01000D7DH   PUBLIC    CONST    ---       INS_FPTR
      01001664H   PUBLIC    ECODE    ---       Process_APDU_Command
      010016DBH   PUBLIC    ECODE    ---       _Enter_Idle_Mode
      01001EA6H   PUBLIC    ECODE    ---       Process_PPS_Command
      01001BFFH   PUBLIC    ECODE    ---       main
      000000D0H.6 SFRSYM    DATA     BIT       AC
      00000080H   SFRSYM    DATA     BIT       FSM_FINISH
      00000083H   SFRSYM    DATA     BYTE      DPH0
      000000E8H   SFRSYM    DATA     BIT       AM
      000000A8H   SFRSYM    DATA     BYTE      IE
      00000085H   SFRSYM    DATA     BYTE      DPH1
      00000082H   SFRSYM    DATA     BYTE      DPL0
      00000084H   SFRSYM    DATA     BYTE      DPL1
      00000088H   SFRSYM    DATA     BIT       SSINT
      000000C0H   SFRSYM    DATA     BIT       PULLUP_RES_STATE
      00000088H.1 SFRSYM    DATA     BIT       USINT
      000000B8H   SFRSYM    DATA     BYTE      IP
      00000098H   SFRSYM    DATA     BIT       RI
      000000D0H.7 SFRSYM    DATA     BIT       CY
      00000098H.1 SFRSYM    DATA     BIT       TI
      000000EAH   SFRSYM    DATA     BYTE      MPTRX
      00000093H   SFRSYM    DATA     BYTE      DPX0
      00000095H   SFRSYM    DATA     BYTE      DPX1
      00000081H   SFRSYM    DATA     BYTE      SP
      000000D0H.2 SFRSYM    DATA     BIT       OV
      000000A1H   SFRSYM    DATA     BYTE      CBSL
      00000080H.5 SFRSYM    DATA     BIT       FSM_RESULT
      00000099H   SFRSYM    DATA     BYTE      SBUF
      00000087H   SFRSYM    DATA     BYTE      PCON
      00000088H.3 SFRSYM    DATA     BIT       MFLT
      00000098H   SFRSYM    DATA     BYTE      SCON
      00000089H   SFRSYM    DATA     BYTE      TMOD
      00000088H   SFRSYM    DATA     BYTE      TCON
      00000088H.1 SFRSYM    DATA     BIT       SINT
LX51 LINKER/LOCATER V3.65                                                             12/12/2006  14:05:45  PAGE 31


      000000E8H   SFRSYM    DATA     BYTE      EPSW
      000000F0H   SFRSYM    DATA     BYTE      B
      000000A2H   SFRSYM    DATA     BYTE      MPTR
      000000E0H   SFRSYM    DATA     BYTE      ACC
      00000088H.5 SFRSYM    DATA     BIT       TF0
      00000088H.7 SFRSYM    DATA     BIT       TF1
      0000008CH   SFRSYM    DATA     BYTE      TH0
      000000B2H   SFRSYM    DATA     BYTE      ISOCON
      0000008DH   SFRSYM    DATA     BYTE      TH1
      000000D8H   SFRSYM    DATA     BYTE      SPSW
      000000D0H   SFRSYM    DATA     BIT       P
      0000008AH   SFRSYM    DATA     BYTE      TL0
      0000008BH   SFRSYM    DATA     BYTE      TL1
      000000C0H   SFRSYM    DATA     BYTE      PROGIO
      000000D0H.3 SFRSYM    DATA     BIT       RS0
      00000088H.4 SFRSYM    DATA     BIT       TR0
      000000D0H.4 SFRSYM    DATA     BIT       RS1
      00000080H.1 SFRSYM    DATA     BIT       FSM_START
      00000088H.6 SFRSYM    DATA     BIT       TR1
      00000083H   SFRSYM    DATA     BYTE      DPH
      000000B4H   SFRSYM    DATA     BYTE      ISOTMR
      00000082H   SFRSYM    DATA     BYTE      DPL
      000000B0H   SFRSYM    DATA     BYTE      SECURITYSTATUS
      00000086H   SFRSYM    DATA     BYTE      DPS
      00000093H   SFRSYM    DATA     BYTE      DPX
      00000080H   SFRSYM    DATA     BYTE      NVFSMCON
      000000F7H   SFRSYM    DATA     BYTE      MFCON
      000000C9H   SFRSYM    DATA     BYTE      NvFsmMode
      000000D0H.5 SFRSYM    DATA     BIT       F0
      000000E8H.1 SFRSYM    DATA     BIT       F1
      000000D0H   SFRSYM    DATA     BYTE      PSW

      01001BFFH   BLOCK     ECODE    ---       LVL=0
      01001BFFH   LINE      ECODE    ---       #60
      01001BFFH   LINE      ECODE    ---       #61
      01001BFFH   LINE      ECODE    ---       #62
      01001C02H   LINE      ECODE    ---       #64
      01001C05H   LINE      ECODE    ---       #66
      01001C0CH   LINE      ECODE    ---       #74
      01001C13H   LINE      ECODE    ---       #76
      01001C16H   LINE      ECODE    ---       #77
      01001C16H   LINE      ECODE    ---       #78
      01001C19H   LINE      ECODE    ---       #79
      01001C1BH   LINE      ECODE    ---       #81
      01001C1BH   LINE      ECODE    ---       #82
      01001C22H   LINE      ECODE    ---       #83
      01001C25H   LINE      ECODE    ---       #84
      01001C25H   LINE      ECODE    ---       #91
      01001C25H   LINE      ECODE    ---       #92
      01001C25H   LINE      ECODE    ---       #94
      01001C2CH   LINE      ECODE    ---       #97
      01001C33H   LINE      ECODE    ---       #99
      01001C36H   LINE      ECODE    ---       #100
      ---         BLOCKEND  ---      ---       LVL=0

      01001EA6H   BLOCK     ECODE    ---       LVL=0
      01001EA6H   LINE      ECODE    ---       #113
      01001EA6H   LINE      ECODE    ---       #114
      01001EA6H   LINE      ECODE    ---       #116
      01001EADH   LINE      ECODE    ---       #119
      ---         BLOCKEND  ---      ---       LVL=0

      010016DBH   BLOCK     ECODE    ---       LVL=0
      00000007H   SYMBOL    DATA     BYTE      ucIdleMode
      010016DBH   LINE      ECODE    ---       #132
LX51 LINKER/LOCATER V3.65                                                             12/12/2006  14:05:45  PAGE 32


      010016DBH   LINE      ECODE    ---       #133
      010016DBH   LINE      ECODE    ---       #134
      010016DEH   LINE      ECODE    ---       #135
      010016DEH   LINE      ECODE    ---       #136
      010016E1H   LINE      ECODE    ---       #138
      010016E2H   LINE      ECODE    ---       #139
      010016E3H   LINE      ECODE    ---       #140
      010016E4H   LINE      ECODE    ---       #141
      010016E5H   LINE      ECODE    ---       #142
      010016E6H   LINE      ECODE    ---       #143
      010016E7H   LINE      ECODE    ---       #144
      010016ECH   LINE      ECODE    ---       #145
      010016ECH   LINE      ECODE    ---       #148
      010016F3H   LINE      ECODE    ---       #150
      010016F7H   LINE      ECODE    ---       #152
      01001700H   LINE      ECODE    ---       #154
      01001707H   LINE      ECODE    ---       #168
      0100170AH   LINE      ECODE    ---       #169
      0100170AH   LINE      ECODE    ---       #170
      0100170CH   LINE      ECODE    ---       #171
      0100170EH   LINE      ECODE    ---       #172
      01001714H   LINE      ECODE    ---       #173
      01001714H   LINE      ECODE    ---       #174
      01001716H   LINE      ECODE    ---       #175
      01001718H   LINE      ECODE    ---       #177
      01001718H   LINE      ECODE    ---       #178
      0100171CH   LINE      ECODE    ---       #179
      0100171CH   LINE      ECODE    ---       #182
      01001725H   LINE      ECODE    ---       #184
      01001728H   LINE      ECODE    ---       #186
      01001729H   LINE      ECODE    ---       #187
      0100172AH   LINE      ECODE    ---       #188
      0100172BH   LINE      ECODE    ---       #189
      0100172CH   LINE      ECODE    ---       #190
      0100172DH   LINE      ECODE    ---       #193
      0100173AH   LINE      ECODE    ---       #195
      0100173AH   LINE      ECODE    ---       #197
      ---         BLOCKEND  ---      ---       LVL=0

      01001664H   BLOCK     ECODE    ---       LVL=0
      01001664H   LINE      ECODE    ---       #218
      01001664H   LINE      ECODE    ---       #219
      01001664H   LINE      ECODE    ---       #221
      0100166BH   LINE      ECODE    ---       #222
      0100166BH   LINE      ECODE    ---       #223
      0100166FH   LINE      ECODE    ---       #224
      01001671H   LINE      ECODE    ---       #227
      01001678H   LINE      ECODE    ---       #228
      01001678H   LINE      ECODE    ---       #229
      0100167CH   LINE      ECODE    ---       #230
      0100167EH   LINE      ECODE    ---       #250
      0100169FH   LINE      ECODE    ---       #253
      0100169FH   LINE      ECODE    ---       #270
      010016A6H   LINE      ECODE    ---       #284
      010016C3H   LINE      ECODE    ---       #287
      010016C5H   LINE      ECODE    ---       #291
      010016C5H   LINE      ECODE    ---       #292
      010016CCH   LINE      ECODE    ---       #293
      010016CCH   LINE      ECODE    ---       #296
      010016D3H   LINE      ECODE    ---       #297
      010016D3H   LINE      ECODE    ---       #298
      010016DAH   LINE      ECODE    ---       #299
      010016DAH   LINE      ECODE    ---       #301
      ---         BLOCKEND  ---      ---       LVL=0

LX51 LINKER/LOCATER V3.65                                                             12/12/2006  14:05:45  PAGE 33


      ---         MODULE    ---      ---       SHA_1
      01000EFDH   PUBLIC    ECODE    ---       _SHA_1_Hash
      010015E3H   PUBLIC    ECODE    ---       Call_SHA1
      000000D0H.6 SFRSYM    DATA     BIT       AC
      00000080H   SFRSYM    DATA     BIT       FSM_FINISH
      00000083H   SFRSYM    DATA     BYTE      DPH0
      000000E8H   SFRSYM    DATA     BIT       AM
      000000A8H   SFRSYM    DATA     BYTE      IE
      00000085H   SFRSYM    DATA     BYTE      DPH1
      00000082H   SFRSYM    DATA     BYTE      DPL0
      00000084H   SFRSYM    DATA     BYTE      DPL1
      00000088H   SFRSYM    DATA     BIT       SSINT
      000000C0H   SFRSYM    DATA     BIT       PULLUP_RES_STATE
      00000088H.1 SFRSYM    DATA     BIT       USINT
      000000B8H   SFRSYM    DATA     BYTE      IP
      00000098H   SFRSYM    DATA     BIT       RI
      000000D0H.7 SFRSYM    DATA     BIT       CY
      00000098H.1 SFRSYM    DATA     BIT       TI
      000000EAH   SFRSYM    DATA     BYTE      MPTRX
      00000093H   SFRSYM    DATA     BYTE      DPX0
      00000095H   SFRSYM    DATA     BYTE      DPX1
      00000081H   SFRSYM    DATA     BYTE      SP
      000000D0H.2 SFRSYM    DATA     BIT       OV
      000000A1H   SFRSYM    DATA     BYTE      CBSL
      00000080H.5 SFRSYM    DATA     BIT       FSM_RESULT
      00000099H   SFRSYM    DATA     BYTE      SBUF
      00000087H   SFRSYM    DATA     BYTE      PCON
      00000088H.3 SFRSYM    DATA     BIT       MFLT
      00000098H   SFRSYM    DATA     BYTE      SCON
      00000089H   SFRSYM    DATA     BYTE      TMOD
      00000088H   SFRSYM    DATA     BYTE      TCON
      00000088H.1 SFRSYM    DATA     BIT       SINT
      000000E8H   SFRSYM    DATA     BYTE      EPSW
      000000F0H   SFRSYM    DATA     BYTE      B
      000000A2H   SFRSYM    DATA     BYTE      MPTR
      000000E0H   SFRSYM    DATA     BYTE      ACC
      00000088H.5 SFRSYM    DATA     BIT       TF0
      00000088H.7 SFRSYM    DATA     BIT       TF1
      0000008CH   SFRSYM    DATA     BYTE      TH0
      000000B2H   SFRSYM    DATA     BYTE      ISOCON
      0000008DH   SFRSYM    DATA     BYTE      TH1
      000000D8H   SFRSYM    DATA     BYTE      SPSW
      000000D0H   SFRSYM    DATA     BIT       P
      0000008AH   SFRSYM    DATA     BYTE      TL0
      0000008BH   SFRSYM    DATA     BYTE      TL1
      000000C0H   SFRSYM    DATA     BYTE      PROGIO
      000000D0H.3 SFRSYM    DATA     BIT       RS0
      00000088H.4 SFRSYM    DATA     BIT       TR0
      000000D0H.4 SFRSYM    DATA     BIT       RS1
      00000080H.1 SFRSYM    DATA     BIT       FSM_START
      00000088H.6 SFRSYM    DATA     BIT       TR1
      00000083H   SFRSYM    DATA     BYTE      DPH
      000000B4H   SFRSYM    DATA     BYTE      ISOTMR
      00000082H   SFRSYM    DATA     BYTE      DPL
      000000B0H   SFRSYM    DATA     BYTE      SECURITYSTATUS
      00000086H   SFRSYM    DATA     BYTE      DPS
      00000093H   SFRSYM    DATA     BYTE      DPX
      00000080H   SFRSYM    DATA     BYTE      NVFSMCON
      000000F7H   SFRSYM    DATA     BYTE      MFCON
      000000C9H   SFRSYM    DATA     BYTE      NvFsmMode
      000000D0H.5 SFRSYM    DATA     BIT       F0
      000000E8H.1 SFRSYM    DATA     BIT       F1
      000000D0H   SFRSYM    DATA     BYTE      PSW

      010015E3H   BLOCK     ECODE    ---       LVL=0
LX51 LINKER/LOCATER V3.65                                                             12/12/2006  14:05:45  PAGE 34


      010015E3H   BLOCK     ECODE    NEAR LAB  LVL=1
      00000008H   SYMBOL    DATA     ---       ucpSHA1_Hash_Output
      010015EAH   BLOCK     ECODE    NEAR LAB  LVL=2
      0000000BH   SYMBOL    DATA     ---       ucPtr_Data_To_Hash
      ---         BLOCKEND  ---      ---       LVL=2
      ---         BLOCKEND  ---      ---       LVL=1
      010015E3H   LINE      ECODE    ---       #64
      010015E3H   LINE      ECODE    ---       #65
      010015E3H   LINE      ECODE    ---       #68
      010015EAH   LINE      ECODE    ---       #69
      010015EAH   LINE      ECODE    ---       #71
      010015EFH   LINE      ECODE    ---       #74
      010015FBH   LINE      ECODE    ---       #75
      010015FBH   LINE      ECODE    ---       #76
      01001612H   LINE      ECODE    ---       #77
      01001617H   LINE      ECODE    ---       #79
      0100161DH   LINE      ECODE    ---       #82
      01001632H   LINE      ECODE    ---       #84
      01001636H   LINE      ECODE    ---       #85
      01001636H   LINE      ECODE    ---       #86
      01001646H   LINE      ECODE    ---       #87
      0100164FH   LINE      ECODE    ---       #89
      01001653H   LINE      ECODE    ---       #90
      01001655H   LINE      ECODE    ---       #92
      01001655H   LINE      ECODE    ---       #93
      0100165CH   LINE      ECODE    ---       #94
      0100165CH   LINE      ECODE    ---       #96
      01001663H   LINE      ECODE    ---       #98
      ---         BLOCKEND  ---      ---       LVL=0

      01000EFDH   BLOCK     ECODE    ---       LVL=0
      0000000DH   SYMBOL    DATA     ---       ucpDataBytesPtr
      00000010H   SYMBOL    DATA     WORD      uiNumberToHash
      01000F07H   BLOCK     ECODE    NEAR LAB  LVL=1
      00000012H   SYMBOL    DATA     ---       H
      00000026H   SYMBOL    DATA     DWORD     A
      0000002AH   SYMBOL    DATA     DWORD     B
      0000002EH   SYMBOL    DATA     DWORD     C
      00000032H   SYMBOL    DATA     DWORD     D
      00000036H   SYMBOL    DATA     DWORD     E
      0000004BH   SYMBOL    IDATA    ---       W
      0000003AH   SYMBOL    DATA     DWORD     ulTEMP
      0000003EH   SYMBOL    DATA     WORD      uiBytesAlreadyHashed
      00000040H   SYMBOL    DATA     BYTE      s
      00000041H   SYMBOL    DATA     BYTE      t
      00000042H   SYMBOL    DATA     BYTE      ucPaddingDone
      ---         BLOCKEND  ---      ---       LVL=1
      01000EFDH   LINE      ECODE    ---       #110
      01000F07H   LINE      ECODE    ---       #111
      01000F07H   LINE      ECODE    ---       #119
      01000F0AH   LINE      ECODE    ---       #131
      01000F16H   LINE      ECODE    ---       #132
      01000F22H   LINE      ECODE    ---       #133
      01000F2EH   LINE      ECODE    ---       #134
      01000F3AH   LINE      ECODE    ---       #135
      01000F46H   LINE      ECODE    ---       #141
      01000F4AH   LINE      ECODE    ---       #146
      01000F5EH   LINE      ECODE    ---       #147
      01000F5EH   LINE      ECODE    ---       #148
      01000F61H   LINE      ECODE    ---       #149
      01000F61H   LINE      ECODE    ---       #150
      01000F72H   LINE      ECODE    ---       #151
      01000F79H   LINE      ECODE    ---       #153
      01000F7CH   LINE      ECODE    ---       #155
      01000F87H   LINE      ECODE    ---       #156
LX51 LINKER/LOCATER V3.65                                                             12/12/2006  14:05:45  PAGE 35


      01000F87H   LINE      ECODE    ---       #158
      01000F87H   LINE      ECODE    ---       #159
      01000FCAH   LINE      ECODE    ---       #160
      01000FD5H   LINE      ECODE    ---       #161
      01000FD7H   LINE      ECODE    ---       #162
      01000FF1H   LINE      ECODE    ---       #163
      01000FF1H   LINE      ECODE    ---       #165
      0100100AH   LINE      ECODE    ---       #166
      0100100AH   LINE      ECODE    ---       #167
      0100100DH   LINE      ECODE    ---       #171
      01001014H   LINE      ECODE    ---       #172
      01001014H   LINE      ECODE    ---       #173
      0100101AH   LINE      ECODE    ---       #175
      01001026H   LINE      ECODE    ---       #177
      0100102EH   LINE      ECODE    ---       #179
      01001041H   LINE      ECODE    ---       #180
      01001041H   LINE      ECODE    ---       #182
      0100104FH   LINE      ECODE    ---       #183
      01001051H   LINE      ECODE    ---       #185
      01001051H   LINE      ECODE    ---       #186
      01001065H   LINE      ECODE    ---       #187
      01001065H   LINE      ECODE    ---       #189
      0100107AH   LINE      ECODE    ---       #190
      0100107CH   LINE      ECODE    ---       #192
      0100107CH   LINE      ECODE    ---       #193
      01001092H   LINE      ECODE    ---       #194
      01001092H   LINE      ECODE    ---       #196
      010010A2H   LINE      ECODE    ---       #197
      010010A4H   LINE      ECODE    ---       #199
      010010A4H   LINE      ECODE    ---       #201
      010010BAH   LINE      ECODE    ---       #202
      010010BAH   LINE      ECODE    ---       #203
      010010BAH   LINE      ECODE    ---       #204
      010010BAH   LINE      ECODE    ---       #206
      010010BDH   LINE      ECODE    ---       #207
      010010BDH   LINE      ECODE    ---       #209
      010010C9H   LINE      ECODE    ---       #210
      010010C9H   LINE      ECODE    ---       #211
      010010DFH   LINE      ECODE    ---       #214
      010010E5H   LINE      ECODE    ---       #215
      010010E8H   LINE      ECODE    ---       #216
      010010E8H   LINE      ECODE    ---       #217
      010010E8H   LINE      ECODE    ---       #227
      01001124H   LINE      ECODE    ---       #229
      01001127H   LINE      ECODE    ---       #230
      01001127H   LINE      ECODE    ---       #231
      0100112DH   LINE      ECODE    ---       #232
      01001194H   LINE      ECODE    ---       #234
      0100119BH   LINE      ECODE    ---       #235
      0100119BH   LINE      ECODE    ---       #236
      010011CCH   LINE      ECODE    ---       #237
      010011CCH   LINE      ECODE    ---       #238
      010011D3H   LINE      ECODE    ---       #239
      010011D3H   LINE      ECODE    ---       #240
      01001214H   LINE      ECODE    ---       #241
      01001217H   LINE      ECODE    ---       #243
      01001217H   LINE      ECODE    ---       #244
      0100121EH   LINE      ECODE    ---       #245
      0100121EH   LINE      ECODE    ---       #246
      01001251H   LINE      ECODE    ---       #247
      01001254H   LINE      ECODE    ---       #249
      01001254H   LINE      ECODE    ---       #250
      0100125DH   LINE      ECODE    ---       #251
      0100125DH   LINE      ECODE    ---       #252
      010012B4H   LINE      ECODE    ---       #253
LX51 LINKER/LOCATER V3.65                                                             12/12/2006  14:05:45  PAGE 36


      010012B6H   LINE      ECODE    ---       #255
      010012B6H   LINE      ECODE    ---       #256
      010012EFH   LINE      ECODE    ---       #257
      010012EFH   LINE      ECODE    ---       #258
      010012EFH   LINE      ECODE    ---       #259
      010012EFH   LINE      ECODE    ---       #261
      01001353H   LINE      ECODE    ---       #263
      0100135FH   LINE      ECODE    ---       #264
      0100136BH   LINE      ECODE    ---       #265
      010013A0H   LINE      ECODE    ---       #266
      010013ACH   LINE      ECODE    ---       #267
      010013B8H   LINE      ECODE    ---       #269
      010013C3H   LINE      ECODE    ---       #275
      010013DEH   LINE      ECODE    ---       #276
      010013F9H   LINE      ECODE    ---       #277
      01001414H   LINE      ECODE    ---       #278
      0100142FH   LINE      ECODE    ---       #279
      0100144AH   LINE      ECODE    ---       #281
      01001455H   LINE      ECODE    ---       #283
      01001458H   LINE      ECODE    ---       #291
      0100145EH   LINE      ECODE    ---       #293
      ---         BLOCKEND  ---      ---       LVL=0

      ---         MODULE    ---      ---       SET_IDLE_MODE
      01001CF8H   PUBLIC    ECODE    ---       Get_Idle_Mode
      01001EE4H   PUBLIC    ECODE    ---       Set_Idle_Mode
      000000D0H.6 SFRSYM    DATA     BIT       AC
      00000080H   SFRSYM    DATA     BIT       FSM_FINISH
      00000083H   SFRSYM    DATA     BYTE      DPH0
      000000E8H   SFRSYM    DATA     BIT       AM
      000000A8H   SFRSYM    DATA     BYTE      IE
      00000085H   SFRSYM    DATA     BYTE      DPH1
      00000082H   SFRSYM    DATA     BYTE      DPL0
      00000084H   SFRSYM    DATA     BYTE      DPL1
      00000088H   SFRSYM    DATA     BIT       SSINT
      000000C0H   SFRSYM    DATA     BIT       PULLUP_RES_STATE
      00000088H.1 SFRSYM    DATA     BIT       USINT
      000000B8H   SFRSYM    DATA     BYTE      IP
      00000098H   SFRSYM    DATA     BIT       RI
      000000D0H.7 SFRSYM    DATA     BIT       CY
      00000098H.1 SFRSYM    DATA     BIT       TI
      000000EAH   SFRSYM    DATA     BYTE      MPTRX
      00000093H   SFRSYM    DATA     BYTE      DPX0
      00000095H   SFRSYM    DATA     BYTE      DPX1
      00000081H   SFRSYM    DATA     BYTE      SP
      000000D0H.2 SFRSYM    DATA     BIT       OV
      000000A1H   SFRSYM    DATA     BYTE      CBSL
      00000080H.5 SFRSYM    DATA     BIT       FSM_RESULT
      00000099H   SFRSYM    DATA     BYTE      SBUF
      00000087H   SFRSYM    DATA     BYTE      PCON
      00000088H.3 SFRSYM    DATA     BIT       MFLT
      00000098H   SFRSYM    DATA     BYTE      SCON
      00000089H   SFRSYM    DATA     BYTE      TMOD
      00000088H   SFRSYM    DATA     BYTE      TCON
      00000088H.1 SFRSYM    DATA     BIT       SINT
      000000E8H   SFRSYM    DATA     BYTE      EPSW
      000000F0H   SFRSYM    DATA     BYTE      B
      000000A2H   SFRSYM    DATA     BYTE      MPTR
      000000E0H   SFRSYM    DATA     BYTE      ACC
      00000088H.5 SFRSYM    DATA     BIT       TF0
      00000088H.7 SFRSYM    DATA     BIT       TF1
      0000008CH   SFRSYM    DATA     BYTE      TH0
      000000B2H   SFRSYM    DATA     BYTE      ISOCON
      0000008DH   SFRSYM    DATA     BYTE      TH1
      000000D8H   SFRSYM    DATA     BYTE      SPSW
LX51 LINKER/LOCATER V3.65                                                             12/12/2006  14:05:45  PAGE 37


      000000D0H   SFRSYM    DATA     BIT       P
      0000008AH   SFRSYM    DATA     BYTE      TL0
      0000008BH   SFRSYM    DATA     BYTE      TL1
      000000C0H   SFRSYM    DATA     BYTE      PROGIO
      000000D0H.3 SFRSYM    DATA     BIT       RS0
      00000088H.4 SFRSYM    DATA     BIT       TR0
      000000D0H.4 SFRSYM    DATA     BIT       RS1
      00000080H.1 SFRSYM    DATA     BIT       FSM_START
      00000088H.6 SFRSYM    DATA     BIT       TR1
      00000083H   SFRSYM    DATA     BYTE      DPH
      000000B4H   SFRSYM    DATA     BYTE      ISOTMR
      00000082H   SFRSYM    DATA     BYTE      DPL
      000000B0H   SFRSYM    DATA     BYTE      SECURITYSTATUS
      00000086H   SFRSYM    DATA     BYTE      DPS
      00000093H   SFRSYM    DATA     BYTE      DPX
      00000080H   SFRSYM    DATA     BYTE      NVFSMCON
      000000F7H   SFRSYM    DATA     BYTE      MFCON
      000000C9H   SFRSYM    DATA     BYTE      NvFsmMode
      000000D0H.5 SFRSYM    DATA     BIT       F0
      000000E8H.1 SFRSYM    DATA     BIT       F1
      000000D0H   SFRSYM    DATA     BYTE      PSW

      01001EE4H   BLOCK     ECODE    ---       LVL=0
      01001EE4H   LINE      ECODE    ---       #57
      01001EE4H   LINE      ECODE    ---       #58
      01001EE4H   LINE      ECODE    ---       #59
      01001EECH   LINE      ECODE    ---       #61
      01001EF0H   LINE      ECODE    ---       #63
      ---         BLOCKEND  ---      ---       LVL=0

      01001CF8H   BLOCK     ECODE    ---       LVL=0
      01001CF8H   LINE      ECODE    ---       #86
      01001CF8H   LINE      ECODE    ---       #87
      01001CF8H   LINE      ECODE    ---       #88
      01001CFEH   LINE      ECODE    ---       #89
      01001CFEH   LINE      ECODE    ---       #90
      01001D05H   LINE      ECODE    ---       #92
      01001D09H   LINE      ECODE    ---       #93
      01001D0BH   LINE      ECODE    ---       #95
      01001D0BH   LINE      ECODE    ---       #96
      01001D12H   LINE      ECODE    ---       #97
      01001D12H   LINE      ECODE    ---       #99
      01001D19H   LINE      ECODE    ---       #101
      ---         BLOCKEND  ---      ---       LVL=0

      ---         MODULE    ---      ---       ISO_SELECT_SPEED
      0100145FH   PUBLIC    ECODE    ---       _ISO_Select_Speed
      000000D0H.6 SFRSYM    DATA     BIT       AC
      00000080H   SFRSYM    DATA     BIT       FSM_FINISH
      00000083H   SFRSYM    DATA     BYTE      DPH0
      000000E8H   SFRSYM    DATA     BIT       AM
      000000A8H   SFRSYM    DATA     BYTE      IE
      00000085H   SFRSYM    DATA     BYTE      DPH1
      00000082H   SFRSYM    DATA     BYTE      DPL0
      00000084H   SFRSYM    DATA     BYTE      DPL1
      00000088H   SFRSYM    DATA     BIT       SSINT
      000000C0H   SFRSYM    DATA     BIT       PULLUP_RES_STATE
      00000088H.1 SFRSYM    DATA     BIT       USINT
      000000B8H   SFRSYM    DATA     BYTE      IP
      00000098H   SFRSYM    DATA     BIT       RI
      000000D0H.7 SFRSYM    DATA     BIT       CY
      00000098H.1 SFRSYM    DATA     BIT       TI
      000000EAH   SFRSYM    DATA     BYTE      MPTRX
      00000093H   SFRSYM    DATA     BYTE      DPX0
      00000095H   SFRSYM    DATA     BYTE      DPX1
LX51 LINKER/LOCATER V3.65                                                             12/12/2006  14:05:45  PAGE 38


      00000081H   SFRSYM    DATA     BYTE      SP
      000000D0H.2 SFRSYM    DATA     BIT       OV
      000000A1H   SFRSYM    DATA     BYTE      CBSL
      00000080H.5 SFRSYM    DATA     BIT       FSM_RESULT
      00000099H   SFRSYM    DATA     BYTE      SBUF
      00000087H   SFRSYM    DATA     BYTE      PCON
      00000088H.3 SFRSYM    DATA     BIT       MFLT
      00000098H   SFRSYM    DATA     BYTE      SCON
      00000089H   SFRSYM    DATA     BYTE      TMOD
      00000088H   SFRSYM    DATA     BYTE      TCON
      00000088H.1 SFRSYM    DATA     BIT       SINT
      000000E8H   SFRSYM    DATA     BYTE      EPSW
      000000F0H   SFRSYM    DATA     BYTE      B
      000000A2H   SFRSYM    DATA     BYTE      MPTR
      000000E0H   SFRSYM    DATA     BYTE      ACC
      00000088H.5 SFRSYM    DATA     BIT       TF0
      00000088H.7 SFRSYM    DATA     BIT       TF1
      0000008CH   SFRSYM    DATA     BYTE      TH0
      000000B2H   SFRSYM    DATA     BYTE      ISOCON
      0000008DH   SFRSYM    DATA     BYTE      TH1
      000000D8H   SFRSYM    DATA     BYTE      SPSW
      000000D0H   SFRSYM    DATA     BIT       P
      0000008AH   SFRSYM    DATA     BYTE      TL0
      0000008BH   SFRSYM    DATA     BYTE      TL1
      000000C0H   SFRSYM    DATA     BYTE      PROGIO
      000000D0H.3 SFRSYM    DATA     BIT       RS0
      00000088H.4 SFRSYM    DATA     BIT       TR0
      000000D0H.4 SFRSYM    DATA     BIT       RS1
      00000080H.1 SFRSYM    DATA     BIT       FSM_START
      00000088H.6 SFRSYM    DATA     BIT       TR1
      00000083H   SFRSYM    DATA     BYTE      DPH
      000000B4H   SFRSYM    DATA     BYTE      ISOTMR
      00000082H   SFRSYM    DATA     BYTE      DPL
      000000B0H   SFRSYM    DATA     BYTE      SECURITYSTATUS
      00000086H   SFRSYM    DATA     BYTE      DPS
      00000093H   SFRSYM    DATA     BYTE      DPX
      00000080H   SFRSYM    DATA     BYTE      NVFSMCON
      000000F7H   SFRSYM    DATA     BYTE      MFCON
      000000C9H   SFRSYM    DATA     BYTE      NvFsmMode
      000000D0H.5 SFRSYM    DATA     BIT       F0
      000000E8H.1 SFRSYM    DATA     BIT       F1
      000000D0H   SFRSYM    DATA     BYTE      PSW

      0100145FH   BLOCK     ECODE    ---       LVL=0
      00000007H   SYMBOL    DATA     BYTE      FiDi
      00000008H   SYMBOL    DATA     BYTE      ucCommand_Type
      01001461H   BLOCK     ECODE    NEAR LAB  LVL=1
      0000004BH   SYMBOL    IDATA    WORD      F
      0000004DH   SYMBOL    IDATA    WORD      D
      0000004FH   SYMBOL    IDATA    WORD      ISO_Timer_Val
      ---         BLOCKEND  ---      ---       LVL=1
      0100145FH   LINE      ECODE    ---       #58
      01001461H   LINE      ECODE    ---       #59
      01001461H   LINE      ECODE    ---       #60
      01001468H   LINE      ECODE    ---       #61
      0100146EH   LINE      ECODE    ---       #62
      01001474H   LINE      ECODE    ---       #64
      0100149DH   LINE      ECODE    ---       #65
      0100149DH   LINE      ECODE    ---       #66
      010014A6H   LINE      ECODE    ---       #67
      010014AFH   LINE      ECODE    ---       #68
      010014B8H   LINE      ECODE    ---       #69
      010014C1H   LINE      ECODE    ---       #70
      010014CAH   LINE      ECODE    ---       #71
      010014D0H   LINE      ECODE    ---       #72
LX51 LINKER/LOCATER V3.65                                                             12/12/2006  14:05:45  PAGE 39


      010014D6H   LINE      ECODE    ---       #73
      010014DCH   LINE      ECODE    ---       #74
      010014E2H   LINE      ECODE    ---       #75
      010014EBH   LINE      ECODE    ---       #76
      010014F2H   LINE      ECODE    ---       #77
      010014F2H   LINE      ECODE    ---       #79
      01001511H   LINE      ECODE    ---       #80
      01001511H   LINE      ECODE    ---       #81
      0100151AH   LINE      ECODE    ---       #82
      01001523H   LINE      ECODE    ---       #83
      0100152CH   LINE      ECODE    ---       #84
      01001535H   LINE      ECODE    ---       #85
      0100153EH   LINE      ECODE    ---       #86
      01001547H   LINE      ECODE    ---       #87
      01001550H   LINE      ECODE    ---       #88
      01001557H   LINE      ECODE    ---       #89
      01001557H   LINE      ECODE    ---       #92
      01001577H   LINE      ECODE    ---       #102
      01001587H   LINE      ECODE    ---       #103
      01001587H   LINE      ECODE    ---       #104
      0100158CH   LINE      ECODE    ---       #105
      0100158CH   LINE      ECODE    ---       #107
      01001593H   LINE      ECODE    ---       #108
      01001593H   LINE      ECODE    ---       #110
      01001598H   LINE      ECODE    ---       #111
      01001598H   LINE      ECODE    ---       #112
      0100159FH   LINE      ECODE    ---       #113
      010015A6H   LINE      ECODE    ---       #114
      010015A6H   LINE      ECODE    ---       #117
      010015B0H   LINE      ECODE    ---       #120
      010015B5H   LINE      ECODE    ---       #121
      010015B6H   LINE      ECODE    ---       #124
      010015B6H   LINE      ECODE    ---       #125
      010015BBH   LINE      ECODE    ---       #126
      010015BBH   LINE      ECODE    ---       #127
      010015C0H   LINE      ECODE    ---       #128
      010015C5H   LINE      ECODE    ---       #129
      010015CAH   LINE      ECODE    ---       #130
      010015CFH   LINE      ECODE    ---       #131
      010015CFH   LINE      ECODE    ---       #133
      010015D4H   LINE      ECODE    ---       #134
      010015D4H   LINE      ECODE    ---       #135
      010015DBH   LINE      ECODE    ---       #136
      010015E2H   LINE      ECODE    ---       #137
      010015E2H   LINE      ECODE    ---       #138
      010015E2H   LINE      ECODE    ---       #140
      ---         BLOCKEND  ---      ---       LVL=0

      ---         MODULE    ---      ---       CHANGE_ISO_SPEED
      01001E82H   PUBLIC    ECODE    ---       Change_ISO_Speed
      000000D0H.6 SFRSYM    DATA     BIT       AC
      00000080H   SFRSYM    DATA     BIT       FSM_FINISH
      00000083H   SFRSYM    DATA     BYTE      DPH0
      000000E8H   SFRSYM    DATA     BIT       AM
      000000A8H   SFRSYM    DATA     BYTE      IE
      00000085H   SFRSYM    DATA     BYTE      DPH1
      00000082H   SFRSYM    DATA     BYTE      DPL0
      00000084H   SFRSYM    DATA     BYTE      DPL1
      00000088H   SFRSYM    DATA     BIT       SSINT
      000000C0H   SFRSYM    DATA     BIT       PULLUP_RES_STATE
      00000088H.1 SFRSYM    DATA     BIT       USINT
      000000B8H   SFRSYM    DATA     BYTE      IP
      00000098H   SFRSYM    DATA     BIT       RI
      000000D0H.7 SFRSYM    DATA     BIT       CY
      00000098H.1 SFRSYM    DATA     BIT       TI
LX51 LINKER/LOCATER V3.65                                                             12/12/2006  14:05:45  PAGE 40


      000000EAH   SFRSYM    DATA     BYTE      MPTRX
      00000093H   SFRSYM    DATA     BYTE      DPX0
      00000095H   SFRSYM    DATA     BYTE      DPX1
      00000081H   SFRSYM    DATA     BYTE      SP
      000000D0H.2 SFRSYM    DATA     BIT       OV
      000000A1H   SFRSYM    DATA     BYTE      CBSL
      00000080H.5 SFRSYM    DATA     BIT       FSM_RESULT
      00000099H   SFRSYM    DATA     BYTE      SBUF
      00000087H   SFRSYM    DATA     BYTE      PCON
      00000088H.3 SFRSYM    DATA     BIT       MFLT
      00000098H   SFRSYM    DATA     BYTE      SCON
      00000089H   SFRSYM    DATA     BYTE      TMOD
      00000088H   SFRSYM    DATA     BYTE      TCON
      00000088H.1 SFRSYM    DATA     BIT       SINT
      000000E8H   SFRSYM    DATA     BYTE      EPSW
      000000F0H   SFRSYM    DATA     BYTE      B
      000000A2H   SFRSYM    DATA     BYTE      MPTR
      000000E0H   SFRSYM    DATA     BYTE      ACC
      00000088H.5 SFRSYM    DATA     BIT       TF0
      00000088H.7 SFRSYM    DATA     BIT       TF1
      0000008CH   SFRSYM    DATA     BYTE      TH0
      000000B2H   SFRSYM    DATA     BYTE      ISOCON
      0000008DH   SFRSYM    DATA     BYTE      TH1
      000000D8H   SFRSYM    DATA     BYTE      SPSW
      000000D0H   SFRSYM    DATA     BIT       P
      0000008AH   SFRSYM    DATA     BYTE      TL0
      0000008BH   SFRSYM    DATA     BYTE      TL1
      000000C0H   SFRSYM    DATA     BYTE      PROGIO
      000000D0H.3 SFRSYM    DATA     BIT       RS0
      00000088H.4 SFRSYM    DATA     BIT       TR0
      000000D0H.4 SFRSYM    DATA     BIT       RS1
      00000080H.1 SFRSYM    DATA     BIT       FSM_START
      00000088H.6 SFRSYM    DATA     BIT       TR1
      00000083H   SFRSYM    DATA     BYTE      DPH
      000000B4H   SFRSYM    DATA     BYTE      ISOTMR
      00000082H   SFRSYM    DATA     BYTE      DPL
      000000B0H   SFRSYM    DATA     BYTE      SECURITYSTATUS
      00000086H   SFRSYM    DATA     BYTE      DPS
      00000093H   SFRSYM    DATA     BYTE      DPX
      00000080H   SFRSYM    DATA     BYTE      NVFSMCON
      000000F7H   SFRSYM    DATA     BYTE      MFCON
      000000C9H   SFRSYM    DATA     BYTE      NvFsmMode
      000000D0H.5 SFRSYM    DATA     BIT       F0
      000000E8H.1 SFRSYM    DATA     BIT       F1
      000000D0H   SFRSYM    DATA     BYTE      PSW

      01001E82H   BLOCK     ECODE    ---       LVL=0
      01001E82H   LINE      ECODE    ---       #62
      01001E82H   LINE      ECODE    ---       #63
      01001E82H   LINE      ECODE    ---       #66
      01001E8BH   LINE      ECODE    ---       #69
      01001E91H   LINE      ECODE    ---       #71
      01001E93H   LINE      ECODE    ---       #73
      ---         BLOCKEND  ---      ---       LVL=0

      ---         MODULE    ---      ---       SET_SECURITY_STATUS
      01001F06H   PUBLIC    ECODE    ---       Set_Security_Status
      000000D0H.6 SFRSYM    DATA     BIT       AC
      00000080H   SFRSYM    DATA     BIT       FSM_FINISH
      00000083H   SFRSYM    DATA     BYTE      DPH0
      000000E8H   SFRSYM    DATA     BIT       AM
      000000A8H   SFRSYM    DATA     BYTE      IE
      00000085H   SFRSYM    DATA     BYTE      DPH1
      00000082H   SFRSYM    DATA     BYTE      DPL0
      00000084H   SFRSYM    DATA     BYTE      DPL1
LX51 LINKER/LOCATER V3.65                                                             12/12/2006  14:05:45  PAGE 41


      00000088H   SFRSYM    DATA     BIT       SSINT
      000000C0H   SFRSYM    DATA     BIT       PULLUP_RES_STATE
      00000088H.1 SFRSYM    DATA     BIT       USINT
      000000B8H   SFRSYM    DATA     BYTE      IP
      00000098H   SFRSYM    DATA     BIT       RI
      000000D0H.7 SFRSYM    DATA     BIT       CY
      00000098H.1 SFRSYM    DATA     BIT       TI
      000000EAH   SFRSYM    DATA     BYTE      MPTRX
      00000093H   SFRSYM    DATA     BYTE      DPX0
      00000095H   SFRSYM    DATA     BYTE      DPX1
      00000081H   SFRSYM    DATA     BYTE      SP
      000000D0H.2 SFRSYM    DATA     BIT       OV
      000000A1H   SFRSYM    DATA     BYTE      CBSL
      00000080H.5 SFRSYM    DATA     BIT       FSM_RESULT
      00000099H   SFRSYM    DATA     BYTE      SBUF
      00000087H   SFRSYM    DATA     BYTE      PCON
      00000088H.3 SFRSYM    DATA     BIT       MFLT
      00000098H   SFRSYM    DATA     BYTE      SCON
      00000089H   SFRSYM    DATA     BYTE      TMOD
      00000088H   SFRSYM    DATA     BYTE      TCON
      00000088H.1 SFRSYM    DATA     BIT       SINT
      000000E8H   SFRSYM    DATA     BYTE      EPSW
      000000F0H   SFRSYM    DATA     BYTE      B
      000000A2H   SFRSYM    DATA     BYTE      MPTR
      000000E0H   SFRSYM    DATA     BYTE      ACC
      00000088H.5 SFRSYM    DATA     BIT       TF0
      00000088H.7 SFRSYM    DATA     BIT       TF1
      0000008CH   SFRSYM    DATA     BYTE      TH0
      000000B2H   SFRSYM    DATA     BYTE      ISOCON
      0000008DH   SFRSYM    DATA     BYTE      TH1
      000000D8H   SFRSYM    DATA     BYTE      SPSW
      000000D0H   SFRSYM    DATA     BIT       P
      0000008AH   SFRSYM    DATA     BYTE      TL0
      0000008BH   SFRSYM    DATA     BYTE      TL1
      000000C0H   SFRSYM    DATA     BYTE      PROGIO
      000000D0H.3 SFRSYM    DATA     BIT       RS0
      00000088H.4 SFRSYM    DATA     BIT       TR0
      000000D0H.4 SFRSYM    DATA     BIT       RS1
      00000080H.1 SFRSYM    DATA     BIT       FSM_START
      00000088H.6 SFRSYM    DATA     BIT       TR1
      00000083H   SFRSYM    DATA     BYTE      DPH
      000000B4H   SFRSYM    DATA     BYTE      ISOTMR
      00000082H   SFRSYM    DATA     BYTE      DPL
      000000B0H   SFRSYM    DATA     BYTE      SECURITYSTATUS
      00000086H   SFRSYM    DATA     BYTE      DPS
      00000093H   SFRSYM    DATA     BYTE      DPX
      00000080H   SFRSYM    DATA     BYTE      NVFSMCON
      000000F7H   SFRSYM    DATA     BYTE      MFCON
      000000C9H   SFRSYM    DATA     BYTE      NvFsmMode
      000000D0H.5 SFRSYM    DATA     BIT       F0
      000000E8H.1 SFRSYM    DATA     BIT       F1
      000000D0H   SFRSYM    DATA     BYTE      PSW

      01001F06H   BLOCK     ECODE    ---       LVL=0
      01001F06H   LINE      ECODE    ---       #56
      01001F06H   LINE      ECODE    ---       #57
      01001F06H   LINE      ECODE    ---       #58
      01001F0BH   LINE      ECODE    ---       #60
      01001F0FH   LINE      ECODE    ---       #62
      ---         BLOCKEND  ---      ---       LVL=0

      ---         MODULE    ---      ---       GET_SECURITY_STATUS
      01001D9DH   PUBLIC    ECODE    ---       Get_Security_Status
      000000D0H.6 SFRSYM    DATA     BIT       AC
      00000080H   SFRSYM    DATA     BIT       FSM_FINISH
LX51 LINKER/LOCATER V3.65                                                             12/12/2006  14:05:45  PAGE 42


      00000083H   SFRSYM    DATA     BYTE      DPH0
      000000E8H   SFRSYM    DATA     BIT       AM
      000000A8H   SFRSYM    DATA     BYTE      IE
      00000085H   SFRSYM    DATA     BYTE      DPH1
      00000082H   SFRSYM    DATA     BYTE      DPL0
      00000084H   SFRSYM    DATA     BYTE      DPL1
      00000088H   SFRSYM    DATA     BIT       SSINT
      000000C0H   SFRSYM    DATA     BIT       PULLUP_RES_STATE
      00000088H.1 SFRSYM    DATA     BIT       USINT
      000000B8H   SFRSYM    DATA     BYTE      IP
      00000098H   SFRSYM    DATA     BIT       RI
      000000D0H.7 SFRSYM    DATA     BIT       CY
      00000098H.1 SFRSYM    DATA     BIT       TI
      000000EAH   SFRSYM    DATA     BYTE      MPTRX
      00000093H   SFRSYM    DATA     BYTE      DPX0
      00000095H   SFRSYM    DATA     BYTE      DPX1
      00000081H   SFRSYM    DATA     BYTE      SP
      000000D0H.2 SFRSYM    DATA     BIT       OV
      000000A1H   SFRSYM    DATA     BYTE      CBSL
      00000080H.5 SFRSYM    DATA     BIT       FSM_RESULT
      00000099H   SFRSYM    DATA     BYTE      SBUF
      00000087H   SFRSYM    DATA     BYTE      PCON
      00000088H.3 SFRSYM    DATA     BIT       MFLT
      00000098H   SFRSYM    DATA     BYTE      SCON
      00000089H   SFRSYM    DATA     BYTE      TMOD
      00000088H   SFRSYM    DATA     BYTE      TCON
      00000088H.1 SFRSYM    DATA     BIT       SINT
      000000E8H   SFRSYM    DATA     BYTE      EPSW
      000000F0H   SFRSYM    DATA     BYTE      B
      000000A2H   SFRSYM    DATA     BYTE      MPTR
      000000E0H   SFRSYM    DATA     BYTE      ACC
      00000088H.5 SFRSYM    DATA     BIT       TF0
      00000088H.7 SFRSYM    DATA     BIT       TF1
      0000008CH   SFRSYM    DATA     BYTE      TH0
      000000B2H   SFRSYM    DATA     BYTE      ISOCON
      0000008DH   SFRSYM    DATA     BYTE      TH1
      000000D8H   SFRSYM    DATA     BYTE      SPSW
      000000D0H   SFRSYM    DATA     BIT       P
      0000008AH   SFRSYM    DATA     BYTE      TL0
      0000008BH   SFRSYM    DATA     BYTE      TL1
      000000C0H   SFRSYM    DATA     BYTE      PROGIO
      000000D0H.3 SFRSYM    DATA     BIT       RS0
      00000088H.4 SFRSYM    DATA     BIT       TR0
      000000D0H.4 SFRSYM    DATA     BIT       RS1
      00000080H.1 SFRSYM    DATA     BIT       FSM_START
      00000088H.6 SFRSYM    DATA     BIT       TR1
      00000083H   SFRSYM    DATA     BYTE      DPH
      000000B4H   SFRSYM    DATA     BYTE      ISOTMR
      00000082H   SFRSYM    DATA     BYTE      DPL
      000000B0H   SFRSYM    DATA     BYTE      SECURITYSTATUS
      00000086H   SFRSYM    DATA     BYTE      DPS
      00000093H   SFRSYM    DATA     BYTE      DPX
      00000080H   SFRSYM    DATA     BYTE      NVFSMCON
      000000F7H   SFRSYM    DATA     BYTE      MFCON
      000000C9H   SFRSYM    DATA     BYTE      NvFsmMode
      000000D0H.5 SFRSYM    DATA     BIT       F0
      000000E8H.1 SFRSYM    DATA     BIT       F1
      000000D0H   SFRSYM    DATA     BYTE      PSW

      01001D9DH   BLOCK     ECODE    ---       LVL=0
      01001D9DH   LINE      ECODE    ---       #58
      01001D9DH   LINE      ECODE    ---       #59
      01001D9DH   LINE      ECODE    ---       #60
      01001DA3H   LINE      ECODE    ---       #61
      01001DA3H   LINE      ECODE    ---       #62
LX51 LINKER/LOCATER V3.65                                                             12/12/2006  14:05:45  PAGE 43


      01001DA8H   LINE      ECODE    ---       #64
      01001DACH   LINE      ECODE    ---       #65
      01001DAEH   LINE      ECODE    ---       #67
      01001DAEH   LINE      ECODE    ---       #68
      01001DB5H   LINE      ECODE    ---       #69
      01001DB5H   LINE      ECODE    ---       #71
      01001DBCH   LINE      ECODE    ---       #74
      ---         BLOCKEND  ---      ---       LVL=0

      ---         MODULE    ---      ---       GET_RESPONSE
      01001A05H   PUBLIC    ECODE    ---       Get_Response
      000000D0H.6 SFRSYM    DATA     BIT       AC
      00000080H   SFRSYM    DATA     BIT       FSM_FINISH
      00000083H   SFRSYM    DATA     BYTE      DPH0
      000000E8H   SFRSYM    DATA     BIT       AM
      000000A8H   SFRSYM    DATA     BYTE      IE
      00000085H   SFRSYM    DATA     BYTE      DPH1
      00000082H   SFRSYM    DATA     BYTE      DPL0
      00000084H   SFRSYM    DATA     BYTE      DPL1
      00000088H   SFRSYM    DATA     BIT       SSINT
      000000C0H   SFRSYM    DATA     BIT       PULLUP_RES_STATE
      00000088H.1 SFRSYM    DATA     BIT       USINT
      000000B8H   SFRSYM    DATA     BYTE      IP
      00000098H   SFRSYM    DATA     BIT       RI
      000000D0H.7 SFRSYM    DATA     BIT       CY
      00000098H.1 SFRSYM    DATA     BIT       TI
      000000EAH   SFRSYM    DATA     BYTE      MPTRX
      00000093H   SFRSYM    DATA     BYTE      DPX0
      00000095H   SFRSYM    DATA     BYTE      DPX1
      00000081H   SFRSYM    DATA     BYTE      SP
      000000D0H.2 SFRSYM    DATA     BIT       OV
      000000A1H   SFRSYM    DATA     BYTE      CBSL
      00000080H.5 SFRSYM    DATA     BIT       FSM_RESULT
      00000099H   SFRSYM    DATA     BYTE      SBUF
      00000087H   SFRSYM    DATA     BYTE      PCON
      00000088H.3 SFRSYM    DATA     BIT       MFLT
      00000098H   SFRSYM    DATA     BYTE      SCON
      00000089H   SFRSYM    DATA     BYTE      TMOD
      00000088H   SFRSYM    DATA     BYTE      TCON
      00000088H.1 SFRSYM    DATA     BIT       SINT
      000000E8H   SFRSYM    DATA     BYTE      EPSW
      000000F0H   SFRSYM    DATA     BYTE      B
      000000A2H   SFRSYM    DATA     BYTE      MPTR
      000000E0H   SFRSYM    DATA     BYTE      ACC
      00000088H.5 SFRSYM    DATA     BIT       TF0
      00000088H.7 SFRSYM    DATA     BIT       TF1
      0000008CH   SFRSYM    DATA     BYTE      TH0
      000000B2H   SFRSYM    DATA     BYTE      ISOCON
      0000008DH   SFRSYM    DATA     BYTE      TH1
      000000D8H   SFRSYM    DATA     BYTE      SPSW
      000000D0H   SFRSYM    DATA     BIT       P
      0000008AH   SFRSYM    DATA     BYTE      TL0
      0000008BH   SFRSYM    DATA     BYTE      TL1
      000000C0H   SFRSYM    DATA     BYTE      PROGIO
      000000D0H.3 SFRSYM    DATA     BIT       RS0
      00000088H.4 SFRSYM    DATA     BIT       TR0
      000000D0H.4 SFRSYM    DATA     BIT       RS1
      00000080H.1 SFRSYM    DATA     BIT       FSM_START
      00000088H.6 SFRSYM    DATA     BIT       TR1
      00000083H   SFRSYM    DATA     BYTE      DPH
      000000B4H   SFRSYM    DATA     BYTE      ISOTMR
      00000082H   SFRSYM    DATA     BYTE      DPL
      000000B0H   SFRSYM    DATA     BYTE      SECURITYSTATUS
      00000086H   SFRSYM    DATA     BYTE      DPS
      00000093H   SFRSYM    DATA     BYTE      DPX
LX51 LINKER/LOCATER V3.65                                                             12/12/2006  14:05:45  PAGE 44


      00000080H   SFRSYM    DATA     BYTE      NVFSMCON
      000000F7H   SFRSYM    DATA     BYTE      MFCON
      000000C9H   SFRSYM    DATA     BYTE      NvFsmMode
      000000D0H.5 SFRSYM    DATA     BIT       F0
      000000E8H.1 SFRSYM    DATA     BIT       F1
      000000D0H   SFRSYM    DATA     BYTE      PSW

      01001A05H   BLOCK     ECODE    ---       LVL=0
      01001A05H   LINE      ECODE    ---       #58
      01001A05H   LINE      ECODE    ---       #59
      01001A05H   LINE      ECODE    ---       #60
      01001A0DH   LINE      ECODE    ---       #61
      01001A0DH   LINE      ECODE    ---       #63
      01001A1BH   LINE      ECODE    ---       #64
      01001A1BH   LINE      ECODE    ---       #65
      01001A2DH   LINE      ECODE    ---       #66
      01001A32H   LINE      ECODE    ---       #67
      01001A36H   LINE      ECODE    ---       #68
      01001A38H   LINE      ECODE    ---       #70
      01001A38H   LINE      ECODE    ---       #71
      01001A3FH   LINE      ECODE    ---       #72
      01001A3FH   LINE      ECODE    ---       #74
      01001A46H   LINE      ECODE    ---       #76
      ---         BLOCKEND  ---      ---       LVL=0

      ---         MODULE    ---      ---       TIMER0_FUNCTIONS
      0100178FH   PUBLIC    ECODE    ---       Timer0_Read
      01001F10H   PUBLIC    ECODE    ---       Timer0_Stop
      01001DF7H   PUBLIC    ECODE    ---       _Timer0_Setup
      01001E45H   PUBLIC    ECODE    ---       Timer0_Start
      000000D0H.6 SFRSYM    DATA     BIT       AC
      00000080H   SFRSYM    DATA     BIT       FSM_FINISH
      00000083H   SFRSYM    DATA     BYTE      DPH0
      000000E8H   SFRSYM    DATA     BIT       AM
      000000A8H   SFRSYM    DATA     BYTE      IE
      00000085H   SFRSYM    DATA     BYTE      DPH1
      00000082H   SFRSYM    DATA     BYTE      DPL0
      00000084H   SFRSYM    DATA     BYTE      DPL1
      00000088H   SFRSYM    DATA     BIT       SSINT
      000000C0H   SFRSYM    DATA     BIT       PULLUP_RES_STATE
      00000088H.1 SFRSYM    DATA     BIT       USINT
      000000B8H   SFRSYM    DATA     BYTE      IP
      00000098H   SFRSYM    DATA     BIT       RI
      000000D0H.7 SFRSYM    DATA     BIT       CY
      00000098H.1 SFRSYM    DATA     BIT       TI
      000000EAH   SFRSYM    DATA     BYTE      MPTRX
      00000093H   SFRSYM    DATA     BYTE      DPX0
      00000095H   SFRSYM    DATA     BYTE      DPX1
      00000081H   SFRSYM    DATA     BYTE      SP
      000000D0H.2 SFRSYM    DATA     BIT       OV
      000000A1H   SFRSYM    DATA     BYTE      CBSL
      00000080H.5 SFRSYM    DATA     BIT       FSM_RESULT
      00000099H   SFRSYM    DATA     BYTE      SBUF
      00000087H   SFRSYM    DATA     BYTE      PCON
      00000088H.3 SFRSYM    DATA     BIT       MFLT
      00000098H   SFRSYM    DATA     BYTE      SCON
      00000089H   SFRSYM    DATA     BYTE      TMOD
      00000088H   SFRSYM    DATA     BYTE      TCON
      00000088H.1 SFRSYM    DATA     BIT       SINT
      000000E8H   SFRSYM    DATA     BYTE      EPSW
      000000F0H   SFRSYM    DATA     BYTE      B
      000000A2H   SFRSYM    DATA     BYTE      MPTR
      000000E0H   SFRSYM    DATA     BYTE      ACC
      00000088H.5 SFRSYM    DATA     BIT       TF0
      00000088H.7 SFRSYM    DATA     BIT       TF1
LX51 LINKER/LOCATER V3.65                                                             12/12/2006  14:05:45  PAGE 45


      0000008CH   SFRSYM    DATA     BYTE      TH0
      000000B2H   SFRSYM    DATA     BYTE      ISOCON
      0000008DH   SFRSYM    DATA     BYTE      TH1
      000000D8H   SFRSYM    DATA     BYTE      SPSW
      000000D0H   SFRSYM    DATA     BIT       P
      0000008AH   SFRSYM    DATA     BYTE      TL0
      0000008BH   SFRSYM    DATA     BYTE      TL1
      000000C0H   SFRSYM    DATA     BYTE      PROGIO
      000000D0H.3 SFRSYM    DATA     BIT       RS0
      00000088H.4 SFRSYM    DATA     BIT       TR0
      000000D0H.4 SFRSYM    DATA     BIT       RS1
      00000080H.1 SFRSYM    DATA     BIT       FSM_START
      00000088H.6 SFRSYM    DATA     BIT       TR1
      00000083H   SFRSYM    DATA     BYTE      DPH
      000000B4H   SFRSYM    DATA     BYTE      ISOTMR
      00000082H   SFRSYM    DATA     BYTE      DPL
      000000B0H   SFRSYM    DATA     BYTE      SECURITYSTATUS
      00000086H   SFRSYM    DATA     BYTE      DPS
      00000093H   SFRSYM    DATA     BYTE      DPX
      00000080H   SFRSYM    DATA     BYTE      NVFSMCON
      000000F7H   SFRSYM    DATA     BYTE      MFCON
      000000C9H   SFRSYM    DATA     BYTE      NvFsmMode
      000000D0H.5 SFRSYM    DATA     BIT       F0
      000000E8H.1 SFRSYM    DATA     BIT       F1
      000000D0H   SFRSYM    DATA     BYTE      PSW

      01001E45H   BLOCK     ECODE    ---       LVL=0
      01001E45H   BLOCK     ECODE    NEAR LAB  LVL=1
      00000005H   SYMBOL    DATA     BYTE      bTimerMode
      00000006H   SYMBOL    DATA     WORD      wTimerCounterValue
      ---         BLOCKEND  ---      ---       LVL=1
      01001E45H   LINE      ECODE    ---       #61
      01001E45H   LINE      ECODE    ---       #62
      01001E45H   LINE      ECODE    ---       #64
      01001E4AH   LINE      ECODE    ---       #67
      01001E4EH   LINE      ECODE    ---       #70
      01001E54H   LINE      ECODE    ---       #73
      01001E57H   LINE      ECODE    ---       #76
      01001E5BH   LINE      ECODE    ---       #77
      ---         BLOCKEND  ---      ---       LVL=0

      01001DF7H   BLOCK     ECODE    ---       LVL=0
      00000002H   SYMBOL    DATA     WORD      wCounter
      00000005H   SYMBOL    DATA     BYTE      bMode
      01001DF7H   LINE      ECODE    ---       #91
      01001DFBH   LINE      ECODE    ---       #92
      01001DFBH   LINE      ECODE    ---       #93
      01001DFDH   LINE      ECODE    ---       #94
      01001DFFH   LINE      ECODE    ---       #100
      01001E02H   LINE      ECODE    ---       #103
      01001E05H   LINE      ECODE    ---       #104
      01001E08H   LINE      ECODE    ---       #106
      01001E0BH   LINE      ECODE    ---       #107
      01001E0EH   LINE      ECODE    ---       #109
      01001E10H   LINE      ECODE    ---       #110
      ---         BLOCKEND  ---      ---       LVL=0

      01001F10H   BLOCK     ECODE    ---       LVL=0
      01001F10H   LINE      ECODE    ---       #130
      01001F10H   LINE      ECODE    ---       #131
      01001F10H   LINE      ECODE    ---       #136
      01001F13H   LINE      ECODE    ---       #139
      01001F15H   LINE      ECODE    ---       #142
      01001F19H   LINE      ECODE    ---       #143
      ---         BLOCKEND  ---      ---       LVL=0
LX51 LINKER/LOCATER V3.65                                                             12/12/2006  14:05:45  PAGE 46



      0100178FH   BLOCK     ECODE    ---       LVL=0
      0100178FH   LINE      ECODE    ---       #168
      0100178FH   LINE      ECODE    ---       #169
      0100178FH   LINE      ECODE    ---       #171
      01001793H   LINE      ECODE    ---       #172
      01001796H   LINE      ECODE    ---       #173
      01001799H   LINE      ECODE    ---       #174
      0100179CH   LINE      ECODE    ---       #175
      010017A2H   LINE      ECODE    ---       #177
      010017A9H   LINE      ECODE    ---       #178
      010017A9H   LINE      ECODE    ---       #179
      010017B0H   LINE      ECODE    ---       #180
      010017B7H   LINE      ECODE    ---       #181
      010017BEH   LINE      ECODE    ---       #182
      010017C5H   LINE      ECODE    ---       #183
      010017CCH   LINE      ECODE    ---       #185
      010017D0H   LINE      ECODE    ---       #186
      010017D2H   LINE      ECODE    ---       #188
      010017D2H   LINE      ECODE    ---       #189
      010017D9H   LINE      ECODE    ---       #190
      010017D9H   LINE      ECODE    ---       #192
      010017E0H   LINE      ECODE    ---       #193
      ---         BLOCKEND  ---      ---       LVL=0

      ---         MODULE    ---      ---       WRITE_UCM_BYTES_FROM_IRAM_BUFFER_EXTENDED
      010019BDH   PUBLIC    ECODE    ---       Write_UCM_Bytes_From_IRAM_Buffer_Extended_Addressing
      000000D0H.6 SFRSYM    DATA     BIT       AC
      00000080H   SFRSYM    DATA     BIT       FSM_FINISH
      00000083H   SFRSYM    DATA     BYTE      DPH0
      000000E8H   SFRSYM    DATA     BIT       AM
      000000A8H   SFRSYM    DATA     BYTE      IE
      00000085H   SFRSYM    DATA     BYTE      DPH1
      00000082H   SFRSYM    DATA     BYTE      DPL0
      00000084H   SFRSYM    DATA     BYTE      DPL1
      00000088H   SFRSYM    DATA     BIT       SSINT
      000000C0H   SFRSYM    DATA     BIT       PULLUP_RES_STATE
      00000088H.1 SFRSYM    DATA     BIT       USINT
      000000B8H   SFRSYM    DATA     BYTE      IP
      00000098H   SFRSYM    DATA     BIT       RI
      000000D0H.7 SFRSYM    DATA     BIT       CY
      00000098H.1 SFRSYM    DATA     BIT       TI
      000000EAH   SFRSYM    DATA     BYTE      MPTRX
      00000093H   SFRSYM    DATA     BYTE      DPX0
      00000095H   SFRSYM    DATA     BYTE      DPX1
      00000081H   SFRSYM    DATA     BYTE      SP
      000000D0H.2 SFRSYM    DATA     BIT       OV
      000000A1H   SFRSYM    DATA     BYTE      CBSL
      00000080H.5 SFRSYM    DATA     BIT       FSM_RESULT
      00000099H   SFRSYM    DATA     BYTE      SBUF
      00000087H   SFRSYM    DATA     BYTE      PCON
      00000088H.3 SFRSYM    DATA     BIT       MFLT
      00000098H   SFRSYM    DATA     BYTE      SCON
      00000089H   SFRSYM    DATA     BYTE      TMOD
      00000088H   SFRSYM    DATA     BYTE      TCON
      00000088H.1 SFRSYM    DATA     BIT       SINT
      000000E8H   SFRSYM    DATA     BYTE      EPSW
      000000F0H   SFRSYM    DATA     BYTE      B
      000000A2H   SFRSYM    DATA     BYTE      MPTR
      000000E0H   SFRSYM    DATA     BYTE      ACC
      00000088H.5 SFRSYM    DATA     BIT       TF0
      00000088H.7 SFRSYM    DATA     BIT       TF1
      0000008CH   SFRSYM    DATA     BYTE      TH0
      000000B2H   SFRSYM    DATA     BYTE      ISOCON
      0000008DH   SFRSYM    DATA     BYTE      TH1
LX51 LINKER/LOCATER V3.65                                                             12/12/2006  14:05:45  PAGE 47


      000000D8H   SFRSYM    DATA     BYTE      SPSW
      000000D0H   SFRSYM    DATA     BIT       P
      0000008AH   SFRSYM    DATA     BYTE      TL0
      0000008BH   SFRSYM    DATA     BYTE      TL1
      000000C0H   SFRSYM    DATA     BYTE      PROGIO
      000000D0H.3 SFRSYM    DATA     BIT       RS0
      00000088H.4 SFRSYM    DATA     BIT       TR0
      000000D0H.4 SFRSYM    DATA     BIT       RS1
      00000080H.1 SFRSYM    DATA     BIT       FSM_START
      00000088H.6 SFRSYM    DATA     BIT       TR1
      00000083H   SFRSYM    DATA     BYTE      DPH
      000000B4H   SFRSYM    DATA     BYTE      ISOTMR
      00000082H   SFRSYM    DATA     BYTE      DPL
      000000B0H   SFRSYM    DATA     BYTE      SECURITYSTATUS
      00000086H   SFRSYM    DATA     BYTE      DPS
      00000093H   SFRSYM    DATA     BYTE      DPX
      00000080H   SFRSYM    DATA     BYTE      NVFSMCON
      000000F7H   SFRSYM    DATA     BYTE      MFCON
      000000C9H   SFRSYM    DATA     BYTE      NvFsmMode
      000000D0H.5 SFRSYM    DATA     BIT       F0
      000000E8H.1 SFRSYM    DATA     BIT       F1
      000000D0H   SFRSYM    DATA     BYTE      PSW

      010019BDH   BLOCK     ECODE    ---       LVL=0
      010019BDH   LINE      ECODE    ---       #64
      010019BDH   LINE      ECODE    ---       #65
      010019BDH   LINE      ECODE    ---       #66
      010019C4H   LINE      ECODE    ---       #67
      010019C4H   LINE      ECODE    ---       #69
      010019CBH   LINE      ECODE    ---       #73
      010019D2H   LINE      ECODE    ---       #76
      010019E6H   LINE      ECODE    ---       #78
      010019EBH   LINE      ECODE    ---       #79
      010019EBH   LINE      ECODE    ---       #80
      010019F0H   LINE      ECODE    ---       #81
      010019F2H   LINE      ECODE    ---       #83
      010019F2H   LINE      ECODE    ---       #84
      010019F4H   LINE      ECODE    ---       #85
      010019F4H   LINE      ECODE    ---       #86
      010019F6H   LINE      ECODE    ---       #89
      010019F6H   LINE      ECODE    ---       #90
      010019FDH   LINE      ECODE    ---       #91
      010019FDH   LINE      ECODE    ---       #93
      01001A04H   LINE      ECODE    ---       #95
      ---         BLOCKEND  ---      ---       LVL=0

      ---         MODULE    ---      ---       GET_TCON
      01001DBDH   PUBLIC    ECODE    ---       Get_TCON
      000000D0H.6 SFRSYM    DATA     BIT       AC
      00000080H   SFRSYM    DATA     BIT       FSM_FINISH
      00000083H   SFRSYM    DATA     BYTE      DPH0
      000000E8H   SFRSYM    DATA     BIT       AM
      000000A8H   SFRSYM    DATA     BYTE      IE
      00000085H   SFRSYM    DATA     BYTE      DPH1
      00000082H   SFRSYM    DATA     BYTE      DPL0
      00000084H   SFRSYM    DATA     BYTE      DPL1
      00000088H   SFRSYM    DATA     BIT       SSINT
      000000C0H   SFRSYM    DATA     BIT       PULLUP_RES_STATE
      00000088H.1 SFRSYM    DATA     BIT       USINT
      000000B8H   SFRSYM    DATA     BYTE      IP
      00000098H   SFRSYM    DATA     BIT       RI
      000000D0H.7 SFRSYM    DATA     BIT       CY
      00000098H.1 SFRSYM    DATA     BIT       TI
      000000EAH   SFRSYM    DATA     BYTE      MPTRX
      00000093H   SFRSYM    DATA     BYTE      DPX0
LX51 LINKER/LOCATER V3.65                                                             12/12/2006  14:05:45  PAGE 48


      00000095H   SFRSYM    DATA     BYTE      DPX1
      00000081H   SFRSYM    DATA     BYTE      SP
      000000D0H.2 SFRSYM    DATA     BIT       OV
      000000A1H   SFRSYM    DATA     BYTE      CBSL
      00000080H.5 SFRSYM    DATA     BIT       FSM_RESULT
      00000099H   SFRSYM    DATA     BYTE      SBUF
      00000087H   SFRSYM    DATA     BYTE      PCON
      00000088H.3 SFRSYM    DATA     BIT       MFLT
      00000098H   SFRSYM    DATA     BYTE      SCON
      00000089H   SFRSYM    DATA     BYTE      TMOD
      00000088H   SFRSYM    DATA     BYTE      TCON
      00000088H.1 SFRSYM    DATA     BIT       SINT
      000000E8H   SFRSYM    DATA     BYTE      EPSW
      000000F0H   SFRSYM    DATA     BYTE      B
      000000A2H   SFRSYM    DATA     BYTE      MPTR
      000000E0H   SFRSYM    DATA     BYTE      ACC
      00000088H.5 SFRSYM    DATA     BIT       TF0
      00000088H.7 SFRSYM    DATA     BIT       TF1
      0000008CH   SFRSYM    DATA     BYTE      TH0
      000000B2H   SFRSYM    DATA     BYTE      ISOCON
      0000008DH   SFRSYM    DATA     BYTE      TH1
      000000D8H   SFRSYM    DATA     BYTE      SPSW
      000000D0H   SFRSYM    DATA     BIT       P
      0000008AH   SFRSYM    DATA     BYTE      TL0
      0000008BH   SFRSYM    DATA     BYTE      TL1
      000000C0H   SFRSYM    DATA     BYTE      PROGIO
      000000D0H.3 SFRSYM    DATA     BIT       RS0
      00000088H.4 SFRSYM    DATA     BIT       TR0
      000000D0H.4 SFRSYM    DATA     BIT       RS1
      00000080H.1 SFRSYM    DATA     BIT       FSM_START
      00000088H.6 SFRSYM    DATA     BIT       TR1
      00000083H   SFRSYM    DATA     BYTE      DPH
      000000B4H   SFRSYM    DATA     BYTE      ISOTMR
      00000082H   SFRSYM    DATA     BYTE      DPL
      000000B0H   SFRSYM    DATA     BYTE      SECURITYSTATUS
      00000086H   SFRSYM    DATA     BYTE      DPS
      00000093H   SFRSYM    DATA     BYTE      DPX
      00000080H   SFRSYM    DATA     BYTE      NVFSMCON
      000000F7H   SFRSYM    DATA     BYTE      MFCON
      000000C9H   SFRSYM    DATA     BYTE      NvFsmMode
      000000D0H.5 SFRSYM    DATA     BIT       F0
      000000E8H.1 SFRSYM    DATA     BIT       F1
      000000D0H   SFRSYM    DATA     BYTE      PSW

      01001DBDH   BLOCK     ECODE    ---       LVL=0
      01001DBDH   LINE      ECODE    ---       #58
      01001DBDH   LINE      ECODE    ---       #59
      01001DBDH   LINE      ECODE    ---       #60
      01001DC3H   LINE      ECODE    ---       #61
      01001DC3H   LINE      ECODE    ---       #62
      01001DC8H   LINE      ECODE    ---       #64
      01001DCCH   LINE      ECODE    ---       #65
      01001DCEH   LINE      ECODE    ---       #67
      01001DCEH   LINE      ECODE    ---       #68
      01001DD5H   LINE      ECODE    ---       #69
      01001DD5H   LINE      ECODE    ---       #71
      01001DDCH   LINE      ECODE    ---       #74
      ---         BLOCKEND  ---      ---       LVL=0

      ---         MODULE    ---      ---       CRC16_NORMAL
      01000B7DH   PUBLIC    CONST    ---       CRC16_LookUp_Table
      0100173BH   PUBLIC    ECODE    ---       _CalculateCRC
      01001925H   PUBLIC    ECODE    ---       Create_CRC16_Hash_Of_XDATA
      000000D0H.6 SFRSYM    DATA     BIT       AC
      00000080H   SFRSYM    DATA     BIT       FSM_FINISH
LX51 LINKER/LOCATER V3.65                                                             12/12/2006  14:05:45  PAGE 49


      00000083H   SFRSYM    DATA     BYTE      DPH0
      000000E8H   SFRSYM    DATA     BIT       AM
      000000A8H   SFRSYM    DATA     BYTE      IE
      00000085H   SFRSYM    DATA     BYTE      DPH1
      00000082H   SFRSYM    DATA     BYTE      DPL0
      00000084H   SFRSYM    DATA     BYTE      DPL1
      00000088H   SFRSYM    DATA     BIT       SSINT
      000000C0H   SFRSYM    DATA     BIT       PULLUP_RES_STATE
      00000088H.1 SFRSYM    DATA     BIT       USINT
      000000B8H   SFRSYM    DATA     BYTE      IP
      00000098H   SFRSYM    DATA     BIT       RI
      000000D0H.7 SFRSYM    DATA     BIT       CY
      00000098H.1 SFRSYM    DATA     BIT       TI
      000000EAH   SFRSYM    DATA     BYTE      MPTRX
      00000093H   SFRSYM    DATA     BYTE      DPX0
      00000095H   SFRSYM    DATA     BYTE      DPX1
      00000081H   SFRSYM    DATA     BYTE      SP
      000000D0H.2 SFRSYM    DATA     BIT       OV
      000000A1H   SFRSYM    DATA     BYTE      CBSL
      00000080H.5 SFRSYM    DATA     BIT       FSM_RESULT
      00000099H   SFRSYM    DATA     BYTE      SBUF
      00000087H   SFRSYM    DATA     BYTE      PCON
      00000088H.3 SFRSYM    DATA     BIT       MFLT
      00000098H   SFRSYM    DATA     BYTE      SCON
      00000089H   SFRSYM    DATA     BYTE      TMOD
      00000088H   SFRSYM    DATA     BYTE      TCON
      00000088H.1 SFRSYM    DATA     BIT       SINT
      000000E8H   SFRSYM    DATA     BYTE      EPSW
      000000F0H   SFRSYM    DATA     BYTE      B
      000000A2H   SFRSYM    DATA     BYTE      MPTR
      000000E0H   SFRSYM    DATA     BYTE      ACC
      00000088H.5 SFRSYM    DATA     BIT       TF0
      00000088H.7 SFRSYM    DATA     BIT       TF1
      0000008CH   SFRSYM    DATA     BYTE      TH0
      000000B2H   SFRSYM    DATA     BYTE      ISOCON
      0000008DH   SFRSYM    DATA     BYTE      TH1
      000000D8H   SFRSYM    DATA     BYTE      SPSW
      000000D0H   SFRSYM    DATA     BIT       P
      0000008AH   SFRSYM    DATA     BYTE      TL0
      0000008BH   SFRSYM    DATA     BYTE      TL1
      000000C0H   SFRSYM    DATA     BYTE      PROGIO
      000000D0H.3 SFRSYM    DATA     BIT       RS0
      00000088H.4 SFRSYM    DATA     BIT       TR0
      000000D0H.4 SFRSYM    DATA     BIT       RS1
      00000080H.1 SFRSYM    DATA     BIT       FSM_START
      00000088H.6 SFRSYM    DATA     BIT       TR1
      00000083H   SFRSYM    DATA     BYTE      DPH
      000000B4H   SFRSYM    DATA     BYTE      ISOTMR
      00000082H   SFRSYM    DATA     BYTE      DPL
      000000B0H   SFRSYM    DATA     BYTE      SECURITYSTATUS
      00000086H   SFRSYM    DATA     BYTE      DPS
      00000093H   SFRSYM    DATA     BYTE      DPX
      00000080H   SFRSYM    DATA     BYTE      NVFSMCON
      000000F7H   SFRSYM    DATA     BYTE      MFCON
      000000C9H   SFRSYM    DATA     BYTE      NvFsmMode
      000000D0H.5 SFRSYM    DATA     BIT       F0
      000000E8H.1 SFRSYM    DATA     BIT       F1
      000000D0H   SFRSYM    DATA     BYTE      PSW

      01001925H   BLOCK     ECODE    ---       LVL=0
      01001925H   BLOCK     ECODE    NEAR LAB  LVL=1
      00000008H   SYMBOL    DATA     WORD      CRC_Value
      ---         BLOCKEND  ---      ---       LVL=1
      01001925H   LINE      ECODE    ---       #96
      01001925H   LINE      ECODE    ---       #97
LX51 LINKER/LOCATER V3.65                                                             12/12/2006  14:05:45  PAGE 50


      01001925H   LINE      ECODE    ---       #98
      0100192AH   LINE      ECODE    ---       #100
      01001931H   LINE      ECODE    ---       #101
      01001931H   LINE      ECODE    ---       #102
      01001942H   LINE      ECODE    ---       #104
      01001952H   LINE      ECODE    ---       #106
      01001958H   LINE      ECODE    ---       #107
      0100195FH   LINE      ECODE    ---       #109
      01001963H   LINE      ECODE    ---       #110
      01001965H   LINE      ECODE    ---       #112
      01001965H   LINE      ECODE    ---       #113
      0100196CH   LINE      ECODE    ---       #114
      0100196CH   LINE      ECODE    ---       #116
      01001973H   LINE      ECODE    ---       #118
      ---         BLOCKEND  ---      ---       LVL=0

      0100173BH   BLOCK     ECODE    ---       LVL=0
      0000000AH   SYMBOL    DATA     ---       ucpStartAddress
      0000000CH   SYMBOL    DATA     WORD      uiInitRemainder
      00000002H   SYMBOL    DATA     WORD      uiLen
      0100173BH   LINE      ECODE    ---       #131
      01001743H   LINE      ECODE    ---       #132
      01001743H   LINE      ECODE    ---       #133
      0100174CH   LINE      ECODE    ---       #134
      0100174CH   LINE      ECODE    ---       #135
      01001783H   LINE      ECODE    ---       #136
      0100178AH   LINE      ECODE    ---       #138
      0100178EH   LINE      ECODE    ---       #140
      ---         BLOCKEND  ---      ---       LVL=0

      ---         MODULE    ---      ---       CODE_MEMORY_DUMP_EXTENDED_ADDRESSING
      01001833H   PUBLIC    ECODE    ---       CODE_Memory_Dump_Extended_Addressing
      000000D0H.6 SFRSYM    DATA     BIT       AC
      00000080H   SFRSYM    DATA     BIT       FSM_FINISH
      00000083H   SFRSYM    DATA     BYTE      DPH0
      000000E8H   SFRSYM    DATA     BIT       AM
      000000A8H   SFRSYM    DATA     BYTE      IE
      00000085H   SFRSYM    DATA     BYTE      DPH1
      00000082H   SFRSYM    DATA     BYTE      DPL0
      00000084H   SFRSYM    DATA     BYTE      DPL1
      00000088H   SFRSYM    DATA     BIT       SSINT
      000000C0H   SFRSYM    DATA     BIT       PULLUP_RES_STATE
      00000088H.1 SFRSYM    DATA     BIT       USINT
      000000B8H   SFRSYM    DATA     BYTE      IP
      00000098H   SFRSYM    DATA     BIT       RI
      000000D0H.7 SFRSYM    DATA     BIT       CY
      00000098H.1 SFRSYM    DATA     BIT       TI
      000000EAH   SFRSYM    DATA     BYTE      MPTRX
      00000093H   SFRSYM    DATA     BYTE      DPX0
      00000095H   SFRSYM    DATA     BYTE      DPX1
      00000081H   SFRSYM    DATA     BYTE      SP
      000000D0H.2 SFRSYM    DATA     BIT       OV
      000000A1H   SFRSYM    DATA     BYTE      CBSL
      00000080H.5 SFRSYM    DATA     BIT       FSM_RESULT
      00000099H   SFRSYM    DATA     BYTE      SBUF
      00000087H   SFRSYM    DATA     BYTE      PCON
      00000088H.3 SFRSYM    DATA     BIT       MFLT
      00000098H   SFRSYM    DATA     BYTE      SCON
      00000089H   SFRSYM    DATA     BYTE      TMOD
      00000088H   SFRSYM    DATA     BYTE      TCON
      00000088H.1 SFRSYM    DATA     BIT       SINT
      000000E8H   SFRSYM    DATA     BYTE      EPSW
      000000F0H   SFRSYM    DATA     BYTE      B
      000000A2H   SFRSYM    DATA     BYTE      MPTR
      000000E0H   SFRSYM    DATA     BYTE      ACC
LX51 LINKER/LOCATER V3.65                                                             12/12/2006  14:05:45  PAGE 51


      00000088H.5 SFRSYM    DATA     BIT       TF0
      00000088H.7 SFRSYM    DATA     BIT       TF1
      0000008CH   SFRSYM    DATA     BYTE      TH0
      000000B2H   SFRSYM    DATA     BYTE      ISOCON
      0000008DH   SFRSYM    DATA     BYTE      TH1
      000000D8H   SFRSYM    DATA     BYTE      SPSW
      000000D0H   SFRSYM    DATA     BIT       P
      0000008AH   SFRSYM    DATA     BYTE      TL0
      0000008BH   SFRSYM    DATA     BYTE      TL1
      000000C0H   SFRSYM    DATA     BYTE      PROGIO
      000000D0H.3 SFRSYM    DATA     BIT       RS0
      00000088H.4 SFRSYM    DATA     BIT       TR0
      000000D0H.4 SFRSYM    DATA     BIT       RS1
      00000080H.1 SFRSYM    DATA     BIT       FSM_START
      00000088H.6 SFRSYM    DATA     BIT       TR1
      00000083H   SFRSYM    DATA     BYTE      DPH
      000000B4H   SFRSYM    DATA     BYTE      ISOTMR
      00000082H   SFRSYM    DATA     BYTE      DPL
      000000B0H   SFRSYM    DATA     BYTE      SECURITYSTATUS
      00000086H   SFRSYM    DATA     BYTE      DPS
      00000093H   SFRSYM    DATA     BYTE      DPX
      00000080H   SFRSYM    DATA     BYTE      NVFSMCON
      000000F7H   SFRSYM    DATA     BYTE      MFCON
      000000C9H   SFRSYM    DATA     BYTE      NvFsmMode
      000000D0H.5 SFRSYM    DATA     BIT       F0
      000000E8H.1 SFRSYM    DATA     BIT       F1
      000000D0H   SFRSYM    DATA     BYTE      PSW

      01001833H   BLOCK     ECODE    ---       LVL=0
      01001833H   LINE      ECODE    ---       #63
      01001833H   LINE      ECODE    ---       #64
      01001833H   LINE      ECODE    ---       #74
      01001836H   LINE      ECODE    ---       #75
      0100183EH   LINE      ECODE    ---       #76
      01001848H   LINE      ECODE    ---       #77
      01001852H   LINE      ECODE    ---       #78
      0100185CH   LINE      ECODE    ---       #83
      0100185CH   LINE      ECODE    ---       #87
      0100187AH   LINE      ECODE    ---       #89
      01001880H   LINE      ECODE    ---       #91
      01001883H   LINE      ECODE    ---       #93
      ---         BLOCKEND  ---      ---       LVL=0

      ---         MODULE    ---      ---       XDATA_MEMORY_DUMP_EXTENDED_ADDRESSING
      01001884H   PUBLIC    ECODE    ---       XDATA_Memory_Dump_Extended_Addressing
      000000D0H.6 SFRSYM    DATA     BIT       AC
      00000080H   SFRSYM    DATA     BIT       FSM_FINISH
      00000083H   SFRSYM    DATA     BYTE      DPH0
      000000E8H   SFRSYM    DATA     BIT       AM
      000000A8H   SFRSYM    DATA     BYTE      IE
      00000085H   SFRSYM    DATA     BYTE      DPH1
      00000082H   SFRSYM    DATA     BYTE      DPL0
      00000084H   SFRSYM    DATA     BYTE      DPL1
      00000088H   SFRSYM    DATA     BIT       SSINT
      000000C0H   SFRSYM    DATA     BIT       PULLUP_RES_STATE
      00000088H.1 SFRSYM    DATA     BIT       USINT
      000000B8H   SFRSYM    DATA     BYTE      IP
      00000098H   SFRSYM    DATA     BIT       RI
      000000D0H.7 SFRSYM    DATA     BIT       CY
      00000098H.1 SFRSYM    DATA     BIT       TI
      000000EAH   SFRSYM    DATA     BYTE      MPTRX
      00000093H   SFRSYM    DATA     BYTE      DPX0
      00000095H   SFRSYM    DATA     BYTE      DPX1
      00000081H   SFRSYM    DATA     BYTE      SP
      000000D0H.2 SFRSYM    DATA     BIT       OV
LX51 LINKER/LOCATER V3.65                                                             12/12/2006  14:05:45  PAGE 52


      000000A1H   SFRSYM    DATA     BYTE      CBSL
      00000080H.5 SFRSYM    DATA     BIT       FSM_RESULT
      00000099H   SFRSYM    DATA     BYTE      SBUF
      00000087H   SFRSYM    DATA     BYTE      PCON
      00000088H.3 SFRSYM    DATA     BIT       MFLT
      00000098H   SFRSYM    DATA     BYTE      SCON
      00000089H   SFRSYM    DATA     BYTE      TMOD
      00000088H   SFRSYM    DATA     BYTE      TCON
      00000088H.1 SFRSYM    DATA     BIT       SINT
      000000E8H   SFRSYM    DATA     BYTE      EPSW
      000000F0H   SFRSYM    DATA     BYTE      B
      000000A2H   SFRSYM    DATA     BYTE      MPTR
      000000E0H   SFRSYM    DATA     BYTE      ACC
      00000088H.5 SFRSYM    DATA     BIT       TF0
      00000088H.7 SFRSYM    DATA     BIT       TF1
      0000008CH   SFRSYM    DATA     BYTE      TH0
      000000B2H   SFRSYM    DATA     BYTE      ISOCON
      0000008DH   SFRSYM    DATA     BYTE      TH1
      000000D8H   SFRSYM    DATA     BYTE      SPSW
      000000D0H   SFRSYM    DATA     BIT       P
      0000008AH   SFRSYM    DATA     BYTE      TL0
      0000008BH   SFRSYM    DATA     BYTE      TL1
      000000C0H   SFRSYM    DATA     BYTE      PROGIO
      000000D0H.3 SFRSYM    DATA     BIT       RS0
      00000088H.4 SFRSYM    DATA     BIT       TR0
      000000D0H.4 SFRSYM    DATA     BIT       RS1
      00000080H.1 SFRSYM    DATA     BIT       FSM_START
      00000088H.6 SFRSYM    DATA     BIT       TR1
      00000083H   SFRSYM    DATA     BYTE      DPH
      000000B4H   SFRSYM    DATA     BYTE      ISOTMR
      00000082H   SFRSYM    DATA     BYTE      DPL
      000000B0H   SFRSYM    DATA     BYTE      SECURITYSTATUS
      00000086H   SFRSYM    DATA     BYTE      DPS
      00000093H   SFRSYM    DATA     BYTE      DPX
      00000080H   SFRSYM    DATA     BYTE      NVFSMCON
      000000F7H   SFRSYM    DATA     BYTE      MFCON
      000000C9H   SFRSYM    DATA     BYTE      NvFsmMode
      000000D0H.5 SFRSYM    DATA     BIT       F0
      000000E8H.1 SFRSYM    DATA     BIT       F1
      000000D0H   SFRSYM    DATA     BYTE      PSW

      01001884H   BLOCK     ECODE    ---       LVL=0
      01001884H   LINE      ECODE    ---       #62
      01001884H   LINE      ECODE    ---       #63
      01001884H   LINE      ECODE    ---       #73
      01001887H   LINE      ECODE    ---       #74
      0100188FH   LINE      ECODE    ---       #75
      01001899H   LINE      ECODE    ---       #76
      010018A3H   LINE      ECODE    ---       #77
      010018ADH   LINE      ECODE    ---       #82
      010018ADH   LINE      ECODE    ---       #86
      010018CBH   LINE      ECODE    ---       #88
      010018D1H   LINE      ECODE    ---       #90
      010018D4H   LINE      ECODE    ---       #92
      ---         BLOCKEND  ---      ---       LVL=0

      ---         MODULE    ---      ---       IDATA_MEMORY_DUMP
      01001E11H   PUBLIC    ECODE    ---       IDATA_Memory_Dump
      000000D0H.6 SFRSYM    DATA     BIT       AC
      00000080H   SFRSYM    DATA     BIT       FSM_FINISH
      00000083H   SFRSYM    DATA     BYTE      DPH0
      000000E8H   SFRSYM    DATA     BIT       AM
      000000A8H   SFRSYM    DATA     BYTE      IE
      00000085H   SFRSYM    DATA     BYTE      DPH1
      00000082H   SFRSYM    DATA     BYTE      DPL0
LX51 LINKER/LOCATER V3.65                                                             12/12/2006  14:05:45  PAGE 53


      00000084H   SFRSYM    DATA     BYTE      DPL1
      00000088H   SFRSYM    DATA     BIT       SSINT
      000000C0H   SFRSYM    DATA     BIT       PULLUP_RES_STATE
      00000088H.1 SFRSYM    DATA     BIT       USINT
      000000B8H   SFRSYM    DATA     BYTE      IP
      00000098H   SFRSYM    DATA     BIT       RI
      000000D0H.7 SFRSYM    DATA     BIT       CY
      00000098H.1 SFRSYM    DATA     BIT       TI
      000000EAH   SFRSYM    DATA     BYTE      MPTRX
      00000093H   SFRSYM    DATA     BYTE      DPX0
      00000095H   SFRSYM    DATA     BYTE      DPX1
      00000081H   SFRSYM    DATA     BYTE      SP
      000000D0H.2 SFRSYM    DATA     BIT       OV
      000000A1H   SFRSYM    DATA     BYTE      CBSL
      00000080H.5 SFRSYM    DATA     BIT       FSM_RESULT
      00000099H   SFRSYM    DATA     BYTE      SBUF
      00000087H   SFRSYM    DATA     BYTE      PCON
      00000088H.3 SFRSYM    DATA     BIT       MFLT
      00000098H   SFRSYM    DATA     BYTE      SCON
      00000089H   SFRSYM    DATA     BYTE      TMOD
      00000088H   SFRSYM    DATA     BYTE      TCON
      00000088H.1 SFRSYM    DATA     BIT       SINT
      000000E8H   SFRSYM    DATA     BYTE      EPSW
      000000F0H   SFRSYM    DATA     BYTE      B
      000000A2H   SFRSYM    DATA     BYTE      MPTR
      000000E0H   SFRSYM    DATA     BYTE      ACC
      00000088H.5 SFRSYM    DATA     BIT       TF0
      00000088H.7 SFRSYM    DATA     BIT       TF1
      0000008CH   SFRSYM    DATA     BYTE      TH0
      000000B2H   SFRSYM    DATA     BYTE      ISOCON
      0000008DH   SFRSYM    DATA     BYTE      TH1
      000000D8H   SFRSYM    DATA     BYTE      SPSW
      000000D0H   SFRSYM    DATA     BIT       P
      0000008AH   SFRSYM    DATA     BYTE      TL0
      0000008BH   SFRSYM    DATA     BYTE      TL1
      000000C0H   SFRSYM    DATA     BYTE      PROGIO
      000000D0H.3 SFRSYM    DATA     BIT       RS0
      00000088H.4 SFRSYM    DATA     BIT       TR0
      000000D0H.4 SFRSYM    DATA     BIT       RS1
      00000080H.1 SFRSYM    DATA     BIT       FSM_START
      00000088H.6 SFRSYM    DATA     BIT       TR1
      00000083H   SFRSYM    DATA     BYTE      DPH
      000000B4H   SFRSYM    DATA     BYTE      ISOTMR
      00000082H   SFRSYM    DATA     BYTE      DPL
      000000B0H   SFRSYM    DATA     BYTE      SECURITYSTATUS
      00000086H   SFRSYM    DATA     BYTE      DPS
      00000093H   SFRSYM    DATA     BYTE      DPX
      00000080H   SFRSYM    DATA     BYTE      NVFSMCON
      000000F7H   SFRSYM    DATA     BYTE      MFCON
      000000C9H   SFRSYM    DATA     BYTE      NvFsmMode
      000000D0H.5 SFRSYM    DATA     BIT       F0
      000000E8H.1 SFRSYM    DATA     BIT       F1
      000000D0H   SFRSYM    DATA     BYTE      PSW

      01001E11H   BLOCK     ECODE    ---       LVL=0
      01001E11H   LINE      ECODE    ---       #60
      01001E11H   LINE      ECODE    ---       #61
      01001E11H   LINE      ECODE    ---       #62
      01001E16H   LINE      ECODE    ---       #67
      01001E16H   LINE      ECODE    ---       #68
      01001E21H   LINE      ECODE    ---       #69
      01001E27H   LINE      ECODE    ---       #71
      01001E2AH   LINE      ECODE    ---       #73
      ---         BLOCKEND  ---      ---       LVL=0

LX51 LINKER/LOCATER V3.65                                                             12/12/2006  14:05:45  PAGE 54


      ---         MODULE    ---      ---       CONV_TWO_BYTES_TO_INT
      01000826H   PUBLIC    ECODE    ---       _Conv_Two_Bytes_To_Int
      000000D0H.6 SFRSYM    DATA     BIT       AC
      00000080H   SFRSYM    DATA     BIT       FSM_FINISH
      00000083H   SFRSYM    DATA     BYTE      DPH0
      000000E8H   SFRSYM    DATA     BIT       AM
      000000A8H   SFRSYM    DATA     BYTE      IE
      00000085H   SFRSYM    DATA     BYTE      DPH1
      00000082H   SFRSYM    DATA     BYTE      DPL0
      00000084H   SFRSYM    DATA     BYTE      DPL1
      00000088H   SFRSYM    DATA     BIT       SSINT
      000000C0H   SFRSYM    DATA     BIT       PULLUP_RES_STATE
      00000088H.1 SFRSYM    DATA     BIT       USINT
      000000B8H   SFRSYM    DATA     BYTE      IP
      00000098H   SFRSYM    DATA     BIT       RI
      000000D0H.7 SFRSYM    DATA     BIT       CY
      00000098H.1 SFRSYM    DATA     BIT       TI
      000000EAH   SFRSYM    DATA     BYTE      MPTRX
      00000093H   SFRSYM    DATA     BYTE      DPX0
      00000095H   SFRSYM    DATA     BYTE      DPX1
      00000081H   SFRSYM    DATA     BYTE      SP
      000000D0H.2 SFRSYM    DATA     BIT       OV
      000000A1H   SFRSYM    DATA     BYTE      CBSL
      00000080H.5 SFRSYM    DATA     BIT       FSM_RESULT
      00000099H   SFRSYM    DATA     BYTE      SBUF
      00000087H   SFRSYM    DATA     BYTE      PCON
      00000088H.3 SFRSYM    DATA     BIT       MFLT
      00000098H   SFRSYM    DATA     BYTE      SCON
      00000089H   SFRSYM    DATA     BYTE      TMOD
      00000088H   SFRSYM    DATA     BYTE      TCON
      00000088H.1 SFRSYM    DATA     BIT       SINT
      000000E8H   SFRSYM    DATA     BYTE      EPSW
      000000F0H   SFRSYM    DATA     BYTE      B
      000000A2H   SFRSYM    DATA     BYTE      MPTR
      000000E0H   SFRSYM    DATA     BYTE      ACC
      00000088H.5 SFRSYM    DATA     BIT       TF0
      00000088H.7 SFRSYM    DATA     BIT       TF1
      0000008CH   SFRSYM    DATA     BYTE      TH0
      000000B2H   SFRSYM    DATA     BYTE      ISOCON
      0000008DH   SFRSYM    DATA     BYTE      TH1
      000000D8H   SFRSYM    DATA     BYTE      SPSW
      000000D0H   SFRSYM    DATA     BIT       P
      0000008AH   SFRSYM    DATA     BYTE      TL0
      0000008BH   SFRSYM    DATA     BYTE      TL1
      000000C0H   SFRSYM    DATA     BYTE      PROGIO
      000000D0H.3 SFRSYM    DATA     BIT       RS0
      00000088H.4 SFRSYM    DATA     BIT       TR0
      000000D0H.4 SFRSYM    DATA     BIT       RS1
      00000080H.1 SFRSYM    DATA     BIT       FSM_START
      00000088H.6 SFRSYM    DATA     BIT       TR1
      00000083H   SFRSYM    DATA     BYTE      DPH
      000000B4H   SFRSYM    DATA     BYTE      ISOTMR
      00000082H   SFRSYM    DATA     BYTE      DPL
      000000B0H   SFRSYM    DATA     BYTE      SECURITYSTATUS
      00000086H   SFRSYM    DATA     BYTE      DPS
      00000093H   SFRSYM    DATA     BYTE      DPX
      00000080H   SFRSYM    DATA     BYTE      NVFSMCON
      000000F7H   SFRSYM    DATA     BYTE      MFCON
      000000C9H   SFRSYM    DATA     BYTE      NvFsmMode
      000000D0H.5 SFRSYM    DATA     BIT       F0
      000000E8H.1 SFRSYM    DATA     BIT       F1
      000000D0H   SFRSYM    DATA     BYTE      PSW

      01000826H   BLOCK     ECODE    ---       LVL=0
      00000007H   SYMBOL    DATA     BYTE      ucHiByteAddr
LX51 LINKER/LOCATER V3.65                                                             12/12/2006  14:05:45  PAGE 55


      00000005H   SYMBOL    DATA     BYTE      ucLoByteAddr
      01000826H   LINE      ECODE    ---       #48
      01000826H   LINE      ECODE    ---       #49
      01000826H   LINE      ECODE    ---       #50
      0100082AH   LINE      ECODE    ---       #52
      ---         BLOCKEND  ---      ---       LVL=0

      ---         MODULE    ---      ---       WRITE_TO_IRAM
      01001E2BH   PUBLIC    ECODE    ---       Write_To_IRAM
      000000D0H.6 SFRSYM    DATA     BIT       AC
      00000080H   SFRSYM    DATA     BIT       FSM_FINISH
      00000083H   SFRSYM    DATA     BYTE      DPH0
      000000E8H   SFRSYM    DATA     BIT       AM
      000000A8H   SFRSYM    DATA     BYTE      IE
      00000085H   SFRSYM    DATA     BYTE      DPH1
      00000082H   SFRSYM    DATA     BYTE      DPL0
      00000084H   SFRSYM    DATA     BYTE      DPL1
      00000088H   SFRSYM    DATA     BIT       SSINT
      000000C0H   SFRSYM    DATA     BIT       PULLUP_RES_STATE
      00000088H.1 SFRSYM    DATA     BIT       USINT
      000000B8H   SFRSYM    DATA     BYTE      IP
      00000098H   SFRSYM    DATA     BIT       RI
      000000D0H.7 SFRSYM    DATA     BIT       CY
      00000098H.1 SFRSYM    DATA     BIT       TI
      000000EAH   SFRSYM    DATA     BYTE      MPTRX
      00000093H   SFRSYM    DATA     BYTE      DPX0
      00000095H   SFRSYM    DATA     BYTE      DPX1
      00000081H   SFRSYM    DATA     BYTE      SP
      000000D0H.2 SFRSYM    DATA     BIT       OV
      000000A1H   SFRSYM    DATA     BYTE      CBSL
      00000080H.5 SFRSYM    DATA     BIT       FSM_RESULT
      00000099H   SFRSYM    DATA     BYTE      SBUF
      00000087H   SFRSYM    DATA     BYTE      PCON
      00000088H.3 SFRSYM    DATA     BIT       MFLT
      00000098H   SFRSYM    DATA     BYTE      SCON
      00000089H   SFRSYM    DATA     BYTE      TMOD
      00000088H   SFRSYM    DATA     BYTE      TCON
      00000088H.1 SFRSYM    DATA     BIT       SINT
      000000E8H   SFRSYM    DATA     BYTE      EPSW
      000000F0H   SFRSYM    DATA     BYTE      B
      000000A2H   SFRSYM    DATA     BYTE      MPTR
      000000E0H   SFRSYM    DATA     BYTE      ACC
      00000088H.5 SFRSYM    DATA     BIT       TF0
      00000088H.7 SFRSYM    DATA     BIT       TF1
      0000008CH   SFRSYM    DATA     BYTE      TH0
      000000B2H   SFRSYM    DATA     BYTE      ISOCON
      0000008DH   SFRSYM    DATA     BYTE      TH1
      000000D8H   SFRSYM    DATA     BYTE      SPSW
      000000D0H   SFRSYM    DATA     BIT       P
      0000008AH   SFRSYM    DATA     BYTE      TL0
      0000008BH   SFRSYM    DATA     BYTE      TL1
      000000C0H   SFRSYM    DATA     BYTE      PROGIO
      000000D0H.3 SFRSYM    DATA     BIT       RS0
      00000088H.4 SFRSYM    DATA     BIT       TR0
      000000D0H.4 SFRSYM    DATA     BIT       RS1
      00000080H.1 SFRSYM    DATA     BIT       FSM_START
      00000088H.6 SFRSYM    DATA     BIT       TR1
      00000083H   SFRSYM    DATA     BYTE      DPH
      000000B4H   SFRSYM    DATA     BYTE      ISOTMR
      00000082H   SFRSYM    DATA     BYTE      DPL
      000000B0H   SFRSYM    DATA     BYTE      SECURITYSTATUS
      00000086H   SFRSYM    DATA     BYTE      DPS
      00000093H   SFRSYM    DATA     BYTE      DPX
      00000080H   SFRSYM    DATA     BYTE      NVFSMCON
      000000F7H   SFRSYM    DATA     BYTE      MFCON
LX51 LINKER/LOCATER V3.65                                                             12/12/2006  14:05:45  PAGE 56


      000000C9H   SFRSYM    DATA     BYTE      NvFsmMode
      000000D0H.5 SFRSYM    DATA     BIT       F0
      000000E8H.1 SFRSYM    DATA     BIT       F1
      000000D0H   SFRSYM    DATA     BYTE      PSW

      01001E2BH   BLOCK     ECODE    ---       LVL=0
      01001E2BH   LINE      ECODE    ---       #58
      01001E2BH   LINE      ECODE    ---       #59
      01001E2BH   LINE      ECODE    ---       #60
      01001E30H   LINE      ECODE    ---       #65
      01001E30H   LINE      ECODE    ---       #66
      01001E3BH   LINE      ECODE    ---       #67
      01001E41H   LINE      ECODE    ---       #69
      01001E44H   LINE      ECODE    ---       #71
      ---         BLOCKEND  ---      ---       LVL=0

      ---         MODULE    ---      ---       WRITE_TO_XRAM_EXTENDED_ADDRESSING
      010017E1H   PUBLIC    ECODE    ---       Write_To_RAM_Extended_Addressing
      000000D0H.6 SFRSYM    DATA     BIT       AC
      00000080H   SFRSYM    DATA     BIT       FSM_FINISH
      00000083H   SFRSYM    DATA     BYTE      DPH0
      000000E8H   SFRSYM    DATA     BIT       AM
      000000A8H   SFRSYM    DATA     BYTE      IE
      00000085H   SFRSYM    DATA     BYTE      DPH1
      00000082H   SFRSYM    DATA     BYTE      DPL0
      00000084H   SFRSYM    DATA     BYTE      DPL1
      00000088H   SFRSYM    DATA     BIT       SSINT
      000000C0H   SFRSYM    DATA     BIT       PULLUP_RES_STATE
      00000088H.1 SFRSYM    DATA     BIT       USINT
      000000B8H   SFRSYM    DATA     BYTE      IP
      00000098H   SFRSYM    DATA     BIT       RI
      000000D0H.7 SFRSYM    DATA     BIT       CY
      00000098H.1 SFRSYM    DATA     BIT       TI
      000000EAH   SFRSYM    DATA     BYTE      MPTRX
      00000093H   SFRSYM    DATA     BYTE      DPX0
      00000095H   SFRSYM    DATA     BYTE      DPX1
      00000081H   SFRSYM    DATA     BYTE      SP
      000000D0H.2 SFRSYM    DATA     BIT       OV
      000000A1H   SFRSYM    DATA     BYTE      CBSL
      00000080H.5 SFRSYM    DATA     BIT       FSM_RESULT
      00000099H   SFRSYM    DATA     BYTE      SBUF
      00000087H   SFRSYM    DATA     BYTE      PCON
      00000088H.3 SFRSYM    DATA     BIT       MFLT
      00000098H   SFRSYM    DATA     BYTE      SCON
      00000089H   SFRSYM    DATA     BYTE      TMOD
      00000088H   SFRSYM    DATA     BYTE      TCON
      00000088H.1 SFRSYM    DATA     BIT       SINT
      000000E8H   SFRSYM    DATA     BYTE      EPSW
      000000F0H   SFRSYM    DATA     BYTE      B
      000000A2H   SFRSYM    DATA     BYTE      MPTR
      000000E0H   SFRSYM    DATA     BYTE      ACC
      00000088H.5 SFRSYM    DATA     BIT       TF0
      00000088H.7 SFRSYM    DATA     BIT       TF1
      0000008CH   SFRSYM    DATA     BYTE      TH0
      000000B2H   SFRSYM    DATA     BYTE      ISOCON
      0000008DH   SFRSYM    DATA     BYTE      TH1
      000000D8H   SFRSYM    DATA     BYTE      SPSW
      000000D0H   SFRSYM    DATA     BIT       P
      0000008AH   SFRSYM    DATA     BYTE      TL0
      0000008BH   SFRSYM    DATA     BYTE      TL1
      000000C0H   SFRSYM    DATA     BYTE      PROGIO
      000000D0H.3 SFRSYM    DATA     BIT       RS0
      00000088H.4 SFRSYM    DATA     BIT       TR0
      000000D0H.4 SFRSYM    DATA     BIT       RS1
      00000080H.1 SFRSYM    DATA     BIT       FSM_START
LX51 LINKER/LOCATER V3.65                                                             12/12/2006  14:05:45  PAGE 57


      00000088H.6 SFRSYM    DATA     BIT       TR1
      00000083H   SFRSYM    DATA     BYTE      DPH
      000000B4H   SFRSYM    DATA     BYTE      ISOTMR
      00000082H   SFRSYM    DATA     BYTE      DPL
      000000B0H   SFRSYM    DATA     BYTE      SECURITYSTATUS
      00000086H   SFRSYM    DATA     BYTE      DPS
      00000093H   SFRSYM    DATA     BYTE      DPX
      00000080H   SFRSYM    DATA     BYTE      NVFSMCON
      000000F7H   SFRSYM    DATA     BYTE      MFCON
      000000C9H   SFRSYM    DATA     BYTE      NvFsmMode
      000000D0H.5 SFRSYM    DATA     BIT       F0
      000000E8H.1 SFRSYM    DATA     BIT       F1
      000000D0H   SFRSYM    DATA     BYTE      PSW

      010017E1H   BLOCK     ECODE    ---       LVL=0
      010017E1H   LINE      ECODE    ---       #61
      010017E1H   LINE      ECODE    ---       #62
      010017E1H   LINE      ECODE    ---       #72
      010017E4H   LINE      ECODE    ---       #73
      010017ECH   LINE      ECODE    ---       #74
      010017F6H   LINE      ECODE    ---       #75
      01001800H   LINE      ECODE    ---       #76
      0100180AH   LINE      ECODE    ---       #81
      0100180AH   LINE      ECODE    ---       #85
      01001829H   LINE      ECODE    ---       #87
      0100182FH   LINE      ECODE    ---       #89
      01001832H   LINE      ECODE    ---       #91
      ---         BLOCKEND  ---      ---       LVL=0

      ---         MODULE    ---      ---       SOFTWARE_APIS_EXTENDED_ADDRESSING
      01000B5EH   PUBLIC    CODE     NEAR LAB  _FIRMWARE_WRITEEE
      01000B5EH   PUBLIC    CODE     NEAR LAB  _FIRMWARE_WRITEUCM
      01000B5EH   PUBLIC    CODE     NEAR LAB  FIRMWARE_WRITEEE
      01000B5EH   PUBLIC    CODE     NEAR LAB  FIRMWARE_WRITEUCM
      000000D0H.6 SFRSYM    DATA     BIT       AC
      000000E0H   SFRSYM    DATA     BYTE      ACC
      000000E8H   SFRSYM    DATA     BIT       AM
      000000F0H   SFRSYM    DATA     BYTE      B
      000000A1H   SFRSYM    DATA     BYTE      CBSL
      000000D0H.7 SFRSYM    DATA     BIT       CY
      00000083H   SFRSYM    DATA     BYTE      DPH
      00000083H   SFRSYM    DATA     BYTE      DPH0
      00000085H   SFRSYM    DATA     BYTE      DPH1
      00000082H   SFRSYM    DATA     BYTE      DPL
      00000082H   SFRSYM    DATA     BYTE      DPL0
      00000084H   SFRSYM    DATA     BYTE      DPL1
      00000086H   SFRSYM    DATA     BYTE      DPS
      00000093H   SFRSYM    DATA     BYTE      DPX
      00000093H   SFRSYM    DATA     BYTE      DPX0
      00000095H   SFRSYM    DATA     BYTE      DPX1
      000000E8H   SFRSYM    DATA     BYTE      EPSW
      000000D0H.5 SFRSYM    DATA     BIT       F0
      000000E8H.1 SFRSYM    DATA     BIT       F1
      00000080H   SFRSYM    DATA     BIT       FSM_FINISH
      00000080H.5 SFRSYM    DATA     BIT       FSM_RESULT
      00000080H.1 SFRSYM    DATA     BIT       FSM_START
      000000A8H   SFRSYM    DATA     BYTE      IE
      000000B8H   SFRSYM    DATA     BYTE      IP
      000000B2H   SFRSYM    DATA     BYTE      ISOCON
      000000B4H   SFRSYM    DATA     BYTE      ISOTMR
      000000F7H   SFRSYM    DATA     BYTE      MFCON
      00000088H.3 SFRSYM    DATA     BIT       MFLT
      000000A2H   SFRSYM    DATA     BYTE      MPTR
      000000EAH   SFRSYM    DATA     BYTE      MPTRX
      00000080H   SFRSYM    DATA     BYTE      NVFSMCON
LX51 LINKER/LOCATER V3.65                                                             12/12/2006  14:05:45  PAGE 58


      000000C9H   SFRSYM    DATA     BYTE      NVFSMMODE
      000000D0H.2 SFRSYM    DATA     BIT       OV
      000000D0H   SFRSYM    DATA     BIT       P
      00000087H   SFRSYM    DATA     BYTE      PCON
      000000C0H   SFRSYM    DATA     BYTE      PROGIO
      000000D0H   SFRSYM    DATA     BYTE      PSW
      000000C0H   SFRSYM    DATA     BIT       PULLUP_RES_STATE
      00000098H   SFRSYM    DATA     BIT       RI
      000000D0H.3 SFRSYM    DATA     BIT       RS0
      000000D0H.4 SFRSYM    DATA     BIT       RS1
      00000099H   SFRSYM    DATA     BYTE      SBUF
      00000098H   SFRSYM    DATA     BYTE      SCON
      000000B0H   SFRSYM    DATA     BYTE      SECURITYSTATUS
      00000088H.1 SFRSYM    DATA     BIT       SINT
      00000081H   SFRSYM    DATA     BYTE      SP
      000000D8H   SFRSYM    DATA     BYTE      SPSW
      00000088H   SFRSYM    DATA     BIT       SSINT
      00000088H   SFRSYM    DATA     BYTE      TCON
      00000088H.5 SFRSYM    DATA     BIT       TF0
      00000088H.7 SFRSYM    DATA     BIT       TF1
      0000008CH   SFRSYM    DATA     BYTE      TH0
      0000008DH   SFRSYM    DATA     BYTE      TH1
      00000098H.1 SFRSYM    DATA     BIT       TI
      0000008AH   SFRSYM    DATA     BYTE      TL0
      0000008BH   SFRSYM    DATA     BYTE      TL1
      00000089H   SFRSYM    DATA     BYTE      TMOD
      00000088H.4 SFRSYM    DATA     BIT       TR0
      00000088H.6 SFRSYM    DATA     BIT       TR1
      00000088H.1 SFRSYM    DATA     BIT       USINT
      01000B62H   SYMBOL    CODE     NEAR LAB  FIRMWARE_WRITENVM_LOOP
      01000B7AH   SYMBOL    CODE     NEAR LAB  FIRMWARE_WRITENVM_RETURN_FAIL
      01000B77H   SYMBOL    CODE     NEAR LAB  FIRMWARE_WRITENVM_RETURN_SUCCESS

      01000B5EH   BLOCK     CODE     NEAR LAB  LVL=0
      01000B5EH   LINE      CODE     ---       #40
      01000B60H   LINE      CODE     ---       #41
      01000B62H   LINE      CODE     ---       #44
      01000B63H   LINE      CODE     ---       #45
      01000B64H   LINE      CODE     ---       #47
      01000B68H   LINE      CODE     ---       #51
      01000B69H   LINE      CODE     ---       #52
      01000B6BH   LINE      CODE     ---       #53
      01000B6DH   LINE      CODE     ---       #55
      01000B6EH   LINE      CODE     ---       #56
      01000B6FH   LINE      CODE     ---       #58
      01000B71H   LINE      CODE     ---       #59
      01000B73H   LINE      CODE     ---       #60
      01000B75H   LINE      CODE     ---       #62
      01000B77H   LINE      CODE     ---       #65
      01000B79H   LINE      CODE     ---       #66
      01000B7AH   LINE      CODE     ---       #71
      01000B7CH   LINE      CODE     ---       #72
      ---         BLOCKEND  ---      ---       LVL=0

      ---         MODULE    ---      ---       GET_CHIP_ID
      01001B0DH   PUBLIC    ECODE    ---       Get_Chip_ID
      000000D0H.6 SFRSYM    DATA     BIT       AC
      00000080H   SFRSYM    DATA     BIT       FSM_FINISH
      00000083H   SFRSYM    DATA     BYTE      DPH0
      000000E8H   SFRSYM    DATA     BIT       AM
      000000A8H   SFRSYM    DATA     BYTE      IE
      00000085H   SFRSYM    DATA     BYTE      DPH1
      00000082H   SFRSYM    DATA     BYTE      DPL0
      00000084H   SFRSYM    DATA     BYTE      DPL1
      00000088H   SFRSYM    DATA     BIT       SSINT
LX51 LINKER/LOCATER V3.65                                                             12/12/2006  14:05:45  PAGE 59


      000000C0H   SFRSYM    DATA     BIT       PULLUP_RES_STATE
      00000088H.1 SFRSYM    DATA     BIT       USINT
      000000B8H   SFRSYM    DATA     BYTE      IP
      00000098H   SFRSYM    DATA     BIT       RI
      000000D0H.7 SFRSYM    DATA     BIT       CY
      00000098H.1 SFRSYM    DATA     BIT       TI
      000000EAH   SFRSYM    DATA     BYTE      MPTRX
      00000093H   SFRSYM    DATA     BYTE      DPX0
      00000095H   SFRSYM    DATA     BYTE      DPX1
      00000081H   SFRSYM    DATA     BYTE      SP
      000000D0H.2 SFRSYM    DATA     BIT       OV
      000000A1H   SFRSYM    DATA     BYTE      CBSL
      00000080H.5 SFRSYM    DATA     BIT       FSM_RESULT
      00000099H   SFRSYM    DATA     BYTE      SBUF
      00000087H   SFRSYM    DATA     BYTE      PCON
      00000088H.3 SFRSYM    DATA     BIT       MFLT
      00000098H   SFRSYM    DATA     BYTE      SCON
      00000089H   SFRSYM    DATA     BYTE      TMOD
      00000088H   SFRSYM    DATA     BYTE      TCON
      00000088H.1 SFRSYM    DATA     BIT       SINT
      000000E8H   SFRSYM    DATA     BYTE      EPSW
      000000F0H   SFRSYM    DATA     BYTE      B
      000000A2H   SFRSYM    DATA     BYTE      MPTR
      000000E0H   SFRSYM    DATA     BYTE      ACC
      00000088H.5 SFRSYM    DATA     BIT       TF0
      00000088H.7 SFRSYM    DATA     BIT       TF1
      0000008CH   SFRSYM    DATA     BYTE      TH0
      000000B2H   SFRSYM    DATA     BYTE      ISOCON
      0000008DH   SFRSYM    DATA     BYTE      TH1
      000000D8H   SFRSYM    DATA     BYTE      SPSW
      000000D0H   SFRSYM    DATA     BIT       P
      0000008AH   SFRSYM    DATA     BYTE      TL0
      0000008BH   SFRSYM    DATA     BYTE      TL1
      000000C0H   SFRSYM    DATA     BYTE      PROGIO
      000000D0H.3 SFRSYM    DATA     BIT       RS0
      00000088H.4 SFRSYM    DATA     BIT       TR0
      000000D0H.4 SFRSYM    DATA     BIT       RS1
      00000080H.1 SFRSYM    DATA     BIT       FSM_START
      00000088H.6 SFRSYM    DATA     BIT       TR1
      00000083H   SFRSYM    DATA     BYTE      DPH
      000000B4H   SFRSYM    DATA     BYTE      ISOTMR
      00000082H   SFRSYM    DATA     BYTE      DPL
      000000B0H   SFRSYM    DATA     BYTE      SECURITYSTATUS
      00000086H   SFRSYM    DATA     BYTE      DPS
      00000093H   SFRSYM    DATA     BYTE      DPX
      00000080H   SFRSYM    DATA     BYTE      NVFSMCON
      000000F7H   SFRSYM    DATA     BYTE      MFCON
      000000C9H   SFRSYM    DATA     BYTE      NvFsmMode
      000000D0H.5 SFRSYM    DATA     BIT       F0
      000000E8H.1 SFRSYM    DATA     BIT       F1
      000000D0H   SFRSYM    DATA     BYTE      PSW

      01001B0DH   BLOCK     ECODE    ---       LVL=0
      01001B0DH   LINE      ECODE    ---       #58
      01001B0DH   LINE      ECODE    ---       #59
      01001B0DH   LINE      ECODE    ---       #60
      01001B14H   LINE      ECODE    ---       #61
      01001B14H   LINE      ECODE    ---       #62
      01001B20H   LINE      ECODE    ---       #63
      01001B20H   LINE      ECODE    ---       #64
      01001B26H   LINE      ECODE    ---       #65
      01001B2BH   LINE      ECODE    ---       #67
      01001B30H   LINE      ECODE    ---       #69
      01001B37H   LINE      ECODE    ---       #71
      01001B3BH   LINE      ECODE    ---       #72
LX51 LINKER/LOCATER V3.65                                                             12/12/2006  14:05:45  PAGE 60


      01001B3DH   LINE      ECODE    ---       #75
      01001B3DH   LINE      ECODE    ---       #76
      01001B44H   LINE      ECODE    ---       #77
      01001B44H   LINE      ECODE    ---       #79
      01001B4BH   LINE      ECODE    ---       #81
      ---         BLOCKEND  ---      ---       LVL=0

      ---         MODULE    ---      ---       GET_CLOCK_SOURCE
      01001D1AH   PUBLIC    ECODE    ---       Get_Clock_Source
      000000D0H.6 SFRSYM    DATA     BIT       AC
      00000080H   SFRSYM    DATA     BIT       FSM_FINISH
      00000083H   SFRSYM    DATA     BYTE      DPH0
      000000E8H   SFRSYM    DATA     BIT       AM
      000000A8H   SFRSYM    DATA     BYTE      IE
      00000085H   SFRSYM    DATA     BYTE      DPH1
      00000082H   SFRSYM    DATA     BYTE      DPL0
      00000084H   SFRSYM    DATA     BYTE      DPL1
      00000088H   SFRSYM    DATA     BIT       SSINT
      000000C0H   SFRSYM    DATA     BIT       PULLUP_RES_STATE
      00000088H.1 SFRSYM    DATA     BIT       USINT
      000000B8H   SFRSYM    DATA     BYTE      IP
      00000098H   SFRSYM    DATA     BIT       RI
      000000D0H.7 SFRSYM    DATA     BIT       CY
      00000098H.1 SFRSYM    DATA     BIT       TI
      000000EAH   SFRSYM    DATA     BYTE      MPTRX
      00000093H   SFRSYM    DATA     BYTE      DPX0
      00000095H   SFRSYM    DATA     BYTE      DPX1
      00000081H   SFRSYM    DATA     BYTE      SP
      000000D0H.2 SFRSYM    DATA     BIT       OV
      000000A1H   SFRSYM    DATA     BYTE      CBSL
      00000080H.5 SFRSYM    DATA     BIT       FSM_RESULT
      00000099H   SFRSYM    DATA     BYTE      SBUF
      00000087H   SFRSYM    DATA     BYTE      PCON
      00000088H.3 SFRSYM    DATA     BIT       MFLT
      00000098H   SFRSYM    DATA     BYTE      SCON
      00000089H   SFRSYM    DATA     BYTE      TMOD
      00000088H   SFRSYM    DATA     BYTE      TCON
      00000088H.1 SFRSYM    DATA     BIT       SINT
      000000E8H   SFRSYM    DATA     BYTE      EPSW
      000000F0H   SFRSYM    DATA     BYTE      B
      000000A2H   SFRSYM    DATA     BYTE      MPTR
      000000E0H   SFRSYM    DATA     BYTE      ACC
      00000088H.5 SFRSYM    DATA     BIT       TF0
      00000088H.7 SFRSYM    DATA     BIT       TF1
      0000008CH   SFRSYM    DATA     BYTE      TH0
      000000B2H   SFRSYM    DATA     BYTE      ISOCON
      0000008DH   SFRSYM    DATA     BYTE      TH1
      000000D8H   SFRSYM    DATA     BYTE      SPSW
      000000D0H   SFRSYM    DATA     BIT       P
      0000008AH   SFRSYM    DATA     BYTE      TL0
      0000008BH   SFRSYM    DATA     BYTE      TL1
      000000C0H   SFRSYM    DATA     BYTE      PROGIO
      000000D0H.3 SFRSYM    DATA     BIT       RS0
      00000088H.4 SFRSYM    DATA     BIT       TR0
      000000D0H.4 SFRSYM    DATA     BIT       RS1
      00000080H.1 SFRSYM    DATA     BIT       FSM_START
      00000088H.6 SFRSYM    DATA     BIT       TR1
      00000083H   SFRSYM    DATA     BYTE      DPH
      000000B4H   SFRSYM    DATA     BYTE      ISOTMR
      00000082H   SFRSYM    DATA     BYTE      DPL
      000000B0H   SFRSYM    DATA     BYTE      SECURITYSTATUS
      00000086H   SFRSYM    DATA     BYTE      DPS
      00000093H   SFRSYM    DATA     BYTE      DPX
      00000080H   SFRSYM    DATA     BYTE      NVFSMCON
      000000F7H   SFRSYM    DATA     BYTE      MFCON
LX51 LINKER/LOCATER V3.65                                                             12/12/2006  14:05:45  PAGE 61


      000000C9H   SFRSYM    DATA     BYTE      NvFsmMode
      000000D0H.5 SFRSYM    DATA     BIT       F0
      000000E8H.1 SFRSYM    DATA     BIT       F1
      000000D0H   SFRSYM    DATA     BYTE      PSW

      01001D1AH   BLOCK     ECODE    ---       LVL=0
      01001D1AH   LINE      ECODE    ---       #53
      01001D1AH   LINE      ECODE    ---       #54
      01001D1AH   LINE      ECODE    ---       #55
      01001D20H   LINE      ECODE    ---       #56
      01001D20H   LINE      ECODE    ---       #58
      01001D26H   LINE      ECODE    ---       #60
      01001D2AH   LINE      ECODE    ---       #61
      01001D2CH   LINE      ECODE    ---       #63
      01001D2CH   LINE      ECODE    ---       #64
      01001D33H   LINE      ECODE    ---       #65
      01001D33H   LINE      ECODE    ---       #67
      01001D3AH   LINE      ECODE    ---       #69
      ---         BLOCKEND  ---      ---       LVL=0

      ---         MODULE    ---      ---       GET_DIAGNOSTIC_DATA
      01001B4CH   PUBLIC    ECODE    ---       Get_Diagnostic_Data
      000000D0H.6 SFRSYM    DATA     BIT       AC
      00000080H   SFRSYM    DATA     BIT       FSM_FINISH
      00000083H   SFRSYM    DATA     BYTE      DPH0
      000000E8H   SFRSYM    DATA     BIT       AM
      000000A8H   SFRSYM    DATA     BYTE      IE
      00000085H   SFRSYM    DATA     BYTE      DPH1
      00000082H   SFRSYM    DATA     BYTE      DPL0
      00000084H   SFRSYM    DATA     BYTE      DPL1
      00000088H   SFRSYM    DATA     BIT       SSINT
      000000C0H   SFRSYM    DATA     BIT       PULLUP_RES_STATE
      00000088H.1 SFRSYM    DATA     BIT       USINT
      000000B8H   SFRSYM    DATA     BYTE      IP
      00000098H   SFRSYM    DATA     BIT       RI
      000000D0H.7 SFRSYM    DATA     BIT       CY
      00000098H.1 SFRSYM    DATA     BIT       TI
      000000EAH   SFRSYM    DATA     BYTE      MPTRX
      00000093H   SFRSYM    DATA     BYTE      DPX0
      00000095H   SFRSYM    DATA     BYTE      DPX1
      00000081H   SFRSYM    DATA     BYTE      SP
      000000D0H.2 SFRSYM    DATA     BIT       OV
      000000A1H   SFRSYM    DATA     BYTE      CBSL
      00000080H.5 SFRSYM    DATA     BIT       FSM_RESULT
      00000099H   SFRSYM    DATA     BYTE      SBUF
      00000087H   SFRSYM    DATA     BYTE      PCON
      00000088H.3 SFRSYM    DATA     BIT       MFLT
      00000098H   SFRSYM    DATA     BYTE      SCON
      00000089H   SFRSYM    DATA     BYTE      TMOD
      00000088H   SFRSYM    DATA     BYTE      TCON
      00000088H.1 SFRSYM    DATA     BIT       SINT
      000000E8H   SFRSYM    DATA     BYTE      EPSW
      000000F0H   SFRSYM    DATA     BYTE      B
      000000A2H   SFRSYM    DATA     BYTE      MPTR
      000000E0H   SFRSYM    DATA     BYTE      ACC
      00000088H.5 SFRSYM    DATA     BIT       TF0
      00000088H.7 SFRSYM    DATA     BIT       TF1
      0000008CH   SFRSYM    DATA     BYTE      TH0
      000000B2H   SFRSYM    DATA     BYTE      ISOCON
      0000008DH   SFRSYM    DATA     BYTE      TH1
      000000D8H   SFRSYM    DATA     BYTE      SPSW
      000000D0H   SFRSYM    DATA     BIT       P
      0000008AH   SFRSYM    DATA     BYTE      TL0
      0000008BH   SFRSYM    DATA     BYTE      TL1
      000000C0H   SFRSYM    DATA     BYTE      PROGIO
LX51 LINKER/LOCATER V3.65                                                             12/12/2006  14:05:45  PAGE 62


      000000D0H.3 SFRSYM    DATA     BIT       RS0
      00000088H.4 SFRSYM    DATA     BIT       TR0
      000000D0H.4 SFRSYM    DATA     BIT       RS1
      00000080H.1 SFRSYM    DATA     BIT       FSM_START
      00000088H.6 SFRSYM    DATA     BIT       TR1
      00000083H   SFRSYM    DATA     BYTE      DPH
      000000B4H   SFRSYM    DATA     BYTE      ISOTMR
      00000082H   SFRSYM    DATA     BYTE      DPL
      000000B0H   SFRSYM    DATA     BYTE      SECURITYSTATUS
      00000086H   SFRSYM    DATA     BYTE      DPS
      00000093H   SFRSYM    DATA     BYTE      DPX
      00000080H   SFRSYM    DATA     BYTE      NVFSMCON
      000000F7H   SFRSYM    DATA     BYTE      MFCON
      000000C9H   SFRSYM    DATA     BYTE      NvFsmMode
      000000D0H.5 SFRSYM    DATA     BIT       F0
      000000E8H.1 SFRSYM    DATA     BIT       F1
      000000D0H   SFRSYM    DATA     BYTE      PSW

      01001B4CH   BLOCK     ECODE    ---       LVL=0
      01001B4CH   LINE      ECODE    ---       #59
      01001B4CH   LINE      ECODE    ---       #60
      01001B4CH   LINE      ECODE    ---       #61
      01001B53H   LINE      ECODE    ---       #62
      01001B53H   LINE      ECODE    ---       #63
      01001B5FH   LINE      ECODE    ---       #64
      01001B5FH   LINE      ECODE    ---       #65
      01001B65H   LINE      ECODE    ---       #66
      01001B6AH   LINE      ECODE    ---       #68
      01001B6FH   LINE      ECODE    ---       #70
      01001B76H   LINE      ECODE    ---       #72
      01001B7AH   LINE      ECODE    ---       #73
      01001B7CH   LINE      ECODE    ---       #75
      01001B7CH   LINE      ECODE    ---       #76
      01001B83H   LINE      ECODE    ---       #77
      01001B83H   LINE      ECODE    ---       #79
      01001B8AH   LINE      ECODE    ---       #81
      ---         BLOCKEND  ---      ---       LVL=0

      ---         MODULE    ---      ---       SET_SECURITY_MASK
      01001C87H   PUBLIC    ECODE    ---       Set_Security_Mask
      000000D0H.6 SFRSYM    DATA     BIT       AC
      00000080H   SFRSYM    DATA     BIT       FSM_FINISH
      00000083H   SFRSYM    DATA     BYTE      DPH0
      000000E8H   SFRSYM    DATA     BIT       AM
      000000A8H   SFRSYM    DATA     BYTE      IE
      00000085H   SFRSYM    DATA     BYTE      DPH1
      00000082H   SFRSYM    DATA     BYTE      DPL0
      00000084H   SFRSYM    DATA     BYTE      DPL1
      00000088H   SFRSYM    DATA     BIT       SSINT
      000000C0H   SFRSYM    DATA     BIT       PULLUP_RES_STATE
      00000088H.1 SFRSYM    DATA     BIT       USINT
      000000B8H   SFRSYM    DATA     BYTE      IP
      00000098H   SFRSYM    DATA     BIT       RI
      000000D0H.7 SFRSYM    DATA     BIT       CY
      00000098H.1 SFRSYM    DATA     BIT       TI
      000000EAH   SFRSYM    DATA     BYTE      MPTRX
      00000093H   SFRSYM    DATA     BYTE      DPX0
      00000095H   SFRSYM    DATA     BYTE      DPX1
      00000081H   SFRSYM    DATA     BYTE      SP
      000000D0H.2 SFRSYM    DATA     BIT       OV
      000000A1H   SFRSYM    DATA     BYTE      CBSL
      00000080H.5 SFRSYM    DATA     BIT       FSM_RESULT
      00000099H   SFRSYM    DATA     BYTE      SBUF
      00000087H   SFRSYM    DATA     BYTE      PCON
      00000088H.3 SFRSYM    DATA     BIT       MFLT
LX51 LINKER/LOCATER V3.65                                                             12/12/2006  14:05:45  PAGE 63


      00000098H   SFRSYM    DATA     BYTE      SCON
      00000089H   SFRSYM    DATA     BYTE      TMOD
      00000088H   SFRSYM    DATA     BYTE      TCON
      00000088H.1 SFRSYM    DATA     BIT       SINT
      000000E8H   SFRSYM    DATA     BYTE      EPSW
      000000F0H   SFRSYM    DATA     BYTE      B
      000000A2H   SFRSYM    DATA     BYTE      MPTR
      000000E0H   SFRSYM    DATA     BYTE      ACC
      00000088H.5 SFRSYM    DATA     BIT       TF0
      00000088H.7 SFRSYM    DATA     BIT       TF1
      0000008CH   SFRSYM    DATA     BYTE      TH0
      000000B2H   SFRSYM    DATA     BYTE      ISOCON
      0000008DH   SFRSYM    DATA     BYTE      TH1
      000000D8H   SFRSYM    DATA     BYTE      SPSW
      000000D0H   SFRSYM    DATA     BIT       P
      0000008AH   SFRSYM    DATA     BYTE      TL0
      0000008BH   SFRSYM    DATA     BYTE      TL1
      000000C0H   SFRSYM    DATA     BYTE      PROGIO
      000000D0H.3 SFRSYM    DATA     BIT       RS0
      00000088H.4 SFRSYM    DATA     BIT       TR0
      000000D0H.4 SFRSYM    DATA     BIT       RS1
      00000080H.1 SFRSYM    DATA     BIT       FSM_START
      00000088H.6 SFRSYM    DATA     BIT       TR1
      00000083H   SFRSYM    DATA     BYTE      DPH
      000000B4H   SFRSYM    DATA     BYTE      ISOTMR
      00000082H   SFRSYM    DATA     BYTE      DPL
      000000B0H   SFRSYM    DATA     BYTE      SECURITYSTATUS
      00000086H   SFRSYM    DATA     BYTE      DPS
      00000093H   SFRSYM    DATA     BYTE      DPX
      00000080H   SFRSYM    DATA     BYTE      NVFSMCON
      000000F7H   SFRSYM    DATA     BYTE      MFCON
      000000C9H   SFRSYM    DATA     BYTE      NvFsmMode
      000000D0H.5 SFRSYM    DATA     BIT       F0
      000000E8H.1 SFRSYM    DATA     BIT       F1
      000000D0H   SFRSYM    DATA     BYTE      PSW

      01001C87H   BLOCK     ECODE    ---       LVL=0
      01001C87H   LINE      ECODE    ---       #59
      01001C87H   LINE      ECODE    ---       #60
      01001C87H   LINE      ECODE    ---       #62
      01001C95H   LINE      ECODE    ---       #65
      01001C9AH   LINE      ECODE    ---       #66
      01001C9AH   LINE      ECODE    ---       #67
      01001C9FH   LINE      ECODE    ---       #68
      01001CA1H   LINE      ECODE    ---       #70
      01001CA1H   LINE      ECODE    ---       #71
      01001CA6H   LINE      ECODE    ---       #72
      01001CA6H   LINE      ECODE    ---       #74
      01001CADH   LINE      ECODE    ---       #76
      ---         BLOCKEND  ---      ---       LVL=0

      ---         MODULE    ---      ---       GET_CLOCK_CONTROL
      01001D3BH   PUBLIC    ECODE    ---       Get_Clock_Control
      000000D0H.6 SFRSYM    DATA     BIT       AC
      00000080H   SFRSYM    DATA     BIT       FSM_FINISH
      00000083H   SFRSYM    DATA     BYTE      DPH0
      000000E8H   SFRSYM    DATA     BIT       AM
      000000A8H   SFRSYM    DATA     BYTE      IE
      00000085H   SFRSYM    DATA     BYTE      DPH1
      00000082H   SFRSYM    DATA     BYTE      DPL0
      00000084H   SFRSYM    DATA     BYTE      DPL1
      00000088H   SFRSYM    DATA     BIT       SSINT
      000000C0H   SFRSYM    DATA     BIT       PULLUP_RES_STATE
      00000088H.1 SFRSYM    DATA     BIT       USINT
      000000B8H   SFRSYM    DATA     BYTE      IP
LX51 LINKER/LOCATER V3.65                                                             12/12/2006  14:05:45  PAGE 64


      00000098H   SFRSYM    DATA     BIT       RI
      000000D0H.7 SFRSYM    DATA     BIT       CY
      00000098H.1 SFRSYM    DATA     BIT       TI
      000000EAH   SFRSYM    DATA     BYTE      MPTRX
      00000093H   SFRSYM    DATA     BYTE      DPX0
      00000095H   SFRSYM    DATA     BYTE      DPX1
      00000081H   SFRSYM    DATA     BYTE      SP
      000000D0H.2 SFRSYM    DATA     BIT       OV
      000000A1H   SFRSYM    DATA     BYTE      CBSL
      00000080H.5 SFRSYM    DATA     BIT       FSM_RESULT
      00000099H   SFRSYM    DATA     BYTE      SBUF
      00000087H   SFRSYM    DATA     BYTE      PCON
      00000088H.3 SFRSYM    DATA     BIT       MFLT
      00000098H   SFRSYM    DATA     BYTE      SCON
      00000089H   SFRSYM    DATA     BYTE      TMOD
      00000088H   SFRSYM    DATA     BYTE      TCON
      00000088H.1 SFRSYM    DATA     BIT       SINT
      000000E8H   SFRSYM    DATA     BYTE      EPSW
      000000F0H   SFRSYM    DATA     BYTE      B
      000000A2H   SFRSYM    DATA     BYTE      MPTR
      000000E0H   SFRSYM    DATA     BYTE      ACC
      00000088H.5 SFRSYM    DATA     BIT       TF0
      00000088H.7 SFRSYM    DATA     BIT       TF1
      0000008CH   SFRSYM    DATA     BYTE      TH0
      000000B2H   SFRSYM    DATA     BYTE      ISOCON
      0000008DH   SFRSYM    DATA     BYTE      TH1
      000000D8H   SFRSYM    DATA     BYTE      SPSW
      000000D0H   SFRSYM    DATA     BIT       P
      0000008AH   SFRSYM    DATA     BYTE      TL0
      0000008BH   SFRSYM    DATA     BYTE      TL1
      000000C0H   SFRSYM    DATA     BYTE      PROGIO
      000000D0H.3 SFRSYM    DATA     BIT       RS0
      00000088H.4 SFRSYM    DATA     BIT       TR0
      000000D0H.4 SFRSYM    DATA     BIT       RS1
      00000080H.1 SFRSYM    DATA     BIT       FSM_START
      00000088H.6 SFRSYM    DATA     BIT       TR1
      00000083H   SFRSYM    DATA     BYTE      DPH
      000000B4H   SFRSYM    DATA     BYTE      ISOTMR
      00000082H   SFRSYM    DATA     BYTE      DPL
      000000B0H   SFRSYM    DATA     BYTE      SECURITYSTATUS
      00000086H   SFRSYM    DATA     BYTE      DPS
      00000093H   SFRSYM    DATA     BYTE      DPX
      00000080H   SFRSYM    DATA     BYTE      NVFSMCON
      000000F7H   SFRSYM    DATA     BYTE      MFCON
      000000C9H   SFRSYM    DATA     BYTE      NvFsmMode
      000000D0H.5 SFRSYM    DATA     BIT       F0
      000000E8H.1 SFRSYM    DATA     BIT       F1
      000000D0H   SFRSYM    DATA     BYTE      PSW

      01001D3BH   BLOCK     ECODE    ---       LVL=0
      01001D3BH   LINE      ECODE    ---       #53
      01001D3BH   LINE      ECODE    ---       #54
      01001D3BH   LINE      ECODE    ---       #55
      01001D41H   LINE      ECODE    ---       #56
      01001D41H   LINE      ECODE    ---       #58
      01001D47H   LINE      ECODE    ---       #60
      01001D4BH   LINE      ECODE    ---       #61
      01001D4DH   LINE      ECODE    ---       #63
      01001D4DH   LINE      ECODE    ---       #64
      01001D54H   LINE      ECODE    ---       #65
      01001D54H   LINE      ECODE    ---       #67
      01001D5BH   LINE      ECODE    ---       #69
      ---         BLOCKEND  ---      ---       LVL=0

      ---         MODULE    ---      ---       SET_SECURITY_ACTION
LX51 LINKER/LOCATER V3.65                                                             12/12/2006  14:05:45  PAGE 65


      01001CAEH   PUBLIC    ECODE    ---       Set_Security_Action
      000000D0H.6 SFRSYM    DATA     BIT       AC
      00000080H   SFRSYM    DATA     BIT       FSM_FINISH
      00000083H   SFRSYM    DATA     BYTE      DPH0
      000000E8H   SFRSYM    DATA     BIT       AM
      000000A8H   SFRSYM    DATA     BYTE      IE
      00000085H   SFRSYM    DATA     BYTE      DPH1
      00000082H   SFRSYM    DATA     BYTE      DPL0
      00000084H   SFRSYM    DATA     BYTE      DPL1
      00000088H   SFRSYM    DATA     BIT       SSINT
      000000C0H   SFRSYM    DATA     BIT       PULLUP_RES_STATE
      00000088H.1 SFRSYM    DATA     BIT       USINT
      000000B8H   SFRSYM    DATA     BYTE      IP
      00000098H   SFRSYM    DATA     BIT       RI
      000000D0H.7 SFRSYM    DATA     BIT       CY
      00000098H.1 SFRSYM    DATA     BIT       TI
      000000EAH   SFRSYM    DATA     BYTE      MPTRX
      00000093H   SFRSYM    DATA     BYTE      DPX0
      00000095H   SFRSYM    DATA     BYTE      DPX1
      00000081H   SFRSYM    DATA     BYTE      SP
      000000D0H.2 SFRSYM    DATA     BIT       OV
      000000A1H   SFRSYM    DATA     BYTE      CBSL
      00000080H.5 SFRSYM    DATA     BIT       FSM_RESULT
      00000099H   SFRSYM    DATA     BYTE      SBUF
      00000087H   SFRSYM    DATA     BYTE      PCON
      00000088H.3 SFRSYM    DATA     BIT       MFLT
      00000098H   SFRSYM    DATA     BYTE      SCON
      00000089H   SFRSYM    DATA     BYTE      TMOD
      00000088H   SFRSYM    DATA     BYTE      TCON
      00000088H.1 SFRSYM    DATA     BIT       SINT
      000000E8H   SFRSYM    DATA     BYTE      EPSW
      000000F0H   SFRSYM    DATA     BYTE      B
      000000A2H   SFRSYM    DATA     BYTE      MPTR
      000000E0H   SFRSYM    DATA     BYTE      ACC
      00000088H.5 SFRSYM    DATA     BIT       TF0
      00000088H.7 SFRSYM    DATA     BIT       TF1
      0000008CH   SFRSYM    DATA     BYTE      TH0
      000000B2H   SFRSYM    DATA     BYTE      ISOCON
      0000008DH   SFRSYM    DATA     BYTE      TH1
      000000D8H   SFRSYM    DATA     BYTE      SPSW
      000000D0H   SFRSYM    DATA     BIT       P
      0000008AH   SFRSYM    DATA     BYTE      TL0
      0000008BH   SFRSYM    DATA     BYTE      TL1
      000000C0H   SFRSYM    DATA     BYTE      PROGIO
      000000D0H.3 SFRSYM    DATA     BIT       RS0
      00000088H.4 SFRSYM    DATA     BIT       TR0
      000000D0H.4 SFRSYM    DATA     BIT       RS1
      00000080H.1 SFRSYM    DATA     BIT       FSM_START
      00000088H.6 SFRSYM    DATA     BIT       TR1
      00000083H   SFRSYM    DATA     BYTE      DPH
      000000B4H   SFRSYM    DATA     BYTE      ISOTMR
      00000082H   SFRSYM    DATA     BYTE      DPL
      000000B0H   SFRSYM    DATA     BYTE      SECURITYSTATUS
      00000086H   SFRSYM    DATA     BYTE      DPS
      00000093H   SFRSYM    DATA     BYTE      DPX
      00000080H   SFRSYM    DATA     BYTE      NVFSMCON
      000000F7H   SFRSYM    DATA     BYTE      MFCON
      000000C9H   SFRSYM    DATA     BYTE      NvFsmMode
      000000D0H.5 SFRSYM    DATA     BIT       F0
      000000E8H.1 SFRSYM    DATA     BIT       F1
      000000D0H   SFRSYM    DATA     BYTE      PSW

      01001CAEH   BLOCK     ECODE    ---       LVL=0
      01001CAEH   LINE      ECODE    ---       #59
      01001CAEH   LINE      ECODE    ---       #60
LX51 LINKER/LOCATER V3.65                                                             12/12/2006  14:05:45  PAGE 66


      01001CAEH   LINE      ECODE    ---       #62
      01001CBCH   LINE      ECODE    ---       #65
      01001CC1H   LINE      ECODE    ---       #66
      01001CC1H   LINE      ECODE    ---       #67
      01001CC6H   LINE      ECODE    ---       #68
      01001CC8H   LINE      ECODE    ---       #70
      01001CC8H   LINE      ECODE    ---       #71
      01001CCDH   LINE      ECODE    ---       #72
      01001CCDH   LINE      ECODE    ---       #74
      01001CD4H   LINE      ECODE    ---       #76
      ---         BLOCKEND  ---      ---       LVL=0

      ---         MODULE    ---      ---       GET_FIRMWARE_VERSION
      01001D5CH   PUBLIC    ECODE    ---       Get_Firmware_Version
      000000D0H.6 SFRSYM    DATA     BIT       AC
      00000080H   SFRSYM    DATA     BIT       FSM_FINISH
      00000083H   SFRSYM    DATA     BYTE      DPH0
      000000E8H   SFRSYM    DATA     BIT       AM
      000000A8H   SFRSYM    DATA     BYTE      IE
      00000085H   SFRSYM    DATA     BYTE      DPH1
      00000082H   SFRSYM    DATA     BYTE      DPL0
      00000084H   SFRSYM    DATA     BYTE      DPL1
      00000088H   SFRSYM    DATA     BIT       SSINT
      000000C0H   SFRSYM    DATA     BIT       PULLUP_RES_STATE
      00000088H.1 SFRSYM    DATA     BIT       USINT
      000000B8H   SFRSYM    DATA     BYTE      IP
      00000098H   SFRSYM    DATA     BIT       RI
      000000D0H.7 SFRSYM    DATA     BIT       CY
      00000098H.1 SFRSYM    DATA     BIT       TI
      000000EAH   SFRSYM    DATA     BYTE      MPTRX
      00000093H   SFRSYM    DATA     BYTE      DPX0
      00000095H   SFRSYM    DATA     BYTE      DPX1
      00000081H   SFRSYM    DATA     BYTE      SP
      000000D0H.2 SFRSYM    DATA     BIT       OV
      000000A1H   SFRSYM    DATA     BYTE      CBSL
      00000080H.5 SFRSYM    DATA     BIT       FSM_RESULT
      00000099H   SFRSYM    DATA     BYTE      SBUF
      00000087H   SFRSYM    DATA     BYTE      PCON
      00000088H.3 SFRSYM    DATA     BIT       MFLT
      00000098H   SFRSYM    DATA     BYTE      SCON
      00000089H   SFRSYM    DATA     BYTE      TMOD
      00000088H   SFRSYM    DATA     BYTE      TCON
      00000088H.1 SFRSYM    DATA     BIT       SINT
      000000E8H   SFRSYM    DATA     BYTE      EPSW
      000000F0H   SFRSYM    DATA     BYTE      B
      000000A2H   SFRSYM    DATA     BYTE      MPTR
      000000E0H   SFRSYM    DATA     BYTE      ACC
      00000088H.5 SFRSYM    DATA     BIT       TF0
      00000088H.7 SFRSYM    DATA     BIT       TF1
      0000008CH   SFRSYM    DATA     BYTE      TH0
      000000B2H   SFRSYM    DATA     BYTE      ISOCON
      0000008DH   SFRSYM    DATA     BYTE      TH1
      000000D8H   SFRSYM    DATA     BYTE      SPSW
      000000D0H   SFRSYM    DATA     BIT       P
      0000008AH   SFRSYM    DATA     BYTE      TL0
      0000008BH   SFRSYM    DATA     BYTE      TL1
      000000C0H   SFRSYM    DATA     BYTE      PROGIO
      000000D0H.3 SFRSYM    DATA     BIT       RS0
      00000088H.4 SFRSYM    DATA     BIT       TR0
      000000D0H.4 SFRSYM    DATA     BIT       RS1
      00000080H.1 SFRSYM    DATA     BIT       FSM_START
      00000088H.6 SFRSYM    DATA     BIT       TR1
      00000083H   SFRSYM    DATA     BYTE      DPH
      000000B4H   SFRSYM    DATA     BYTE      ISOTMR
      00000082H   SFRSYM    DATA     BYTE      DPL
LX51 LINKER/LOCATER V3.65                                                             12/12/2006  14:05:45  PAGE 67


      000000B0H   SFRSYM    DATA     BYTE      SECURITYSTATUS
      00000086H   SFRSYM    DATA     BYTE      DPS
      00000093H   SFRSYM    DATA     BYTE      DPX
      00000080H   SFRSYM    DATA     BYTE      NVFSMCON
      000000F7H   SFRSYM    DATA     BYTE      MFCON
      000000C9H   SFRSYM    DATA     BYTE      NvFsmMode
      000000D0H.5 SFRSYM    DATA     BIT       F0
      000000E8H.1 SFRSYM    DATA     BIT       F1
      000000D0H   SFRSYM    DATA     BYTE      PSW

      01001D5CH   BLOCK     ECODE    ---       LVL=0
      01001D5CH   LINE      ECODE    ---       #58
      01001D5CH   LINE      ECODE    ---       #59
      01001D5CH   LINE      ECODE    ---       #60
      01001D62H   LINE      ECODE    ---       #61
      01001D62H   LINE      ECODE    ---       #63
      01001D68H   LINE      ECODE    ---       #65
      01001D6CH   LINE      ECODE    ---       #66
      01001D6EH   LINE      ECODE    ---       #69
      01001D6EH   LINE      ECODE    ---       #70
      01001D75H   LINE      ECODE    ---       #71
      01001D75H   LINE      ECODE    ---       #73
      01001D7CH   LINE      ECODE    ---       #75
      ---         BLOCKEND  ---      ---       LVL=0

      ---         MODULE    ---      ---       LOAD_DPX
      01001EF1H   PUBLIC    ECODE    ---       Load_DPX
      000000D0H.6 SFRSYM    DATA     BIT       AC
      00000080H   SFRSYM    DATA     BIT       FSM_FINISH
      00000083H   SFRSYM    DATA     BYTE      DPH0
      000000E8H   SFRSYM    DATA     BIT       AM
      000000A8H   SFRSYM    DATA     BYTE      IE
      00000085H   SFRSYM    DATA     BYTE      DPH1
      00000082H   SFRSYM    DATA     BYTE      DPL0
      00000084H   SFRSYM    DATA     BYTE      DPL1
      00000088H   SFRSYM    DATA     BIT       SSINT
      000000C0H   SFRSYM    DATA     BIT       PULLUP_RES_STATE
      00000088H.1 SFRSYM    DATA     BIT       USINT
      000000B8H   SFRSYM    DATA     BYTE      IP
      00000098H   SFRSYM    DATA     BIT       RI
      000000D0H.7 SFRSYM    DATA     BIT       CY
      00000098H.1 SFRSYM    DATA     BIT       TI
      000000EAH   SFRSYM    DATA     BYTE      MPTRX
      00000093H   SFRSYM    DATA     BYTE      DPX0
      00000095H   SFRSYM    DATA     BYTE      DPX1
      00000081H   SFRSYM    DATA     BYTE      SP
      000000D0H.2 SFRSYM    DATA     BIT       OV
      000000A1H   SFRSYM    DATA     BYTE      CBSL
      00000080H.5 SFRSYM    DATA     BIT       FSM_RESULT
      00000099H   SFRSYM    DATA     BYTE      SBUF
      00000087H   SFRSYM    DATA     BYTE      PCON
      00000088H.3 SFRSYM    DATA     BIT       MFLT
      00000098H   SFRSYM    DATA     BYTE      SCON
      00000089H   SFRSYM    DATA     BYTE      TMOD
      00000088H   SFRSYM    DATA     BYTE      TCON
      00000088H.1 SFRSYM    DATA     BIT       SINT
      000000E8H   SFRSYM    DATA     BYTE      EPSW
      000000F0H   SFRSYM    DATA     BYTE      B
      000000A2H   SFRSYM    DATA     BYTE      MPTR
      000000E0H   SFRSYM    DATA     BYTE      ACC
      00000088H.5 SFRSYM    DATA     BIT       TF0
      00000088H.7 SFRSYM    DATA     BIT       TF1
      0000008CH   SFRSYM    DATA     BYTE      TH0
      000000B2H   SFRSYM    DATA     BYTE      ISOCON
      0000008DH   SFRSYM    DATA     BYTE      TH1
LX51 LINKER/LOCATER V3.65                                                             12/12/2006  14:05:45  PAGE 68


      000000D8H   SFRSYM    DATA     BYTE      SPSW
      000000D0H   SFRSYM    DATA     BIT       P
      0000008AH   SFRSYM    DATA     BYTE      TL0
      0000008BH   SFRSYM    DATA     BYTE      TL1
      000000C0H   SFRSYM    DATA     BYTE      PROGIO
      000000D0H.3 SFRSYM    DATA     BIT       RS0
      00000088H.4 SFRSYM    DATA     BIT       TR0
      000000D0H.4 SFRSYM    DATA     BIT       RS1
      00000080H.1 SFRSYM    DATA     BIT       FSM_START
      00000088H.6 SFRSYM    DATA     BIT       TR1
      00000083H   SFRSYM    DATA     BYTE      DPH
      000000B4H   SFRSYM    DATA     BYTE      ISOTMR
      00000082H   SFRSYM    DATA     BYTE      DPL
      000000B0H   SFRSYM    DATA     BYTE      SECURITYSTATUS
      00000086H   SFRSYM    DATA     BYTE      DPS
      00000093H   SFRSYM    DATA     BYTE      DPX
      00000080H   SFRSYM    DATA     BYTE      NVFSMCON
      000000F7H   SFRSYM    DATA     BYTE      MFCON
      000000C9H   SFRSYM    DATA     BYTE      NvFsmMode
      000000D0H.5 SFRSYM    DATA     BIT       F0
      000000E8H.1 SFRSYM    DATA     BIT       F1
      000000D0H   SFRSYM    DATA     BYTE      PSW

      01001EF1H   BLOCK     ECODE    ---       LVL=0
      01001EF1H   LINE      ECODE    ---       #56
      01001EF1H   LINE      ECODE    ---       #57
      01001EF1H   LINE      ECODE    ---       #59
      01001EF7H   LINE      ECODE    ---       #61
      01001EFBH   LINE      ECODE    ---       #63
      ---         BLOCKEND  ---      ---       LVL=0

      ---         MODULE    ---      ---       SET_CLOCK
      010018D5H   PUBLIC    ECODE    ---       Set_Clock
      000000D0H.6 SFRSYM    DATA     BIT       AC
      00000080H   SFRSYM    DATA     BIT       FSM_FINISH
      00000083H   SFRSYM    DATA     BYTE      DPH0
      000000E8H   SFRSYM    DATA     BIT       AM
      000000A8H   SFRSYM    DATA     BYTE      IE
      00000085H   SFRSYM    DATA     BYTE      DPH1
      00000082H   SFRSYM    DATA     BYTE      DPL0
      00000084H   SFRSYM    DATA     BYTE      DPL1
      00000088H   SFRSYM    DATA     BIT       SSINT
      000000C0H   SFRSYM    DATA     BIT       PULLUP_RES_STATE
      00000088H.1 SFRSYM    DATA     BIT       USINT
      000000B8H   SFRSYM    DATA     BYTE      IP
      00000098H   SFRSYM    DATA     BIT       RI
      000000D0H.7 SFRSYM    DATA     BIT       CY
      00000098H.1 SFRSYM    DATA     BIT       TI
      000000EAH   SFRSYM    DATA     BYTE      MPTRX
      00000093H   SFRSYM    DATA     BYTE      DPX0
      00000095H   SFRSYM    DATA     BYTE      DPX1
      00000081H   SFRSYM    DATA     BYTE      SP
      000000D0H.2 SFRSYM    DATA     BIT       OV
      000000A1H   SFRSYM    DATA     BYTE      CBSL
      00000080H.5 SFRSYM    DATA     BIT       FSM_RESULT
      00000099H   SFRSYM    DATA     BYTE      SBUF
      00000087H   SFRSYM    DATA     BYTE      PCON
      00000088H.3 SFRSYM    DATA     BIT       MFLT
      00000098H   SFRSYM    DATA     BYTE      SCON
      00000089H   SFRSYM    DATA     BYTE      TMOD
      00000088H   SFRSYM    DATA     BYTE      TCON
      00000088H.1 SFRSYM    DATA     BIT       SINT
      000000E8H   SFRSYM    DATA     BYTE      EPSW
      000000F0H   SFRSYM    DATA     BYTE      B
      000000A2H   SFRSYM    DATA     BYTE      MPTR
LX51 LINKER/LOCATER V3.65                                                             12/12/2006  14:05:45  PAGE 69


      000000E0H   SFRSYM    DATA     BYTE      ACC
      00000088H.5 SFRSYM    DATA     BIT       TF0
      00000088H.7 SFRSYM    DATA     BIT       TF1
      0000008CH   SFRSYM    DATA     BYTE      TH0
      000000B2H   SFRSYM    DATA     BYTE      ISOCON
      0000008DH   SFRSYM    DATA     BYTE      TH1
      000000D8H   SFRSYM    DATA     BYTE      SPSW
      000000D0H   SFRSYM    DATA     BIT       P
      0000008AH   SFRSYM    DATA     BYTE      TL0
      0000008BH   SFRSYM    DATA     BYTE      TL1
      000000C0H   SFRSYM    DATA     BYTE      PROGIO
      000000D0H.3 SFRSYM    DATA     BIT       RS0
      00000088H.4 SFRSYM    DATA     BIT       TR0
      000000D0H.4 SFRSYM    DATA     BIT       RS1
      00000080H.1 SFRSYM    DATA     BIT       FSM_START
      00000088H.6 SFRSYM    DATA     BIT       TR1
      00000083H   SFRSYM    DATA     BYTE      DPH
      000000B4H   SFRSYM    DATA     BYTE      ISOTMR
      00000082H   SFRSYM    DATA     BYTE      DPL
      000000B0H   SFRSYM    DATA     BYTE      SECURITYSTATUS
      00000086H   SFRSYM    DATA     BYTE      DPS
      00000093H   SFRSYM    DATA     BYTE      DPX
      00000080H   SFRSYM    DATA     BYTE      NVFSMCON
      000000F7H   SFRSYM    DATA     BYTE      MFCON
      000000C9H   SFRSYM    DATA     BYTE      NvFsmMode
      000000D0H.5 SFRSYM    DATA     BIT       F0
      000000E8H.1 SFRSYM    DATA     BIT       F1
      000000D0H   SFRSYM    DATA     BYTE      PSW

      010018D5H   BLOCK     ECODE    ---       LVL=0
      010018D5H   LINE      ECODE    ---       #63
      010018D5H   LINE      ECODE    ---       #64
      010018D5H   LINE      ECODE    ---       #65
      010018DCH   LINE      ECODE    ---       #66
      010018DCH   LINE      ECODE    ---       #67
      010018E0H   LINE      ECODE    ---       #68
      010018E2H   LINE      ECODE    ---       #70
      010018E2H   LINE      ECODE    ---       #72
      010018E9H   LINE      ECODE    ---       #76
      01001900H   LINE      ECODE    ---       #77
      01001900H   LINE      ECODE    ---       #78
      01001907H   LINE      ECODE    ---       #79
      01001909H   LINE      ECODE    ---       #81
      01001909H   LINE      ECODE    ---       #83
      01001910H   LINE      ECODE    ---       #85
      01001914H   LINE      ECODE    ---       #86
      01001914H   LINE      ECODE    ---       #87
      01001916H   LINE      ECODE    ---       #88
      01001918H   LINE      ECODE    ---       #90
      01001918H   LINE      ECODE    ---       #91
      0100191DH   LINE      ECODE    ---       #92
      0100191DH   LINE      ECODE    ---       #93
      0100191DH   LINE      ECODE    ---       #94
      0100191DH   LINE      ECODE    ---       #96
      01001924H   LINE      ECODE    ---       #98
      ---         BLOCKEND  ---      ---       LVL=0

      ---         MODULE    ---      ---       ERASE_256_UCM_EXTENDED_ADDRESSING
      01001B8BH   PUBLIC    ECODE    ---       Erase_256_UCM_Extended_Addressing
      000000D0H.6 SFRSYM    DATA     BIT       AC
      00000080H   SFRSYM    DATA     BIT       FSM_FINISH
      00000083H   SFRSYM    DATA     BYTE      DPH0
      000000E8H   SFRSYM    DATA     BIT       AM
      000000A8H   SFRSYM    DATA     BYTE      IE
      00000085H   SFRSYM    DATA     BYTE      DPH1
LX51 LINKER/LOCATER V3.65                                                             12/12/2006  14:05:45  PAGE 70


      00000082H   SFRSYM    DATA     BYTE      DPL0
      00000084H   SFRSYM    DATA     BYTE      DPL1
      00000088H   SFRSYM    DATA     BIT       SSINT
      000000C0H   SFRSYM    DATA     BIT       PULLUP_RES_STATE
      00000088H.1 SFRSYM    DATA     BIT       USINT
      000000B8H   SFRSYM    DATA     BYTE      IP
      00000098H   SFRSYM    DATA     BIT       RI
      000000D0H.7 SFRSYM    DATA     BIT       CY
      00000098H.1 SFRSYM    DATA     BIT       TI
      000000EAH   SFRSYM    DATA     BYTE      MPTRX
      00000093H   SFRSYM    DATA     BYTE      DPX0
      00000095H   SFRSYM    DATA     BYTE      DPX1
      00000081H   SFRSYM    DATA     BYTE      SP
      000000D0H.2 SFRSYM    DATA     BIT       OV
      000000A1H   SFRSYM    DATA     BYTE      CBSL
      00000080H.5 SFRSYM    DATA     BIT       FSM_RESULT
      00000099H   SFRSYM    DATA     BYTE      SBUF
      00000087H   SFRSYM    DATA     BYTE      PCON
      00000088H.3 SFRSYM    DATA     BIT       MFLT
      00000098H   SFRSYM    DATA     BYTE      SCON
      00000089H   SFRSYM    DATA     BYTE      TMOD
      00000088H   SFRSYM    DATA     BYTE      TCON
      00000088H.1 SFRSYM    DATA     BIT       SINT
      000000E8H   SFRSYM    DATA     BYTE      EPSW
      000000F0H   SFRSYM    DATA     BYTE      B
      000000A2H   SFRSYM    DATA     BYTE      MPTR
      000000E0H   SFRSYM    DATA     BYTE      ACC
      00000088H.5 SFRSYM    DATA     BIT       TF0
      00000088H.7 SFRSYM    DATA     BIT       TF1
      0000008CH   SFRSYM    DATA     BYTE      TH0
      000000B2H   SFRSYM    DATA     BYTE      ISOCON
      0000008DH   SFRSYM    DATA     BYTE      TH1
      000000D8H   SFRSYM    DATA     BYTE      SPSW
      000000D0H   SFRSYM    DATA     BIT       P
      0000008AH   SFRSYM    DATA     BYTE      TL0
      0000008BH   SFRSYM    DATA     BYTE      TL1
      000000C0H   SFRSYM    DATA     BYTE      PROGIO
      000000D0H.3 SFRSYM    DATA     BIT       RS0
      00000088H.4 SFRSYM    DATA     BIT       TR0
      000000D0H.4 SFRSYM    DATA     BIT       RS1
      00000080H.1 SFRSYM    DATA     BIT       FSM_START
      00000088H.6 SFRSYM    DATA     BIT       TR1
      00000083H   SFRSYM    DATA     BYTE      DPH
      000000B4H   SFRSYM    DATA     BYTE      ISOTMR
      00000082H   SFRSYM    DATA     BYTE      DPL
      000000B0H   SFRSYM    DATA     BYTE      SECURITYSTATUS
      00000086H   SFRSYM    DATA     BYTE      DPS
      00000093H   SFRSYM    DATA     BYTE      DPX
      00000080H   SFRSYM    DATA     BYTE      NVFSMCON
      000000F7H   SFRSYM    DATA     BYTE      MFCON
      000000C9H   SFRSYM    DATA     BYTE      NvFsmMode
      000000D0H.5 SFRSYM    DATA     BIT       F0
      000000E8H.1 SFRSYM    DATA     BIT       F1
      000000D0H   SFRSYM    DATA     BYTE      PSW

      01001B8BH   BLOCK     ECODE    ---       LVL=0
      01001B8BH   LINE      ECODE    ---       #62
      01001B8BH   LINE      ECODE    ---       #63
      01001B8BH   LINE      ECODE    ---       #64
      01001B92H   LINE      ECODE    ---       #65
      01001B92H   LINE      ECODE    ---       #68
      01001B99H   LINE      ECODE    ---       #71
      01001BA6H   LINE      ECODE    ---       #74
      01001BABH   LINE      ECODE    ---       #75
      01001BABH   LINE      ECODE    ---       #76
LX51 LINKER/LOCATER V3.65                                                             12/12/2006  14:05:45  PAGE 71


      01001BB0H   LINE      ECODE    ---       #77
      01001BB2H   LINE      ECODE    ---       #79
      01001BB2H   LINE      ECODE    ---       #80
      01001BB4H   LINE      ECODE    ---       #81
      01001BB4H   LINE      ECODE    ---       #82
      01001BB6H   LINE      ECODE    ---       #85
      01001BB6H   LINE      ECODE    ---       #86
      01001BBDH   LINE      ECODE    ---       #87
      01001BBDH   LINE      ECODE    ---       #89
      01001BC4H   LINE      ECODE    ---       #91
      ---         BLOCKEND  ---      ---       LVL=0

      ---         MODULE    ---      ---       ERASE_512_UCM_EXTENDED_ADDRESSING
      01001BC5H   PUBLIC    ECODE    ---       Erase_512_UCM_Extended_Addressing
      000000D0H.6 SFRSYM    DATA     BIT       AC
      00000080H   SFRSYM    DATA     BIT       FSM_FINISH
      00000083H   SFRSYM    DATA     BYTE      DPH0
      000000E8H   SFRSYM    DATA     BIT       AM
      000000A8H   SFRSYM    DATA     BYTE      IE
      00000085H   SFRSYM    DATA     BYTE      DPH1
      00000082H   SFRSYM    DATA     BYTE      DPL0
      00000084H   SFRSYM    DATA     BYTE      DPL1
      00000088H   SFRSYM    DATA     BIT       SSINT
      000000C0H   SFRSYM    DATA     BIT       PULLUP_RES_STATE
      00000088H.1 SFRSYM    DATA     BIT       USINT
      000000B8H   SFRSYM    DATA     BYTE      IP
      00000098H   SFRSYM    DATA     BIT       RI
      000000D0H.7 SFRSYM    DATA     BIT       CY
      00000098H.1 SFRSYM    DATA     BIT       TI
      000000EAH   SFRSYM    DATA     BYTE      MPTRX
      00000093H   SFRSYM    DATA     BYTE      DPX0
      00000095H   SFRSYM    DATA     BYTE      DPX1
      00000081H   SFRSYM    DATA     BYTE      SP
      000000D0H.2 SFRSYM    DATA     BIT       OV
      000000A1H   SFRSYM    DATA     BYTE      CBSL
      00000080H.5 SFRSYM    DATA     BIT       FSM_RESULT
      00000099H   SFRSYM    DATA     BYTE      SBUF
      00000087H   SFRSYM    DATA     BYTE      PCON
      00000088H.3 SFRSYM    DATA     BIT       MFLT
      00000098H   SFRSYM    DATA     BYTE      SCON
      00000089H   SFRSYM    DATA     BYTE      TMOD
      00000088H   SFRSYM    DATA     BYTE      TCON
      00000088H.1 SFRSYM    DATA     BIT       SINT
      000000E8H   SFRSYM    DATA     BYTE      EPSW
      000000F0H   SFRSYM    DATA     BYTE      B
      000000A2H   SFRSYM    DATA     BYTE      MPTR
      000000E0H   SFRSYM    DATA     BYTE      ACC
      00000088H.5 SFRSYM    DATA     BIT       TF0
      00000088H.7 SFRSYM    DATA     BIT       TF1
      0000008CH   SFRSYM    DATA     BYTE      TH0
      000000B2H   SFRSYM    DATA     BYTE      ISOCON
      0000008DH   SFRSYM    DATA     BYTE      TH1
      000000D8H   SFRSYM    DATA     BYTE      SPSW
      000000D0H   SFRSYM    DATA     BIT       P
      0000008AH   SFRSYM    DATA     BYTE      TL0
      0000008BH   SFRSYM    DATA     BYTE      TL1
      000000C0H   SFRSYM    DATA     BYTE      PROGIO
      000000D0H.3 SFRSYM    DATA     BIT       RS0
      00000088H.4 SFRSYM    DATA     BIT       TR0
      000000D0H.4 SFRSYM    DATA     BIT       RS1
      00000080H.1 SFRSYM    DATA     BIT       FSM_START
      00000088H.6 SFRSYM    DATA     BIT       TR1
      00000083H   SFRSYM    DATA     BYTE      DPH
      000000B4H   SFRSYM    DATA     BYTE      ISOTMR
      00000082H   SFRSYM    DATA     BYTE      DPL
LX51 LINKER/LOCATER V3.65                                                             12/12/2006  14:05:45  PAGE 72


      000000B0H   SFRSYM    DATA     BYTE      SECURITYSTATUS
      00000086H   SFRSYM    DATA     BYTE      DPS
      00000093H   SFRSYM    DATA     BYTE      DPX
      00000080H   SFRSYM    DATA     BYTE      NVFSMCON
      000000F7H   SFRSYM    DATA     BYTE      MFCON
      000000C9H   SFRSYM    DATA     BYTE      NvFsmMode
      000000D0H.5 SFRSYM    DATA     BIT       F0
      000000E8H.1 SFRSYM    DATA     BIT       F1
      000000D0H   SFRSYM    DATA     BYTE      PSW

      01001BC5H   BLOCK     ECODE    ---       LVL=0
      01001BC5H   LINE      ECODE    ---       #62
      01001BC5H   LINE      ECODE    ---       #63
      01001BC5H   LINE      ECODE    ---       #64
      01001BCCH   LINE      ECODE    ---       #65
      01001BCCH   LINE      ECODE    ---       #68
      01001BD3H   LINE      ECODE    ---       #71
      01001BE0H   LINE      ECODE    ---       #74
      01001BE5H   LINE      ECODE    ---       #75
      01001BE5H   LINE      ECODE    ---       #76
      01001BEAH   LINE      ECODE    ---       #77
      01001BECH   LINE      ECODE    ---       #79
      01001BECH   LINE      ECODE    ---       #80
      01001BEEH   LINE      ECODE    ---       #81
      01001BEEH   LINE      ECODE    ---       #82
      01001BF0H   LINE      ECODE    ---       #85
      01001BF0H   LINE      ECODE    ---       #86
      01001BF7H   LINE      ECODE    ---       #87
      01001BF7H   LINE      ECODE    ---       #89
      01001BFEH   LINE      ECODE    ---       #91
      ---         BLOCKEND  ---      ---       LVL=0

      ---         MODULE    ---      ---       WRITE_BYTE_UCM_EXTENDED_ADDRESSING
      01001A47H   PUBLIC    ECODE    ---       Write_Byte_UCM_Extended_Addressing
      000000D0H.6 SFRSYM    DATA     BIT       AC
      00000080H   SFRSYM    DATA     BIT       FSM_FINISH
      00000083H   SFRSYM    DATA     BYTE      DPH0
      000000E8H   SFRSYM    DATA     BIT       AM
      000000A8H   SFRSYM    DATA     BYTE      IE
      00000085H   SFRSYM    DATA     BYTE      DPH1
      00000082H   SFRSYM    DATA     BYTE      DPL0
      00000084H   SFRSYM    DATA     BYTE      DPL1
      00000088H   SFRSYM    DATA     BIT       SSINT
      000000C0H   SFRSYM    DATA     BIT       PULLUP_RES_STATE
      00000088H.1 SFRSYM    DATA     BIT       USINT
      000000B8H   SFRSYM    DATA     BYTE      IP
      00000098H   SFRSYM    DATA     BIT       RI
      000000D0H.7 SFRSYM    DATA     BIT       CY
      00000098H.1 SFRSYM    DATA     BIT       TI
      000000EAH   SFRSYM    DATA     BYTE      MPTRX
      00000093H   SFRSYM    DATA     BYTE      DPX0
      00000095H   SFRSYM    DATA     BYTE      DPX1
      00000081H   SFRSYM    DATA     BYTE      SP
      000000D0H.2 SFRSYM    DATA     BIT       OV
      000000A1H   SFRSYM    DATA     BYTE      CBSL
      00000080H.5 SFRSYM    DATA     BIT       FSM_RESULT
      00000099H   SFRSYM    DATA     BYTE      SBUF
      00000087H   SFRSYM    DATA     BYTE      PCON
      00000088H.3 SFRSYM    DATA     BIT       MFLT
      00000098H   SFRSYM    DATA     BYTE      SCON
      00000089H   SFRSYM    DATA     BYTE      TMOD
      00000088H   SFRSYM    DATA     BYTE      TCON
      00000088H.1 SFRSYM    DATA     BIT       SINT
      000000E8H   SFRSYM    DATA     BYTE      EPSW
      000000F0H   SFRSYM    DATA     BYTE      B
LX51 LINKER/LOCATER V3.65                                                             12/12/2006  14:05:45  PAGE 73


      000000A2H   SFRSYM    DATA     BYTE      MPTR
      000000E0H   SFRSYM    DATA     BYTE      ACC
      00000088H.5 SFRSYM    DATA     BIT       TF0
      00000088H.7 SFRSYM    DATA     BIT       TF1
      0000008CH   SFRSYM    DATA     BYTE      TH0
      000000B2H   SFRSYM    DATA     BYTE      ISOCON
      0000008DH   SFRSYM    DATA     BYTE      TH1
      000000D8H   SFRSYM    DATA     BYTE      SPSW
      000000D0H   SFRSYM    DATA     BIT       P
      0000008AH   SFRSYM    DATA     BYTE      TL0
      0000008BH   SFRSYM    DATA     BYTE      TL1
      000000C0H   SFRSYM    DATA     BYTE      PROGIO
      000000D0H.3 SFRSYM    DATA     BIT       RS0
      00000088H.4 SFRSYM    DATA     BIT       TR0
      000000D0H.4 SFRSYM    DATA     BIT       RS1
      00000080H.1 SFRSYM    DATA     BIT       FSM_START
      00000088H.6 SFRSYM    DATA     BIT       TR1
      00000083H   SFRSYM    DATA     BYTE      DPH
      000000B4H   SFRSYM    DATA     BYTE      ISOTMR
      00000082H   SFRSYM    DATA     BYTE      DPL
      000000B0H   SFRSYM    DATA     BYTE      SECURITYSTATUS
      00000086H   SFRSYM    DATA     BYTE      DPS
      00000093H   SFRSYM    DATA     BYTE      DPX
      00000080H   SFRSYM    DATA     BYTE      NVFSMCON
      000000F7H   SFRSYM    DATA     BYTE      MFCON
      000000C9H   SFRSYM    DATA     BYTE      NvFsmMode
      000000D0H.5 SFRSYM    DATA     BIT       F0
      000000E8H.1 SFRSYM    DATA     BIT       F1
      000000D0H   SFRSYM    DATA     BYTE      PSW

      01001A47H   BLOCK     ECODE    ---       LVL=0
      01001A47H   LINE      ECODE    ---       #63
      01001A47H   LINE      ECODE    ---       #64
      01001A47H   LINE      ECODE    ---       #65
      01001A4EH   LINE      ECODE    ---       #66
      01001A4EH   LINE      ECODE    ---       #69
      01001A55H   LINE      ECODE    ---       #72
      01001A5DH   LINE      ECODE    ---       #75
      01001A6AH   LINE      ECODE    ---       #78
      01001A6FH   LINE      ECODE    ---       #79
      01001A6FH   LINE      ECODE    ---       #80
      01001A74H   LINE      ECODE    ---       #81
      01001A76H   LINE      ECODE    ---       #83
      01001A76H   LINE      ECODE    ---       #84
      01001A78H   LINE      ECODE    ---       #85
      01001A78H   LINE      ECODE    ---       #86
      01001A7AH   LINE      ECODE    ---       #89
      01001A7AH   LINE      ECODE    ---       #90
      01001A81H   LINE      ECODE    ---       #91
      01001A81H   LINE      ECODE    ---       #93
      01001A88H   LINE      ECODE    ---       #95
      ---         BLOCKEND  ---      ---       LVL=0

      ---         MODULE    ---      ---       GET_RANDOM_NUMBER
      01001EB6H   PUBLIC    ECODE    ---       Get_Random_Number
      000000D0H.6 SFRSYM    DATA     BIT       AC
      00000080H   SFRSYM    DATA     BIT       FSM_FINISH
      00000083H   SFRSYM    DATA     BYTE      DPH0
      000000E8H   SFRSYM    DATA     BIT       AM
      000000A8H   SFRSYM    DATA     BYTE      IE
      00000085H   SFRSYM    DATA     BYTE      DPH1
      00000082H   SFRSYM    DATA     BYTE      DPL0
      00000084H   SFRSYM    DATA     BYTE      DPL1
      00000088H   SFRSYM    DATA     BIT       SSINT
      000000C0H   SFRSYM    DATA     BIT       PULLUP_RES_STATE
LX51 LINKER/LOCATER V3.65                                                             12/12/2006  14:05:45  PAGE 74


      00000088H.1 SFRSYM    DATA     BIT       USINT
      000000B8H   SFRSYM    DATA     BYTE      IP
      00000098H   SFRSYM    DATA     BIT       RI
      000000D0H.7 SFRSYM    DATA     BIT       CY
      00000098H.1 SFRSYM    DATA     BIT       TI
      000000EAH   SFRSYM    DATA     BYTE      MPTRX
      00000093H   SFRSYM    DATA     BYTE      DPX0
      00000095H   SFRSYM    DATA     BYTE      DPX1
      00000081H   SFRSYM    DATA     BYTE      SP
      000000D0H.2 SFRSYM    DATA     BIT       OV
      000000A1H   SFRSYM    DATA     BYTE      CBSL
      00000080H.5 SFRSYM    DATA     BIT       FSM_RESULT
      00000099H   SFRSYM    DATA     BYTE      SBUF
      00000087H   SFRSYM    DATA     BYTE      PCON
      00000088H.3 SFRSYM    DATA     BIT       MFLT
      00000098H   SFRSYM    DATA     BYTE      SCON
      00000089H   SFRSYM    DATA     BYTE      TMOD
      00000088H   SFRSYM    DATA     BYTE      TCON
      00000088H.1 SFRSYM    DATA     BIT       SINT
      000000E8H   SFRSYM    DATA     BYTE      EPSW
      000000F0H   SFRSYM    DATA     BYTE      B
      000000A2H   SFRSYM    DATA     BYTE      MPTR
      000000E0H   SFRSYM    DATA     BYTE      ACC
      00000088H.5 SFRSYM    DATA     BIT       TF0
      00000088H.7 SFRSYM    DATA     BIT       TF1
      0000008CH   SFRSYM    DATA     BYTE      TH0
      000000B2H   SFRSYM    DATA     BYTE      ISOCON
      0000008DH   SFRSYM    DATA     BYTE      TH1
      000000D8H   SFRSYM    DATA     BYTE      SPSW
      000000D0H   SFRSYM    DATA     BIT       P
      0000008AH   SFRSYM    DATA     BYTE      TL0
      0000008BH   SFRSYM    DATA     BYTE      TL1
      000000C0H   SFRSYM    DATA     BYTE      PROGIO
      000000D0H.3 SFRSYM    DATA     BIT       RS0
      00000088H.4 SFRSYM    DATA     BIT       TR0
      000000D0H.4 SFRSYM    DATA     BIT       RS1
      00000080H.1 SFRSYM    DATA     BIT       FSM_START
      00000088H.6 SFRSYM    DATA     BIT       TR1
      00000083H   SFRSYM    DATA     BYTE      DPH
      000000B4H   SFRSYM    DATA     BYTE      ISOTMR
      00000082H   SFRSYM    DATA     BYTE      DPL
      000000B0H   SFRSYM    DATA     BYTE      SECURITYSTATUS
      00000086H   SFRSYM    DATA     BYTE      DPS
      00000093H   SFRSYM    DATA     BYTE      DPX
      00000080H   SFRSYM    DATA     BYTE      NVFSMCON
      000000F7H   SFRSYM    DATA     BYTE      MFCON
      000000C9H   SFRSYM    DATA     BYTE      NvFsmMode
      000000D0H.5 SFRSYM    DATA     BIT       F0
      000000E8H.1 SFRSYM    DATA     BIT       F1
      000000D0H   SFRSYM    DATA     BYTE      PSW

      01001EB6H   BLOCK     ECODE    ---       LVL=0
      01001EB6H   LINE      ECODE    ---       #57
      01001EB6H   LINE      ECODE    ---       #58
      01001EB6H   LINE      ECODE    ---       #60
      01001EB6H   LINE      ECODE    ---       #61
      01001EBCH   LINE      ECODE    ---       #62
      01001EC2H   LINE      ECODE    ---       #64
      01001EC5H   LINE      ECODE    ---       #66
      ---         BLOCKEND  ---      ---       LVL=0

      ---         MODULE    ---      ---       SET_EXECUTE_ONLY_STATUS
      01001A89H   PUBLIC    ECODE    ---       Set_Execute_Only_Status
      000000D0H.6 SFRSYM    DATA     BIT       AC
      00000080H   SFRSYM    DATA     BIT       FSM_FINISH
LX51 LINKER/LOCATER V3.65                                                             12/12/2006  14:05:45  PAGE 75


      00000083H   SFRSYM    DATA     BYTE      DPH0
      000000E8H   SFRSYM    DATA     BIT       AM
      000000A8H   SFRSYM    DATA     BYTE      IE
      00000085H   SFRSYM    DATA     BYTE      DPH1
      00000082H   SFRSYM    DATA     BYTE      DPL0
      00000084H   SFRSYM    DATA     BYTE      DPL1
      00000088H   SFRSYM    DATA     BIT       SSINT
      000000C0H   SFRSYM    DATA     BIT       PULLUP_RES_STATE
      00000088H.1 SFRSYM    DATA     BIT       USINT
      000000B8H   SFRSYM    DATA     BYTE      IP
      00000098H   SFRSYM    DATA     BIT       RI
      000000D0H.7 SFRSYM    DATA     BIT       CY
      00000098H.1 SFRSYM    DATA     BIT       TI
      000000EAH   SFRSYM    DATA     BYTE      MPTRX
      00000093H   SFRSYM    DATA     BYTE      DPX0
      00000095H   SFRSYM    DATA     BYTE      DPX1
      00000081H   SFRSYM    DATA     BYTE      SP
      000000D0H.2 SFRSYM    DATA     BIT       OV
      000000A1H   SFRSYM    DATA     BYTE      CBSL
      00000080H.5 SFRSYM    DATA     BIT       FSM_RESULT
      00000099H   SFRSYM    DATA     BYTE      SBUF
      00000087H   SFRSYM    DATA     BYTE      PCON
      00000088H.3 SFRSYM    DATA     BIT       MFLT
      00000098H   SFRSYM    DATA     BYTE      SCON
      00000089H   SFRSYM    DATA     BYTE      TMOD
      00000088H   SFRSYM    DATA     BYTE      TCON
      00000088H.1 SFRSYM    DATA     BIT       SINT
      000000E8H   SFRSYM    DATA     BYTE      EPSW
      000000F0H   SFRSYM    DATA     BYTE      B
      000000A2H   SFRSYM    DATA     BYTE      MPTR
      000000E0H   SFRSYM    DATA     BYTE      ACC
      00000088H.5 SFRSYM    DATA     BIT       TF0
      00000088H.7 SFRSYM    DATA     BIT       TF1
      0000008CH   SFRSYM    DATA     BYTE      TH0
      000000B2H   SFRSYM    DATA     BYTE      ISOCON
      0000008DH   SFRSYM    DATA     BYTE      TH1
      000000D8H   SFRSYM    DATA     BYTE      SPSW
      000000D0H   SFRSYM    DATA     BIT       P
      0000008AH   SFRSYM    DATA     BYTE      TL0
      0000008BH   SFRSYM    DATA     BYTE      TL1
      000000C0H   SFRSYM    DATA     BYTE      PROGIO
      000000D0H.3 SFRSYM    DATA     BIT       RS0
      00000088H.4 SFRSYM    DATA     BIT       TR0
      000000D0H.4 SFRSYM    DATA     BIT       RS1
      00000080H.1 SFRSYM    DATA     BIT       FSM_START
      00000088H.6 SFRSYM    DATA     BIT       TR1
      00000083H   SFRSYM    DATA     BYTE      DPH
      000000B4H   SFRSYM    DATA     BYTE      ISOTMR
      00000082H   SFRSYM    DATA     BYTE      DPL
      000000B0H   SFRSYM    DATA     BYTE      SECURITYSTATUS
      00000086H   SFRSYM    DATA     BYTE      DPS
      00000093H   SFRSYM    DATA     BYTE      DPX
      00000080H   SFRSYM    DATA     BYTE      NVFSMCON
      000000F7H   SFRSYM    DATA     BYTE      MFCON
      000000C9H   SFRSYM    DATA     BYTE      NvFsmMode
      000000D0H.5 SFRSYM    DATA     BIT       F0
      000000E8H.1 SFRSYM    DATA     BIT       F1
      000000D0H   SFRSYM    DATA     BYTE      PSW

      01001A89H   BLOCK     ECODE    ---       LVL=0
      01001A89H   LINE      ECODE    ---       #64
      01001A89H   LINE      ECODE    ---       #65
      01001A89H   LINE      ECODE    ---       #66
      01001A90H   LINE      ECODE    ---       #67
      01001A90H   LINE      ECODE    ---       #68
LX51 LINKER/LOCATER V3.65                                                             12/12/2006  14:05:45  PAGE 76


      01001A97H   LINE      ECODE    ---       #71
      01001AACH   LINE      ECODE    ---       #74
      01001AB1H   LINE      ECODE    ---       #75
      01001AB1H   LINE      ECODE    ---       #76
      01001AB6H   LINE      ECODE    ---       #77
      01001AB8H   LINE      ECODE    ---       #79
      01001AB8H   LINE      ECODE    ---       #80
      01001ABAH   LINE      ECODE    ---       #81
      01001ABAH   LINE      ECODE    ---       #82
      01001ABCH   LINE      ECODE    ---       #85
      01001ABCH   LINE      ECODE    ---       #86
      01001AC3H   LINE      ECODE    ---       #87
      01001AC3H   LINE      ECODE    ---       #89
      01001ACAH   LINE      ECODE    ---       #91
      ---         BLOCKEND  ---      ---       LVL=0

      ---         MODULE    ---      ---       SET_PROTECTION_STATUS
      01001ACBH   PUBLIC    ECODE    ---       Set_Protection_Status
      000000D0H.6 SFRSYM    DATA     BIT       AC
      00000080H   SFRSYM    DATA     BIT       FSM_FINISH
      00000083H   SFRSYM    DATA     BYTE      DPH0
      000000E8H   SFRSYM    DATA     BIT       AM
      000000A8H   SFRSYM    DATA     BYTE      IE
      00000085H   SFRSYM    DATA     BYTE      DPH1
      00000082H   SFRSYM    DATA     BYTE      DPL0
      00000084H   SFRSYM    DATA     BYTE      DPL1
      00000088H   SFRSYM    DATA     BIT       SSINT
      000000C0H   SFRSYM    DATA     BIT       PULLUP_RES_STATE
      00000088H.1 SFRSYM    DATA     BIT       USINT
      000000B8H   SFRSYM    DATA     BYTE      IP
      00000098H   SFRSYM    DATA     BIT       RI
      000000D0H.7 SFRSYM    DATA     BIT       CY
      00000098H.1 SFRSYM    DATA     BIT       TI
      000000EAH   SFRSYM    DATA     BYTE      MPTRX
      00000093H   SFRSYM    DATA     BYTE      DPX0
      00000095H   SFRSYM    DATA     BYTE      DPX1
      00000081H   SFRSYM    DATA     BYTE      SP
      000000D0H.2 SFRSYM    DATA     BIT       OV
      000000A1H   SFRSYM    DATA     BYTE      CBSL
      00000080H.5 SFRSYM    DATA     BIT       FSM_RESULT
      00000099H   SFRSYM    DATA     BYTE      SBUF
      00000087H   SFRSYM    DATA     BYTE      PCON
      00000088H.3 SFRSYM    DATA     BIT       MFLT
      00000098H   SFRSYM    DATA     BYTE      SCON
      00000089H   SFRSYM    DATA     BYTE      TMOD
      00000088H   SFRSYM    DATA     BYTE      TCON
      00000088H.1 SFRSYM    DATA     BIT       SINT
      000000E8H   SFRSYM    DATA     BYTE      EPSW
      000000F0H   SFRSYM    DATA     BYTE      B
      000000A2H   SFRSYM    DATA     BYTE      MPTR
      000000E0H   SFRSYM    DATA     BYTE      ACC
      00000088H.5 SFRSYM    DATA     BIT       TF0
      00000088H.7 SFRSYM    DATA     BIT       TF1
      0000008CH   SFRSYM    DATA     BYTE      TH0
      000000B2H   SFRSYM    DATA     BYTE      ISOCON
      0000008DH   SFRSYM    DATA     BYTE      TH1
      000000D8H   SFRSYM    DATA     BYTE      SPSW
      000000D0H   SFRSYM    DATA     BIT       P
      0000008AH   SFRSYM    DATA     BYTE      TL0
      0000008BH   SFRSYM    DATA     BYTE      TL1
      000000C0H   SFRSYM    DATA     BYTE      PROGIO
      000000D0H.3 SFRSYM    DATA     BIT       RS0
      00000088H.4 SFRSYM    DATA     BIT       TR0
      000000D0H.4 SFRSYM    DATA     BIT       RS1
      00000080H.1 SFRSYM    DATA     BIT       FSM_START
LX51 LINKER/LOCATER V3.65                                                             12/12/2006  14:05:45  PAGE 77


      00000088H.6 SFRSYM    DATA     BIT       TR1
      00000083H   SFRSYM    DATA     BYTE      DPH
      000000B4H   SFRSYM    DATA     BYTE      ISOTMR
      00000082H   SFRSYM    DATA     BYTE      DPL
      000000B0H   SFRSYM    DATA     BYTE      SECURITYSTATUS
      00000086H   SFRSYM    DATA     BYTE      DPS
      00000093H   SFRSYM    DATA     BYTE      DPX
      00000080H   SFRSYM    DATA     BYTE      NVFSMCON
      000000F7H   SFRSYM    DATA     BYTE      MFCON
      000000C9H   SFRSYM    DATA     BYTE      NvFsmMode
      000000D0H.5 SFRSYM    DATA     BIT       F0
      000000E8H.1 SFRSYM    DATA     BIT       F1
      000000D0H   SFRSYM    DATA     BYTE      PSW

      01001ACBH   BLOCK     ECODE    ---       LVL=0
      01001ACBH   LINE      ECODE    ---       #64
      01001ACBH   LINE      ECODE    ---       #65
      01001ACBH   LINE      ECODE    ---       #66
      01001AD2H   LINE      ECODE    ---       #67
      01001AD2H   LINE      ECODE    ---       #68
      01001AD9H   LINE      ECODE    ---       #71
      01001AEEH   LINE      ECODE    ---       #74
      01001AF3H   LINE      ECODE    ---       #75
      01001AF3H   LINE      ECODE    ---       #76
      01001AF8H   LINE      ECODE    ---       #77
      01001AFAH   LINE      ECODE    ---       #79
      01001AFAH   LINE      ECODE    ---       #80
      01001AFCH   LINE      ECODE    ---       #81
      01001AFCH   LINE      ECODE    ---       #82
      01001AFEH   LINE      ECODE    ---       #85
      01001AFEH   LINE      ECODE    ---       #86
      01001B05H   LINE      ECODE    ---       #87
      01001B05H   LINE      ECODE    ---       #89
      01001B0CH   LINE      ECODE    ---       #91
      ---         BLOCKEND  ---      ---       LVL=0

      ---         MODULE    ---      ---       ERASE_UCM_BLOCKS__R6R7_PASSING
      01001E94H   PUBLIC    ECODE    ---       Erase_UCM_Blocks__R6R7_Passing
      000000D0H.6 SFRSYM    DATA     BIT       AC
      00000080H   SFRSYM    DATA     BIT       FSM_FINISH
      00000083H   SFRSYM    DATA     BYTE      DPH0
      000000E8H   SFRSYM    DATA     BIT       AM
      000000A8H   SFRSYM    DATA     BYTE      IE
      00000085H   SFRSYM    DATA     BYTE      DPH1
      00000082H   SFRSYM    DATA     BYTE      DPL0
      00000084H   SFRSYM    DATA     BYTE      DPL1
      00000088H   SFRSYM    DATA     BIT       SSINT
      000000C0H   SFRSYM    DATA     BIT       PULLUP_RES_STATE
      00000088H.1 SFRSYM    DATA     BIT       USINT
      000000B8H   SFRSYM    DATA     BYTE      IP
      00000098H   SFRSYM    DATA     BIT       RI
      000000D0H.7 SFRSYM    DATA     BIT       CY
      00000098H.1 SFRSYM    DATA     BIT       TI
      000000EAH   SFRSYM    DATA     BYTE      MPTRX
      00000093H   SFRSYM    DATA     BYTE      DPX0
      00000095H   SFRSYM    DATA     BYTE      DPX1
      00000081H   SFRSYM    DATA     BYTE      SP
      000000D0H.2 SFRSYM    DATA     BIT       OV
      000000A1H   SFRSYM    DATA     BYTE      CBSL
      00000080H.5 SFRSYM    DATA     BIT       FSM_RESULT
      00000099H   SFRSYM    DATA     BYTE      SBUF
      00000087H   SFRSYM    DATA     BYTE      PCON
      00000088H.3 SFRSYM    DATA     BIT       MFLT
      00000098H   SFRSYM    DATA     BYTE      SCON
      00000089H   SFRSYM    DATA     BYTE      TMOD
LX51 LINKER/LOCATER V3.65                                                             12/12/2006  14:05:45  PAGE 78


      00000088H   SFRSYM    DATA     BYTE      TCON
      00000088H.1 SFRSYM    DATA     BIT       SINT
      000000E8H   SFRSYM    DATA     BYTE      EPSW
      000000F0H   SFRSYM    DATA     BYTE      B
      000000A2H   SFRSYM    DATA     BYTE      MPTR
      000000E0H   SFRSYM    DATA     BYTE      ACC
      00000088H.5 SFRSYM    DATA     BIT       TF0
      00000088H.7 SFRSYM    DATA     BIT       TF1
      0000008CH   SFRSYM    DATA     BYTE      TH0
      000000B2H   SFRSYM    DATA     BYTE      ISOCON
      0000008DH   SFRSYM    DATA     BYTE      TH1
      000000D8H   SFRSYM    DATA     BYTE      SPSW
      000000D0H   SFRSYM    DATA     BIT       P
      0000008AH   SFRSYM    DATA     BYTE      TL0
      0000008BH   SFRSYM    DATA     BYTE      TL1
      000000C0H   SFRSYM    DATA     BYTE      PROGIO
      000000D0H.3 SFRSYM    DATA     BIT       RS0
      00000088H.4 SFRSYM    DATA     BIT       TR0
      000000D0H.4 SFRSYM    DATA     BIT       RS1
      00000080H.1 SFRSYM    DATA     BIT       FSM_START
      00000088H.6 SFRSYM    DATA     BIT       TR1
      00000083H   SFRSYM    DATA     BYTE      DPH
      000000B4H   SFRSYM    DATA     BYTE      ISOTMR
      00000082H   SFRSYM    DATA     BYTE      DPL
      000000B0H   SFRSYM    DATA     BYTE      SECURITYSTATUS
      00000086H   SFRSYM    DATA     BYTE      DPS
      00000093H   SFRSYM    DATA     BYTE      DPX
      00000080H   SFRSYM    DATA     BYTE      NVFSMCON
      000000F7H   SFRSYM    DATA     BYTE      MFCON
      000000C9H   SFRSYM    DATA     BYTE      NvFsmMode
      000000D0H.5 SFRSYM    DATA     BIT       F0
      000000E8H.1 SFRSYM    DATA     BIT       F1
      000000D0H   SFRSYM    DATA     BYTE      PSW

      01001E94H   BLOCK     ECODE    ---       LVL=0
      01001E94H   LINE      ECODE    ---       #58
      01001E94H   LINE      ECODE    ---       #59
      01001E94H   LINE      ECODE    ---       #61
      01001EA1H   LINE      ECODE    ---       #67
      01001EA5H   LINE      ECODE    ---       #69
      ---         BLOCKEND  ---      ---       LVL=0

      ---         MODULE    ---      ---       MASS_ERASE_UCM
      01001F22H   PUBLIC    ECODE    ---       Mass_Erase_UCM
      000000D0H.6 SFRSYM    DATA     BIT       AC
      00000080H   SFRSYM    DATA     BIT       FSM_FINISH
      00000083H   SFRSYM    DATA     BYTE      DPH0
      000000E8H   SFRSYM    DATA     BIT       AM
      000000A8H   SFRSYM    DATA     BYTE      IE
      00000085H   SFRSYM    DATA     BYTE      DPH1
      00000082H   SFRSYM    DATA     BYTE      DPL0
      00000084H   SFRSYM    DATA     BYTE      DPL1
      00000088H   SFRSYM    DATA     BIT       SSINT
      000000C0H   SFRSYM    DATA     BIT       PULLUP_RES_STATE
      00000088H.1 SFRSYM    DATA     BIT       USINT
      000000B8H   SFRSYM    DATA     BYTE      IP
      00000098H   SFRSYM    DATA     BIT       RI
      000000D0H.7 SFRSYM    DATA     BIT       CY
      00000098H.1 SFRSYM    DATA     BIT       TI
      000000EAH   SFRSYM    DATA     BYTE      MPTRX
      00000093H   SFRSYM    DATA     BYTE      DPX0
      00000095H   SFRSYM    DATA     BYTE      DPX1
      00000081H   SFRSYM    DATA     BYTE      SP
      000000D0H.2 SFRSYM    DATA     BIT       OV
      000000A1H   SFRSYM    DATA     BYTE      CBSL
LX51 LINKER/LOCATER V3.65                                                             12/12/2006  14:05:45  PAGE 79


      00000080H.5 SFRSYM    DATA     BIT       FSM_RESULT
      00000099H   SFRSYM    DATA     BYTE      SBUF
      00000087H   SFRSYM    DATA     BYTE      PCON
      00000088H.3 SFRSYM    DATA     BIT       MFLT
      00000098H   SFRSYM    DATA     BYTE      SCON
      00000089H   SFRSYM    DATA     BYTE      TMOD
      00000088H   SFRSYM    DATA     BYTE      TCON
      00000088H.1 SFRSYM    DATA     BIT       SINT
      000000E8H   SFRSYM    DATA     BYTE      EPSW
      000000F0H   SFRSYM    DATA     BYTE      B
      000000A2H   SFRSYM    DATA     BYTE      MPTR
      000000E0H   SFRSYM    DATA     BYTE      ACC
      00000088H.5 SFRSYM    DATA     BIT       TF0
      00000088H.7 SFRSYM    DATA     BIT       TF1
      0000008CH   SFRSYM    DATA     BYTE      TH0
      000000B2H   SFRSYM    DATA     BYTE      ISOCON
      0000008DH   SFRSYM    DATA     BYTE      TH1
      000000D8H   SFRSYM    DATA     BYTE      SPSW
      000000D0H   SFRSYM    DATA     BIT       P
      0000008AH   SFRSYM    DATA     BYTE      TL0
      0000008BH   SFRSYM    DATA     BYTE      TL1
      000000C0H   SFRSYM    DATA     BYTE      PROGIO
      000000D0H.3 SFRSYM    DATA     BIT       RS0
      00000088H.4 SFRSYM    DATA     BIT       TR0
      000000D0H.4 SFRSYM    DATA     BIT       RS1
      00000080H.1 SFRSYM    DATA     BIT       FSM_START
      00000088H.6 SFRSYM    DATA     BIT       TR1
      00000083H   SFRSYM    DATA     BYTE      DPH
      000000B4H   SFRSYM    DATA     BYTE      ISOTMR
      00000082H   SFRSYM    DATA     BYTE      DPL
      000000B0H   SFRSYM    DATA     BYTE      SECURITYSTATUS
      00000086H   SFRSYM    DATA     BYTE      DPS
      00000093H   SFRSYM    DATA     BYTE      DPX
      00000080H   SFRSYM    DATA     BYTE      NVFSMCON
      000000F7H   SFRSYM    DATA     BYTE      MFCON
      000000C9H   SFRSYM    DATA     BYTE      NvFsmMode
      000000D0H.5 SFRSYM    DATA     BIT       F0
      000000E8H.1 SFRSYM    DATA     BIT       F1
      000000D0H   SFRSYM    DATA     BYTE      PSW

      01001F22H   BLOCK     ECODE    ---       LVL=0
      01001F22H   LINE      ECODE    ---       #57
      01001F22H   LINE      ECODE    ---       #58
      01001F22H   LINE      ECODE    ---       #59
      01001F25H   LINE      ECODE    ---       #61
      01001F29H   LINE      ECODE    ---       #63
      ---         BLOCKEND  ---      ---       LVL=0

      ---         MODULE    ---      ---       ?C_INIT
      01000A01H   PUBLIC    CODE     NEAR LAB  ?C_START
      000000E0H   SFRSYM    DATA     BYTE      ACC
      00000083H   SFRSYM    DATA     BYTE      DPH
      00000082H   SFRSYM    DATA     BYTE      DPL
      00000093H   SFRSYM    DATA     BYTE      DPX
      010009F4H   SYMBOL    CODE     NEAR LAB  BITREADY
      010009DBH   SYMBOL    CODE     NEAR LAB  BITS
      01000A88H   SYMBOL    CODE     NEAR LAB  COMMON
      01000A44H   SYMBOL    CODE     NEAR LAB  HINC
      01000A2DH   SYMBOL    CODE     NEAR LAB  HLOOP
      01000A21H   SYMBOL    CODE     NEAR LAB  HPTRINIT
      010009D7H   SYMBOL    CODE     NEAR LAB  INITEND
      01000A7BH   SYMBOL    CODE     NEAR LAB  IORPDATA
      01000A7FH   SYMBOL    CODE     NEAR LAB  IORPLOOP
      010009EDH   SYMBOL    CODE     NEAR LAB  LOADTAB
      01000A05H   SYMBOL    CODE     NEAR LAB  LOOP
LX51 LINKER/LOCATER V3.65                                                             12/12/2006  14:05:45  PAGE 80


      01000A1BH   SYMBOL    CODE     NEAR LAB  NOBIG
      01000A4AH   SYMBOL    CODE     NEAR LAB  NOHDATA
      01000A87H   SYMBOL    CODE     NEAR LAB  PDATA
      010009F3H   SYMBOL    CODE     NEAR LAB  SETZEN
      010009F9H   SYMBOL    CODE     BYTE      TABLE
      01000A52H   SYMBOL    CODE     NEAR LAB  XDATAMEM
      01000A5AH   SYMBOL    CODE     NEAR LAB  XLOOP

      010009D7H   BLOCK     CODE     NEAR LAB  LVL=0
      010009D7H   LINE      CODE     ---       #94
      010009DBH   LINE      CODE     ---       #100
      010009DCH   LINE      CODE     ---       #101
      010009DDH   LINE      CODE     ---       #102
      010009DEH   LINE      CODE     ---       #103
      010009DFH   LINE      CODE     ---       #104
      010009E1H   LINE      CODE     ---       #105
      010009E3H   LINE      CODE     ---       #106
      010009E4H   LINE      CODE     ---       #107
      010009E5H   LINE      CODE     ---       #108
      010009E6H   LINE      CODE     ---       #109
      010009E7H   LINE      CODE     ---       #110
      010009E9H   LINE      CODE     ---       #111
      010009EBH   LINE      CODE     ---       #112
      010009ECH   LINE      CODE     ---       #113
      010009EDH   LINE      CODE     ---       #114
      010009EFH   LINE      CODE     ---       #115
      010009F0H   LINE      CODE     ---       #116
      010009F1H   LINE      CODE     ---       #117
      010009F3H   LINE      CODE     ---       #118
      010009F4H   LINE      CODE     ---       #119
      010009F5H   LINE      CODE     ---       #120
      010009F7H   LINE      CODE     ---       #121
      01000A01H   LINE      CODE     ---       #134
      01000A05H   LINE      CODE     ---       #137
      01000A06H   LINE      CODE     ---       #138
      01000A08H   LINE      CODE     ---       #139
      01000A09H   LINE      CODE     ---       #140
      01000A0BH   LINE      CODE     ---       #141
      01000A0CH   LINE      CODE     ---       #142
      01000A0DH   LINE      CODE     ---       #143
      01000A0FH   LINE      CODE     ---       #144
      01000A12H   LINE      CODE     ---       #145
      01000A14H   LINE      CODE     ---       #146
      01000A15H   LINE      CODE     ---       #147
      01000A16H   LINE      CODE     ---       #148
      01000A17H   LINE      CODE     ---       #149
      01000A18H   LINE      CODE     ---       #150
      01000A1AH   LINE      CODE     ---       #151
      01000A1BH   LINE      CODE     ---       #152
      01000A1CH   LINE      CODE     ---       #164
      01000A1EH   LINE      CODE     ---       #165
      01000A21H   LINE      CODE     ---       #167
      01000A22H   LINE      CODE     ---       #168
      01000A23H   LINE      CODE     ---       #169
      01000A24H   LINE      CODE     ---       #170
      01000A25H   LINE      CODE     ---       #171
      01000A26H   LINE      CODE     ---       #172
      01000A27H   LINE      CODE     ---       #173
      01000A28H   LINE      CODE     ---       #174
      01000A29H   LINE      CODE     ---       #175
      01000A2AH   LINE      CODE     ---       #176
      01000A2BH   LINE      CODE     ---       #177
      01000A2CH   LINE      CODE     ---       #178
      01000A2DH   LINE      CODE     ---       #179
      01000A2EH   LINE      CODE     ---       #180
LX51 LINKER/LOCATER V3.65                                                             12/12/2006  14:05:45  PAGE 81


      01000A2FH   LINE      CODE     ---       #181
      01000A31H   LINE      CODE     ---       #182
      01000A33H   LINE      CODE     ---       #183
      01000A37H   LINE      CODE     ---       #185
      01000A3AH   LINE      CODE     ---       #187
      01000A3CH   LINE      CODE     ---       #188
      01000A3EH   LINE      CODE     ---       #189
      01000A3FH   LINE      CODE     ---       #190
      01000A40H   LINE      CODE     ---       #191
      01000A41H   LINE      CODE     ---       #192
      01000A43H   LINE      CODE     ---       #193
      01000A44H   LINE      CODE     ---       #194
      01000A46H   LINE      CODE     ---       #195
      01000A48H   LINE      CODE     ---       #196
      01000A4AH   LINE      CODE     ---       #199
      01000A4CH   LINE      CODE     ---       #200
      01000A4EH   LINE      CODE     ---       #201
      01000A50H   LINE      CODE     ---       #202
      01000A52H   LINE      CODE     ---       #204
      01000A53H   LINE      CODE     ---       #205
      01000A54H   LINE      CODE     ---       #206
      01000A55H   LINE      CODE     ---       #207
      01000A56H   LINE      CODE     ---       #208
      01000A57H   LINE      CODE     ---       #209
      01000A58H   LINE      CODE     ---       #210
      01000A59H   LINE      CODE     ---       #211
      01000A5AH   LINE      CODE     ---       #212
      01000A5BH   LINE      CODE     ---       #213
      01000A5CH   LINE      CODE     ---       #214
      01000A5DH   LINE      CODE     ---       #215
      01000A5EH   LINE      CODE     ---       #216
      01000A60H   LINE      CODE     ---       #217
      01000A61H   LINE      CODE     ---       #218
      01000A62H   LINE      CODE     ---       #219
      01000A64H   LINE      CODE     ---       #220
      01000A65H   LINE      CODE     ---       #222
      01000A68H   LINE      CODE     ---       #224
      01000A69H   LINE      CODE     ---       #226
      01000A6CH   LINE      CODE     ---       #228
      01000A6DH   LINE      CODE     ---       #229
      01000A6EH   LINE      CODE     ---       #230
      01000A70H   LINE      CODE     ---       #231
      01000A71H   LINE      CODE     ---       #232
      01000A72H   LINE      CODE     ---       #233
      01000A74H   LINE      CODE     ---       #234
      01000A75H   LINE      CODE     ---       #235
      01000A77H   LINE      CODE     ---       #236
      01000A79H   LINE      CODE     ---       #237
      01000A7BH   LINE      CODE     ---       #240
      ---         BLOCKEND  ---      ---       LVL=0

      ---         MODULE    ---      ---       ?C?CLDPTR
      0100082EH   PUBLIC    CODE     NEAR LAB  ?C?CLDPTR

      ---         MODULE    ---      ---       ?C?CSTPTR
      01000844H   PUBLIC    CODE     NEAR LAB  ?C?CSTPTR

      ---         MODULE    ---      ---       ?C?UIDIV
      01000858H   PUBLIC    CODE     NEAR LAB  ?C?UIDIV

      ---         MODULE    ---      ---       ?C?LADD
      010008AEH   PUBLIC    CODE     NEAR LAB  ?C?LADD

      ---         MODULE    ---      ---       ?C?LOR
      010008BBH   PUBLIC    CODE     NEAR LAB  ?C?LOR
LX51 LINKER/LOCATER V3.65                                                             12/12/2006  14:05:45  PAGE 82



      ---         MODULE    ---      ---       ?C?LXOR
      010008C8H   PUBLIC    CODE     NEAR LAB  ?C?LXOR

      ---         MODULE    ---      ---       ?C?LNOT
      010008D5H   PUBLIC    CODE     NEAR LAB  ?C?LNOT

      ---         MODULE    ---      ---       ?C?ULCMP
      010008E2H   PUBLIC    CODE     NEAR LAB  ?C?ULCMP

      ---         MODULE    ---      ---       ?C?ULSHR
      010008F3H   PUBLIC    CODE     NEAR LAB  ?C?ULSHR

      ---         MODULE    ---      ---       ?C?LSHL
      01000906H   PUBLIC    CODE     NEAR LAB  ?C?LSHL

      ---         MODULE    ---      ---       ?C?LLDIDATA
      01000919H   PUBLIC    CODE     NEAR LAB  ?C?LLDIDATA

      ---         MODULE    ---      ---       ?C?LLDIDATA0
      01000925H   PUBLIC    CODE     NEAR LAB  ?C?LLDIDATA0

      ---         MODULE    ---      ---       ?C?LLDIIDATA
      0100093BH   PUBLIC    CODE     NEAR LAB  ?C?LLDIIDATA
      01000932H   PUBLIC    CODE     NEAR LAB  ?C?LLDIIDATA1
      01000934H   PUBLIC    CODE     NEAR LAB  ?C?LLDIIDATA8

      ---         MODULE    ---      ---       ?C?LSTIDATA
      01000952H   PUBLIC    CODE     NEAR LAB  ?C?LSTIDATA

      ---         MODULE    ---      ---       ?C?OFFXADD
      0100095EH   PUBLIC    CODE     NEAR LAB  ?C?OFFXADD

      ---         MODULE    ---      ---       ?C?PLDIIDATA
      0100096AH   PUBLIC    CODE     NEAR LAB  ?C?PLDIIDATA

      ---         MODULE    ---      ---       ?C?PLDCODE
      0100097AH   PUBLIC    CODE     NEAR LAB  ?C?PLDCODE

      ---         MODULE    ---      ---       ?C?CCASE
      01000986H   PUBLIC    CODE     NEAR LAB  ?C?CCASE

      ---         MODULE    ---      ---       ?C?ICALL390
      010009AEH   PUBLIC    CODE     NEAR LAB  ?C?ICALL390
      010009B4H   PUBLIC    CODE     NEAR LAB  ?C?ICALLX2

Program Size: data=183.0 xdata=64 const=896 code=5073
LX51 RUN COMPLETE.  0 WARNING(S),  0 ERROR(S)
