LX51 LINKER/LOCATER V4.10a                                                              10/17/2007  16:47:04  PAGE 1


LX51 LINKER/LOCATER V4.10a, INVOKED BY:
C:\KEIL3\C51\BIN\LX51.EXE TT40_Get_OS_Version.obj, TT40_Send_ATR.obj, TT40_STARTUP.obj, TT40_ISR.obj, TT40_API_JumpTable
>> .obj, TT40_Mass_Erase_UCM_Leaving_Bootloader.obj, .\Chip_Init.obj, .\Get_Interrupt_Enable.obj, .\Set_Interrupt_Enable
>> .obj, .\Write_X_Bytes_To_UCM__256_Page_Backup_Handled.obj, .\Get_Pullup_Resistor.obj, .\Set_Pullup_Resistor.obj, .\Ti
>> mer0_Functions.obj, .\Use_Emulator_API.obj, .\Global_Vars.obj, .\IO.obj, .\CRC16_Normal.obj, .\Set_Idle_Mode.obj, .\I
>> SO_Select_Speed.obj, .\Main.obj, .\SHA-1.obj, .\Change_ISO_Speed.obj, .\Set_Security_Status.obj, .\Get_Security_Statu
>> s.obj, .\Write_UCM_Bytes_Flash_Mode_From_IRAM_Buffer.obj, .\Software_APIs.obj, .\Write_X_Bytes_To_UCM.obj, .\Write_To
>> _IRAM.obj, .\Write_To_XRAM.obj, .\Get_Response.obj, .\CODE_Memory_Dump.obj, .\IDATA_Memory_Dump.obj, .\XDATA_Memory_D
>> ump.obj, .\Conv_Two_Bytes_To_Int.obj, .\Get_Clock_Source.obj, .\Get_Clock_Control.obj, .\Set_Execute_Only_Status.obj,
>>  .\Set_Protection_Status.obj, .\Set_Security_Action.obj, .\Set_Security_Mask.obj, .\Write_Byte_UCM_Flash_Mode.obj, .\
>> Get_Firmware_Version.obj, .\Get_Chip_ID.obj, .\Set_Clock.obj, .\Mass_Erase_UCM.obj, .\Erase_UCM_Blocks__R6R7_Passing.
>> obj, .\Get_Diagnostic_Data.obj, .\Erase_256_UCM.obj, .\Erase_512_UCM.obj TO Generic_TT40_Example_C_Code CLASSES (CODE
>>  (C:0X400-C:0XA3FF), CONST (C:0X400-C:0XA3FF), ECODE (C:0X400-C:0XA3FF), HCONST (C:0X400-C:0XA3FF), CONST (C:0X800-C:
>> 0XFCFF))


CPU MODE:     8051 MODE
MEMORY MODEL: SMALL


INPUT MODULES INCLUDED:
  TT40_Get_OS_Version.obj (TT40_GET_OS_VERSION)
         COMMENT TYPE 0: C51 V8.06
  TT40_Send_ATR.obj (TT40_SEND_ATR)
         COMMENT TYPE 0: C51 V8.06
  TT40_STARTUP.obj (?C_STARTUP)
         COMMENT TYPE 0: AX51 V3.02
  TT40_ISR.obj (TT40_ISR)
         COMMENT TYPE 0: C51 V8.06
  TT40_API_JumpTable.obj (TT40_API_JUMPTABLE)
         COMMENT TYPE 0: AX51 V3.02
  TT40_Mass_Erase_UCM_Leaving_Bootloader.obj (TT40_MASS_ERASE_UCM_LEAVING_BOOTLOADER)
         COMMENT TYPE 0: AX51 V3.02
  .\Chip_Init.obj (CHIP_INIT)
         COMMENT TYPE 0: C51 V8.06
  .\Get_Interrupt_Enable.obj (GET_INTERRUPT_ENABLE)
         COMMENT TYPE 0: C51 V8.06
  .\Set_Interrupt_Enable.obj (SET_INTERRUPT_ENABLE)
         COMMENT TYPE 0: C51 V8.06
  .\Write_X_Bytes_To_UCM__256_Page_Backup_Handled.obj (WRITE_X_BYTES_TO_UCM__256_PAGE_BACKUP_HAN)
         COMMENT TYPE 0: C51 V8.06
  .\Get_Pullup_Resistor.obj (GET_PULLUP_RESISTOR)
         COMMENT TYPE 0: C51 V8.06
  .\Set_Pullup_Resistor.obj (SET_PULLUP_RESISTOR)
         COMMENT TYPE 0: C51 V8.06
  .\Timer0_Functions.obj (TIMER0_FUNCTIONS)
         COMMENT TYPE 0: C51 V8.06
  .\Use_Emulator_API.obj (USE_EMULATOR_API)
         COMMENT TYPE 0: C51 V8.06
  .\Global_Vars.obj (GLOBAL_VARS)
         COMMENT TYPE 0: C51 V8.06
  .\IO.obj (IO)
         COMMENT TYPE 0: C51 V8.06
  .\CRC16_Normal.obj (CRC16_NORMAL)
         COMMENT TYPE 0: C51 V8.06
  .\Set_Idle_Mode.obj (SET_IDLE_MODE)
         COMMENT TYPE 0: C51 V8.06
  .\ISO_Select_Speed.obj (ISO_SELECT_SPEED)
         COMMENT TYPE 0: C51 V8.06
  .\Main.obj (MAIN)
         COMMENT TYPE 0: C51 V8.06
  .\SHA-1.obj (SHA_1)
         COMMENT TYPE 0: C51 V8.06
  .\Change_ISO_Speed.obj (CHANGE_ISO_SPEED)
         COMMENT TYPE 0: C51 V8.06
  .\Set_Security_Status.obj (SET_SECURITY_STATUS)
LX51 LINKER/LOCATER V4.10a                                                            10/17/2007  16:47:04  PAGE 2


         COMMENT TYPE 0: C51 V8.06
  .\Get_Security_Status.obj (GET_SECURITY_STATUS)
         COMMENT TYPE 0: C51 V8.06
  .\Write_UCM_Bytes_Flash_Mode_From_IRAM_Buffer.obj (WRITE_UCM_BYTES_FLASH_MODE_FROM_IRAM_BUFF)
         COMMENT TYPE 0: C51 V8.06
  .\Software_APIs.obj (SOFTWARE_APIS)
         COMMENT TYPE 0: AX51 V3.02
  .\Write_X_Bytes_To_UCM.obj (WRITE_X_BYTES_TO_UCM)
         COMMENT TYPE 0: C51 V8.06
  .\Write_To_IRAM.obj (WRITE_TO_IRAM)
         COMMENT TYPE 0: C51 V8.06
  .\Write_To_XRAM.obj (WRITE_TO_XRAM)
         COMMENT TYPE 0: C51 V8.06
  .\Get_Response.obj (GET_RESPONSE)
         COMMENT TYPE 0: C51 V8.06
  .\CODE_Memory_Dump.obj (CODE_MEMORY_DUMP)
         COMMENT TYPE 0: C51 V8.06
  .\IDATA_Memory_Dump.obj (IDATA_MEMORY_DUMP)
         COMMENT TYPE 0: C51 V8.06
  .\XDATA_Memory_Dump.obj (XDATA_MEMORY_DUMP)
         COMMENT TYPE 0: C51 V8.06
  .\Conv_Two_Bytes_To_Int.obj (CONV_TWO_BYTES_TO_INT)
         COMMENT TYPE 0: C51 V8.06
  .\Get_Clock_Source.obj (GET_CLOCK_SOURCE)
         COMMENT TYPE 0: C51 V8.06
  .\Get_Clock_Control.obj (GET_CLOCK_CONTROL)
         COMMENT TYPE 0: C51 V8.06
  .\Set_Execute_Only_Status.obj (SET_EXECUTE_ONLY_STATUS)
         COMMENT TYPE 0: C51 V8.06
  .\Set_Protection_Status.obj (SET_PROTECTION_STATUS)
         COMMENT TYPE 0: C51 V8.06
  .\Set_Security_Action.obj (SET_SECURITY_ACTION)
         COMMENT TYPE 0: C51 V8.06
  .\Set_Security_Mask.obj (SET_SECURITY_MASK)
         COMMENT TYPE 0: C51 V8.06
  .\Write_Byte_UCM_Flash_Mode.obj (WRITE_BYTE_UCM_FLASH_MODE)
         COMMENT TYPE 0: C51 V8.06
  .\Get_Firmware_Version.obj (GET_FIRMWARE_VERSION)
         COMMENT TYPE 0: C51 V8.06
  .\Get_Chip_ID.obj (GET_CHIP_ID)
         COMMENT TYPE 0: C51 V8.06
  .\Set_Clock.obj (SET_CLOCK)
         COMMENT TYPE 0: C51 V8.06
  .\Mass_Erase_UCM.obj (MASS_ERASE_UCM)
         COMMENT TYPE 0: C51 V8.06
  .\Erase_UCM_Blocks__R6R7_Passing.obj (ERASE_UCM_BLOCKS__R6R7_PASSING)
         COMMENT TYPE 0: C51 V8.06
  .\Get_Diagnostic_Data.obj (GET_DIAGNOSTIC_DATA)
         COMMENT TYPE 0: C51 V8.06
  .\Erase_256_UCM.obj (ERASE_256_UCM)
         COMMENT TYPE 0: C51 V8.06
  .\Erase_512_UCM.obj (ERASE_512_UCM)
         COMMENT TYPE 0: C51 V8.06
  C:\KEIL3\C51\LIB\C51S.LIB (?C_INIT)
         COMMENT TYPE 1: A51 / ASM51 Assembler
  C:\KEIL3\C51\LIB\C51S.LIB (?C?CLDPTR)
         COMMENT TYPE 1: A51 / ASM51 Assembler
  C:\KEIL3\C51\LIB\C51S.LIB (?C?UIDIV)
         COMMENT TYPE 1: A51 / ASM51 Assembler
  C:\KEIL3\C51\LIB\C51S.LIB (?C?LADD)
         COMMENT TYPE 1: A51 / ASM51 Assembler
  C:\KEIL3\C51\LIB\C51S.LIB (?C?LOR)
         COMMENT TYPE 1: A51 / ASM51 Assembler
  C:\KEIL3\C51\LIB\C51S.LIB (?C?LXOR)
         COMMENT TYPE 1: A51 / ASM51 Assembler
LX51 LINKER/LOCATER V4.10a                                                            10/17/2007  16:47:04  PAGE 3


  C:\KEIL3\C51\LIB\C51S.LIB (?C?LNOT)
         COMMENT TYPE 1: A51 / ASM51 Assembler
  C:\KEIL3\C51\LIB\C51S.LIB (?C?ULCMP)
         COMMENT TYPE 1: A51 / ASM51 Assembler
  C:\KEIL3\C51\LIB\C51S.LIB (?C?ULSHR)
         COMMENT TYPE 1: A51 / ASM51 Assembler
  C:\KEIL3\C51\LIB\C51S.LIB (?C?LSHL)
         COMMENT TYPE 1: A51 / ASM51 Assembler
  C:\KEIL3\C51\LIB\C51S.LIB (?C?LLDIDATA)
         COMMENT TYPE 1: A51 / ASM51 Assembler
  C:\KEIL3\C51\LIB\C51S.LIB (?C?LLDIDATA0)
         COMMENT TYPE 1: A51 / ASM51 Assembler
  C:\KEIL3\C51\LIB\C51S.LIB (?C?LSTIDATA)
         COMMENT TYPE 1: A51 / ASM51 Assembler
  C:\KEIL3\C51\LIB\C51S.LIB (?C?LSTKIDATA)
         COMMENT TYPE 1: A51 / ASM51 Assembler
  C:\KEIL3\C51\LIB\C51S.LIB (?C?PLDIIDATA)
         COMMENT TYPE 1: A51 / ASM51 Assembler
  C:\KEIL3\C51\LIB\C51S.LIB (?C?CCASE)
         COMMENT TYPE 1: A51 / ASM51 Assembler
  C:\KEIL3\C51\LIB\C51S.LIB (?C?ICALL)
         COMMENT TYPE 1: A51 / ASM51 Assembler


ACTIVE MEMORY CLASSES OF MODULE:  Generic_TT40_Example_C_Code (TT40_GET_OS_VERSION)

BASE        START       END         USED      MEMORY CLASS
==========================================================
C:000000H   C:000400H   C:00A3FFH   001630H   CODE
C:000000H   C:000400H   C:00A3FFH   000300H   CONST
            C:000800H   C:00FCFFH               
C:000000H   C:000400H   C:00A3FFH             ECODE
B00:0000H   C:000400H   C:00A3FFH             HCONST
I:000000H   I:000000H   I:0000FFH   00006BH   IDATA
I:000000H   I:000000H   I:00007FH   000049H   DATA
I:000020H.0 I:000020H.0 I:00002FH.7 000000H.1 BIT
X:000000H   X:000000H   X:00FFFFH   000040H   XDATA


MEMORY MAP OF MODULE:  Generic_TT40_Example_C_Code (TT40_GET_OS_VERSION)


START     STOP      LENGTH    ALIGN  RELOC    MEMORY CLASS   SEGMENT NAME
=========================================================================

* * * * * * * * * * *   D A T A   M E M O R Y   * * * * * * * * * * * * *
000000H   000007H   000008H   ---    AT..     DATA           "REG BANK 0"
000008H   00000CH   000005H   BYTE   UNIT     DATA           ?DT?GLOBAL_VARS
00000DH   00001FH   000013H   ---    ---      **GAP**
000020H   000020H   000001H   BYTE   BITADDR  DATA           ?BA?WRITE_X_BYTES_TO_UCM__256_PAGE_BACKUP_HAN
000021H.0 000021H.0 000000H.1 BIT    UNIT     BIT            _BIT_GROUP_
000021H.1 000021H   000000H.7 ---    ---      **GAP**
000022H   00005CH   00003BH   BYTE   UNIT     DATA           _DATA_GROUP_
00005DH   00009CH   000040H   BYTE   UNIT     IDATA          _IDATA_GROUP_
00009DH   0000B8H   00001CH   BYTE   UNIT     IDATA          ?ID?GLOBAL_VARS
0000B9H   0000C7H   00000FH   BYTE   UNIT     IDATA          ?STACK

* * * * * * * * * * *   C O D E   M E M O R Y   * * * * * * * * * * * * *
0001CEH   0001F1H   000024H   ---    OFFS..   CODE           ?CO?TT40_API_JUMPTABLE?1
0001F2H   0003FFH   00020EH   ---    ---      **GAP**
000400H   000402H   000003H   ---    OFFS..   CODE           ?CO?TT40_STARTUP?3
000403H   00040AH   000008H   BYTE   UNIT     CODE           ?PR?GETCHAR?IO
00040BH   00040DH   000003H   BYTE   OFFS..   CODE           ?TT40_ISR?0040B
00040EH   000421H   000014H   BYTE   UNIT     CODE           ?PR?_SERIAL_RECEIVE_X_BYTES?IO
000422H   000422H   000001H   BYTE   UNIT     CODE           ?PR?SERIAL_ISR?TT40_ISR
LX51 LINKER/LOCATER V4.10a                                                            10/17/2007  16:47:04  PAGE 4


000423H   000425H   000003H   BYTE   OFFS..   CODE           ?TT40_ISR?00423
000426H   00042AH   000005H   BYTE   UNIT     CODE           ?PR?_CONV_TWO_BYTES_TO_INT?CONV_TWO_BYTES_TO_INT
00042BH   00042DH   000003H   BYTE   OFFS..   CODE           ?TT40_ISR?0042B
00042EH   00098DH   000560H   BYTE   UNIT     CODE           ?PR?_SHA_1_HASH?SHA_1
00098EH   000C84H   0002F7H   BYTE   UNIT     CODE           ?PR?WRITE_X_BYTES_TO_UCM__256_PAGE_BACKUP_HANDLED?WRITE_X_
                                                             -BYTES_TO_UCM__256_PAGE_BACKUP_HAN
000C85H   000E07H   000183H   BYTE   UNIT     CODE           ?PR?_ISO_SELECT_SPEED?ISO_SELECT_SPEED
000E08H   000F5AH   000153H   BYTE   UNIT     CODE           ?C?LIB_CODE
000F5BH   000FF8H   00009EH   BYTE   UNIT     CODE           ?PR?TT40_FSM_INTERFACE_SEGMENT?TT40_API_JUMPTABLE
000FF9H   001092H   00009AH   BYTE   UNIT     CODE           ?C_C51STARTUP
001093H   001110H   00007EH   BYTE   UNIT     CODE           ?PR?CALL_SHA1?SHA_1
001111H   001185H   000075H   BYTE   UNIT     CODE           ?PR?PROCESS_APDU_COMMAND?MAIN
001186H   0011E8H   000063H   BYTE   UNIT     CODE           ?PR?MASS_ERASE_UCM_LEAVING_BOOTLOADER?TT40_MASS_ERASE_UCM_
                                                             -LEAVING_BOOTLOADER
0011E9H   001248H   000060H   BYTE   UNIT     CODE           ?PR?_ENTER_IDLE_MODE?MAIN
001249H   00129AH   000052H   BYTE   UNIT     CODE           ?PR?TIMER0_READ?TIMER0_FUNCTIONS
00129BH   0012EBH   000051H   BYTE   UNIT     CODE           ?PR?WRITE_X_BYTES_TO_UCM?WRITE_X_BYTES_TO_UCM
0012ECH   00133BH   000050H   BYTE   UNIT     CODE           ?PR?SET_CLOCK?SET_CLOCK
00133CH   00138AH   00004FH   BYTE   UNIT     CODE           ?PR?CREATE_CRC16_HASH_OF_XDATA?CRC16_NORMAL
00138BH   0013D8H   00004EH   BYTE   UNIT     CODE           ?PR?_CALCULATECRC?CRC16_NORMAL
0013D9H   00141DH   000045H   BYTE   UNIT     CODE           ?PR?SECURITY_FAULT_ISR?TT40_ISR
00141EH   001462H   000045H   BYTE   UNIT     CODE           ?PR?WRITE_UCM_BYTES_FLASH_MODE_FROM_IRAM_BUFFER?WRITE_UCM_
                                                             -BYTES_FLASH_MODE_FROM_IRAM_BUFF
001463H   0014A4H   000042H   BYTE   UNIT     CODE           ?PR?SET_EXECUTE_ONLY_STATUS?SET_EXECUTE_ONLY_STATUS
0014A5H   0014E6H   000042H   BYTE   UNIT     CODE           ?PR?SET_PROTECTION_STATUS?SET_PROTECTION_STATUS
0014E7H   001528H   000042H   BYTE   UNIT     CODE           ?PR?WRITE_BYTE_UCM_FLASH_MODE?WRITE_BYTE_UCM_FLASH_MODE
001529H   001567H   00003FH   BYTE   UNIT     CODE           ?PR?GET_RESPONSE?GET_RESPONSE
001568H   0015A6H   00003FH   BYTE   UNIT     CODE           ?PR?GET_CHIP_ID?GET_CHIP_ID
0015A7H   0015E5H   00003FH   BYTE   UNIT     CODE           ?PR?GET_DIAGNOSTIC_DATA?GET_DIAGNOSTIC_DATA
0015E6H   00161EH   000039H   BYTE   UNIT     CODE           ?PR?MAIN?MAIN
00161FH   00164EH   000030H   BYTE   UNIT     CODE           ?PR?CODE_MEMORY_DUMP?CODE_MEMORY_DUMP
00164FH   00167DH   00002FH   BYTE   UNIT     CODE           ?PR?WRITE_TO_XRAM?WRITE_TO_XRAM
00167EH   0016ACH   00002FH   BYTE   UNIT     CODE           ?PR?XDATA_MEMORY_DUMP?XDATA_MEMORY_DUMP
0016ADH   0016D6H   00002AH   BYTE   UNIT     CODE           ?PR?ERASE_256_UCM?ERASE_256_UCM
0016D7H   001700H   00002AH   BYTE   UNIT     CODE           ?PR?ERASE_512_UCM?ERASE_512_UCM
001701H   001728H   000028H   BYTE   UNIT     CODE           ?PR?SEND_ATR?TT40_SEND_ATR
001729H   00174FH   000027H   BYTE   UNIT     CODE           ?PR?SET_PULLUP_RESISTOR?SET_PULLUP_RESISTOR
001750H   001776H   000027H   BYTE   UNIT     CODE           ?PR?SET_SECURITY_ACTION?SET_SECURITY_ACTION
001777H   00179DH   000027H   BYTE   UNIT     CODE           ?PR?SET_SECURITY_MASK?SET_SECURITY_MASK
00179EH   0017C3H   000026H   BYTE   UNIT     CODE           ?PR?_TIMER0_SETUP?TIMER0_FUNCTIONS
0017C4H   0017E6H   000023H   BYTE   UNIT     CODE           ?PR?GET_PULLUP_RESISTOR?GET_PULLUP_RESISTOR
0017E7H   001808H   000022H   BYTE   UNIT     CODE           ?PR?GET_IDLE_MODE?SET_IDLE_MODE
001809H   001829H   000021H   BYTE   UNIT     CODE           ?PR?GET_INTERRUPT_ENABLE?GET_INTERRUPT_ENABLE
00182AH   00184AH   000021H   BYTE   UNIT     CODE           ?PR?GET_CLOCK_SOURCE?GET_CLOCK_SOURCE
00184BH   00186BH   000021H   BYTE   UNIT     CODE           ?PR?GET_CLOCK_CONTROL?GET_CLOCK_CONTROL
00186CH   00188CH   000021H   BYTE   UNIT     CODE           ?PR?GET_FIRMWARE_VERSION?GET_FIRMWARE_VERSION
00188DH   0018ACH   000020H   BYTE   UNIT     CODE           ?PR?USE_EMULATOR_API?USE_EMULATOR_API
0018ADH   0018CCH   000020H   BYTE   UNIT     CODE           ?PR?GET_SECURITY_STATUS?GET_SECURITY_STATUS
0018CDH   0018EBH   00001FH   BYTE   UNIT     CODE           ?PR?CHIP_INIT?CHIP_INIT
0018ECH   001905H   00001AH   BYTE   UNIT     CODE           ?PR?SOFTWARE_APIS_SEGMENT?SOFTWARE_APIS
001906H   00191FH   00001AH   BYTE   UNIT     CODE           ?PR?WRITE_TO_IRAM?WRITE_TO_IRAM
001920H   001939H   00001AH   BYTE   UNIT     CODE           ?PR?IDATA_MEMORY_DUMP?IDATA_MEMORY_DUMP
00193AH   001950H   000017H   BYTE   UNIT     CODE           ?PR?TIMER0_START?TIMER0_FUNCTIONS
001951H   001964H   000014H   BYTE   UNIT     CODE           ?PR?_SERIAL_TRANSMIT_X_BYTES?IO
001965H   001976H   000012H   BYTE   UNIT     CODE           ?PR?_PUTCHAR?IO
001977H   001988H   000012H   BYTE   UNIT     CODE           ?PR?CHANGE_ISO_SPEED?CHANGE_ISO_SPEED
001989H   00199AH   000012H   BYTE   UNIT     CODE           ?PR?ERASE_UCM_BLOCKS__R6R7_PASSING?ERASE_UCM_BLOCKS__R6R7_
                                                             -PASSING
00199BH   0019ABH   000011H   BYTE   UNIT     CODE           ?PR?TIMER0_STOP?TIMER0_FUNCTIONS
0019ACH   0019BBH   000010H   BYTE   UNIT     CODE           ?PR?PROCESS_PPS_COMMAND?MAIN
0019BCH   0019CAH   00000FH   BYTE   UNIT     CODE           ?PR?GET_OS_VERSION?TT40_GET_OS_VERSION
0019CBH   0019D9H   00000FH   BYTE   UNIT     CODE           ?PR?TIMER0_ISR?TT40_ISR
0019DAH   0019E6H   00000DH   BYTE   UNIT     CODE           ?PR?SET_IDLE_MODE?SET_IDLE_MODE
0019E7H   0019F2H   00000CH   BYTE   UNIT     CODE           ?PR?SET_INTERRUPT_ENABLE?SET_INTERRUPT_ENABLE
0019F3H   0019FCH   00000AH   BYTE   UNIT     CODE           ?PR?SET_SECURITY_STATUS?SET_SECURITY_STATUS
LX51 LINKER/LOCATER V4.10a                                                            10/17/2007  16:47:04  PAGE 5


0019FDH   001A04H   000008H   BYTE   UNIT     CODE           ?PR?MASS_ERASE_UCM?MASS_ERASE_UCM
001A05H   001A0BH   000007H   BYTE   UNIT     CODE           ?C_INITSEG
001A0CH   001C0BH   000200H   BYTE   UNIT     CONST          ?CO?CRC16_NORMAL
001C0CH   001D0BH   000100H   BYTE   UNIT     CONST          ?CO?MAIN

* * * * * * * * * * *  X D A T A   M E M O R Y  * * * * * * * * * * * * *
000000H   00003FH   000040H   BYTE   UNIT     XDATA          ?XD?GLOBAL_VARS



OVERLAY MAP OF MODULE:   Generic_TT40_Example_C_Code (TT40_GET_OS_VERSION)


FUNCTION/MODULE                                BIT_GROUP   DATA_GROUP   IDATA_GROUP
--> CALLED FUNCTION/MODULE                    START  STOP  START  STOP  START  STOP
===================================================================================
?C_C51STARTUP                                 ----- -----  ----- -----  ----- -----
  +--> ?PR?MAIN?MAIN
  +--> ?C_INITSEG

MAIN/MAIN                                     ----- -----  ----- -----  ----- -----
  +--> ?PR?CHIP_INIT?CHIP_INIT
  +--> ?PR?SEND_ATR?TT40_SEND_ATR
  +--> ?PR?_ENTER_IDLE_MODE?MAIN
  +--> ?PR?GETCHAR?IO
  +--> ?PR?PROCESS_PPS_COMMAND?MAIN
  +--> ?PR?_SERIAL_RECEIVE_X_BYTES?IO
  +--> ?PR?PROCESS_APDU_COMMAND?MAIN

CHIP_INIT/CHIP_INIT                           ----- -----  ----- -----  ----- -----
  +--> ?PR?TT40_FSM_INTERFACE_SEGMENT?TT40_A...
  +--> ?CO?TT40_API_JUMPTABLE?1
  +--> ?PR?_ISO_SELECT_SPEED?ISO_SELECT_SPEED

TT40_FSM_INTERFACE_SEGMENT/TT40_API_J...      21H.0 21H.0  0025H 0026H  ----- -----
  +--> ?CO?TT40_API_JUMPTABLE?1

?CO?TT40_API_JUMPTABLE?1                      ----- -----  ----- -----  ----- -----

_ISO_SELECT_SPEED/ISO_SELECT_SPEED            ----- -----  0022H 0022H  005DH 0062H
  +--> ?PR?_SERIAL_TRANSMIT_X_BYTES?IO
  +--> ?PR?_PUTCHAR?IO

_SERIAL_TRANSMIT_X_BYTES/IO                   ----- -----  ----- -----  ----- -----
  +--> ?PR?_PUTCHAR?IO

_PUTCHAR/IO                                   ----- -----  ----- -----  ----- -----

SEND_ATR/TT40_SEND_ATR                        ----- -----  ----- -----  ----- -----
  +--> ?PR?_PUTCHAR?IO
  +--> ?CO?TT40_API_JUMPTABLE?1

_ENTER_IDLE_MODE/MAIN                         ----- -----  ----- -----  ----- -----
  +--> ?CO?TT40_API_JUMPTABLE?1

GETCHAR/IO                                    ----- -----  ----- -----  ----- -----

PROCESS_PPS_COMMAND/MAIN                      ----- -----  ----- -----  ----- -----
  +--> ?PR?_SERIAL_RECEIVE_X_BYTES?IO
  +--> ?PR?_ISO_SELECT_SPEED?ISO_SELECT_SPEED

_SERIAL_RECEIVE_X_BYTES/IO                    ----- -----  ----- -----  ----- -----
  +--> ?PR?GETCHAR?IO

PROCESS_APDU_COMMAND/MAIN                     ----- -----  ----- -----  ----- -----
LX51 LINKER/LOCATER V4.10a                                                            10/17/2007  16:47:04  PAGE 6


  +--> ?CO?MAIN
  +--> ?PR?_PUTCHAR?IO
  +--> ?PR?_SERIAL_TRANSMIT_X_BYTES?IO

?CO?MAIN                                      ----- -----  ----- -----  ----- -----
  +--> ?PR?GET_CHIP_ID?GET_CHIP_ID
  +--> ?PR?GET_CLOCK_SOURCE?GET_CLOCK_SOURCE
  +--> ?PR?GET_CLOCK_CONTROL?GET_CLOCK_CONTROL
  +--> ?PR?SET_PROTECTION_STATUS?SET_PROTECT...
  +--> ?PR?SET_EXECUTE_ONLY_STATUS?SET_EXECU...
  +--> ?PR?SET_SECURITY_ACTION?SET_SECURITY_...
  +--> ?PR?SET_SECURITY_MASK?SET_SECURITY_MASK
  +--> ?PR?SET_CLOCK?SET_CLOCK
  +--> ?PR?SET_INTERRUPT_ENABLE?SET_INTERRUP...
  +--> ?PR?GET_INTERRUPT_ENABLE?GET_INTERRUP...
  +--> ?PR?GET_FIRMWARE_VERSION?GET_FIRMWARE...
  +--> ?PR?WRITE_UCM_BYTES_FLASH_MODE_FROM_I...
  +--> ?PR?WRITE_BYTE_UCM_FLASH_MODE?WRITE_B...
  +--> ?PR?ERASE_256_UCM?ERASE_256_UCM
  +--> ?PR?MASS_ERASE_UCM_LEAVING_BOOTLOADER...
  +--> ?PR?MASS_ERASE_UCM?MASS_ERASE_UCM
  +--> ?PR?ERASE_512_UCM?ERASE_512_UCM
  +--> ?PR?CHANGE_ISO_SPEED?CHANGE_ISO_SPEED
  +--> ?PR?SET_SECURITY_STATUS?SET_SECURITY_...
  +--> ?PR?GET_SECURITY_STATUS?GET_SECURITY_...
  +--> ?PR?TIMER0_START?TIMER0_FUNCTIONS
  +--> ?PR?TIMER0_STOP?TIMER0_FUNCTIONS
  +--> ?PR?ERASE_UCM_BLOCKS__R6R7_PASSING?ER...
  +--> ?PR?GET_DIAGNOSTIC_DATA?GET_DIAGNOSTI...
  +--> ?PR?SET_IDLE_MODE?SET_IDLE_MODE
  +--> ?PR?TIMER0_READ?TIMER0_FUNCTIONS
  +--> ?PR?CALL_SHA1?SHA_1
  +--> ?PR?CODE_MEMORY_DUMP?CODE_MEMORY_DUMP
  +--> ?PR?IDATA_MEMORY_DUMP?IDATA_MEMORY_DUMP
  +--> ?PR?XDATA_MEMORY_DUMP?XDATA_MEMORY_DUMP
  +--> ?PR?CREATE_CRC16_HASH_OF_XDATA?CRC16_...
  +--> ?PR?WRITE_TO_IRAM?WRITE_TO_IRAM
  +--> ?PR?GET_OS_VERSION?TT40_GET_OS_VERSION
  +--> ?PR?USE_EMULATOR_API?USE_EMULATOR_API
  +--> ?PR?WRITE_TO_XRAM?WRITE_TO_XRAM
  +--> ?PR?GET_RESPONSE?GET_RESPONSE
  +--> ?PR?WRITE_X_BYTES_TO_UCM?WRITE_X_BYTE...
  +--> ?PR?WRITE_X_BYTES_TO_UCM__256_PAGE_BA...
  +--> ?PR?GET_IDLE_MODE?SET_IDLE_MODE
  +--> ?PR?SET_PULLUP_RESISTOR?SET_PULLUP_RE...
  +--> ?PR?GET_PULLUP_RESISTOR?GET_PULLUP_RE...

GET_CHIP_ID/GET_CHIP_ID                       ----- -----  ----- -----  ----- -----
  +--> ?CO?TT40_API_JUMPTABLE?1
  +--> ?PR?_SERIAL_TRANSMIT_X_BYTES?IO

GET_CLOCK_SOURCE/GET_CLOCK_SOURCE             ----- -----  ----- -----  ----- -----
  +--> ?CO?TT40_API_JUMPTABLE?1
  +--> ?PR?_PUTCHAR?IO

GET_CLOCK_CONTROL/GET_CLOCK_CONTROL           ----- -----  ----- -----  ----- -----
  +--> ?CO?TT40_API_JUMPTABLE?1
  +--> ?PR?_PUTCHAR?IO

SET_PROTECTION_STATUS/SET_PROTECTION_...      ----- -----  ----- -----  ----- -----
  +--> ?PR?_SERIAL_RECEIVE_X_BYTES?IO
  +--> ?PR?_CONV_TWO_BYTES_TO_INT?CONV_TWO_B...
  +--> ?CO?TT40_API_JUMPTABLE?1

_CONV_TWO_BYTES_TO_INT/CONV_TWO_BYTES...      ----- -----  ----- -----  ----- -----
LX51 LINKER/LOCATER V4.10a                                                            10/17/2007  16:47:04  PAGE 7



SET_EXECUTE_ONLY_STATUS/SET_EXECUTE_O...      ----- -----  ----- -----  ----- -----
  +--> ?PR?_SERIAL_RECEIVE_X_BYTES?IO
  +--> ?PR?_CONV_TWO_BYTES_TO_INT?CONV_TWO_B...
  +--> ?CO?TT40_API_JUMPTABLE?1

SET_SECURITY_ACTION/SET_SECURITY_ACTION       ----- -----  ----- -----  ----- -----
  +--> ?CO?TT40_API_JUMPTABLE?1

SET_SECURITY_MASK/SET_SECURITY_MASK           ----- -----  ----- -----  ----- -----
  +--> ?CO?TT40_API_JUMPTABLE?1

SET_CLOCK/SET_CLOCK                           ----- -----  ----- -----  ----- -----
  +--> ?PR?_SERIAL_RECEIVE_X_BYTES?IO
  +--> ?CO?TT40_API_JUMPTABLE?1

SET_INTERRUPT_ENABLE/SET_INTERRUPT_EN...      ----- -----  ----- -----  ----- -----
  +--> ?PR?TT40_FSM_INTERFACE_SEGMENT?TT40_A...

GET_INTERRUPT_ENABLE/GET_INTERRUPT_EN...      ----- -----  ----- -----  ----- -----
  +--> ?PR?TT40_FSM_INTERFACE_SEGMENT?TT40_A...
  +--> ?PR?_PUTCHAR?IO

GET_FIRMWARE_VERSION/GET_FIRMWARE_VER...      ----- -----  ----- -----  ----- -----
  +--> ?CO?TT40_API_JUMPTABLE?1
  +--> ?PR?_PUTCHAR?IO

WRITE_UCM_BYTES_FLASH_MODE_FROM_IRAM_...      ----- -----  ----- -----  ----- -----
  +--> ?PR?_SERIAL_RECEIVE_X_BYTES?IO
  +--> ?PR?_CONV_TWO_BYTES_TO_INT?CONV_TWO_B...
  +--> ?PR?SOFTWARE_APIS_SEGMENT?SOFTWARE_APIS

SOFTWARE_APIS_SEGMENT/SOFTWARE_APIS           ----- -----  ----- -----  ----- -----
  +--> ?PR?TT40_FSM_INTERFACE_SEGMENT?TT40_A...

WRITE_BYTE_UCM_FLASH_MODE/WRITE_BYTE_...      ----- -----  ----- -----  ----- -----
  +--> ?PR?GETCHAR?IO
  +--> ?PR?_CONV_TWO_BYTES_TO_INT?CONV_TWO_B...
  +--> ?PR?TT40_FSM_INTERFACE_SEGMENT?TT40_A...

ERASE_256_UCM/ERASE_256_UCM                   ----- -----  ----- -----  ----- -----
  +--> ?PR?_CONV_TWO_BYTES_TO_INT?CONV_TWO_B...
  +--> ?PR?TT40_FSM_INTERFACE_SEGMENT?TT40_A...

MASS_ERASE_UCM_LEAVING_BOOTLOADER/TT4...      ----- -----  ----- -----  ----- -----
  +--> ?PR?TT40_FSM_INTERFACE_SEGMENT?TT40_A...
  +--> ?CO?TT40_API_JUMPTABLE?1

MASS_ERASE_UCM/MASS_ERASE_UCM                 ----- -----  ----- -----  ----- -----
  +--> ?PR?TT40_FSM_INTERFACE_SEGMENT?TT40_A...

ERASE_512_UCM/ERASE_512_UCM                   ----- -----  ----- -----  ----- -----
  +--> ?PR?_CONV_TWO_BYTES_TO_INT?CONV_TWO_B...
  +--> ?PR?TT40_FSM_INTERFACE_SEGMENT?TT40_A...

CHANGE_ISO_SPEED/CHANGE_ISO_SPEED             ----- -----  ----- -----  ----- -----
  +--> ?PR?_ISO_SELECT_SPEED?ISO_SELECT_SPEED

SET_SECURITY_STATUS/SET_SECURITY_STATUS       ----- -----  ----- -----  ----- -----

GET_SECURITY_STATUS/GET_SECURITY_STATUS       ----- -----  ----- -----  ----- -----
  +--> ?PR?_PUTCHAR?IO

TIMER0_START/TIMER0_FUNCTIONS                 ----- -----  ----- -----  ----- -----
  +--> ?PR?GETCHAR?IO
LX51 LINKER/LOCATER V4.10a                                                            10/17/2007  16:47:04  PAGE 8


  +--> ?PR?_TIMER0_SETUP?TIMER0_FUNCTIONS

_TIMER0_SETUP/TIMER0_FUNCTIONS                ----- -----  0022H 0024H  ----- -----
  +--> ?PR?TT40_FSM_INTERFACE_SEGMENT?TT40_A...

TIMER0_STOP/TIMER0_FUNCTIONS                  ----- -----  ----- -----  ----- -----
  +--> ?PR?TT40_FSM_INTERFACE_SEGMENT?TT40_A...

ERASE_UCM_BLOCKS__R6R7_PASSING/ERASE_...      ----- -----  ----- -----  ----- -----
  +--> ?PR?_CONV_TWO_BYTES_TO_INT?CONV_TWO_B...
  +--> ?CO?TT40_API_JUMPTABLE?1

GET_DIAGNOSTIC_DATA/GET_DIAGNOSTIC_DATA       ----- -----  ----- -----  ----- -----
  +--> ?CO?TT40_API_JUMPTABLE?1
  +--> ?PR?_SERIAL_TRANSMIT_X_BYTES?IO

SET_IDLE_MODE/SET_IDLE_MODE                   ----- -----  ----- -----  ----- -----

TIMER0_READ/TIMER0_FUNCTIONS                  ----- -----  ----- -----  ----- -----
  +--> ?PR?_PUTCHAR?IO

CALL_SHA1/SHA_1                               ----- -----  0022H 0026H  ----- -----
  +--> ?PR?_SHA_1_HASH?SHA_1
  +--> ?PR?_PUTCHAR?IO

_SHA_1_HASH/SHA_1                             ----- -----  0027H 005CH  005DH 009CH

CODE_MEMORY_DUMP/CODE_MEMORY_DUMP             ----- -----  ----- -----  ----- -----
  +--> ?PR?_PUTCHAR?IO

IDATA_MEMORY_DUMP/IDATA_MEMORY_DUMP           ----- -----  ----- -----  ----- -----
  +--> ?PR?_PUTCHAR?IO

XDATA_MEMORY_DUMP/XDATA_MEMORY_DUMP           ----- -----  ----- -----  ----- -----
  +--> ?PR?_PUTCHAR?IO

CREATE_CRC16_HASH_OF_XDATA/CRC16_NORMAL       ----- -----  0022H 0023H  ----- -----
  +--> ?PR?_CALCULATECRC?CRC16_NORMAL
  +--> ?PR?_PUTCHAR?IO

_CALCULATECRC/CRC16_NORMAL                    ----- -----  0024H 0027H  ----- -----
  +--> ?CO?CRC16_NORMAL

?CO?CRC16_NORMAL                              ----- -----  ----- -----  ----- -----

WRITE_TO_IRAM/WRITE_TO_IRAM                   ----- -----  ----- -----  ----- -----
  +--> ?PR?GETCHAR?IO

GET_OS_VERSION/TT40_GET_OS_VERSION            ----- -----  ----- -----  ----- -----
  +--> ?PR?_PUTCHAR?IO

USE_EMULATOR_API/USE_EMULATOR_API             ----- -----  ----- -----  ----- -----
  +--> ?PR?TT40_FSM_INTERFACE_SEGMENT?TT40_A...

WRITE_TO_XRAM/WRITE_TO_XRAM                   ----- -----  ----- -----  ----- -----
  +--> ?PR?GETCHAR?IO

GET_RESPONSE/GET_RESPONSE                     ----- -----  ----- -----  ----- -----
  +--> ?PR?_PUTCHAR?IO

WRITE_X_BYTES_TO_UCM/WRITE_X_BYTES_TO...      ----- -----  ----- -----  ----- -----
  +--> ?PR?_CONV_TWO_BYTES_TO_INT?CONV_TWO_B...
  +--> ?PR?GETCHAR?IO
  +--> ?PR?TT40_FSM_INTERFACE_SEGMENT?TT40_A...

LX51 LINKER/LOCATER V4.10a                                                            10/17/2007  16:47:04  PAGE 9


WRITE_X_BYTES_TO_UCM__256_PAGE_BACKUP...      ----- -----  0022H 0023H  005DH 0067H
  +--> ?PR?TT40_FSM_INTERFACE_SEGMENT?TT40_A...
  +--> ?PR?GETCHAR?IO

GET_IDLE_MODE/SET_IDLE_MODE                   ----- -----  ----- -----  ----- -----
  +--> ?PR?_PUTCHAR?IO

SET_PULLUP_RESISTOR/SET_PULLUP_RESISTOR       ----- -----  ----- -----  ----- -----
  +--> ?CO?TT40_API_JUMPTABLE?1

GET_PULLUP_RESISTOR/GET_PULLUP_RESISTOR       ----- -----  ----- -----  ----- -----
  +--> ?PR?_PUTCHAR?IO

?C_INITSEG                                    ----- -----  ----- -----  ----- -----

*** NEW ROOT ********************************

TIMER0_ISR/TT40_ISR                           ----- -----  ----- -----  ----- -----

*** NEW ROOT ********************************

SERIAL_ISR/TT40_ISR                           ----- -----  ----- -----  ----- -----

*** NEW ROOT ********************************

SECURITY_FAULT_ISR/TT40_ISR                   ----- -----  ----- -----  ----- -----
  +--> ?PR?_PUTCHAR?IO



PUBLIC SYMBOLS OF MODULE:  Generic_TT40_Example_C_Code (TT40_GET_OS_VERSION)


      VALUE       CLASS    TYPE      PUBLIC SYMBOL NAME
      =================================================
      01000F2FH   CODE     ---       ?C?CCASE
      01000E08H   CODE     ---       ?C?CLDPTR
      00000000H   NUMBER   ---       ?C?CODESEG
      01000F55H   CODE     ---       ?C?ICALL
      01000F59H   CODE     ---       ?C?ICALL2
      01000E76H   CODE     ---       ?C?LADD
      01000EE1H   CODE     ---       ?C?LLDIDATA
      01000EEDH   CODE     ---       ?C?LLDIDATA0
      01000E9DH   CODE     ---       ?C?LNOT
      01000E83H   CODE     ---       ?C?LOR
      01000ECEH   CODE     ---       ?C?LSHL
      01000EFAH   CODE     ---       ?C?LSTIDATA
      01000F06H   CODE     ---       ?C?LSTKIDATA
      01000E90H   CODE     ---       ?C?LXOR
      01000F1FH   CODE     ---       ?C?PLDIIDATA
      01000E21H   CODE     ---       ?C?UIDIV
      01000EAAH   CODE     ---       ?C?ULCMP
      01000EBBH   CODE     ---       ?C?ULSHR
      00000000H   NUMBER   ---       ?C?XDATASEG
      0100104EH   CODE     ---       ?C_START
      01000400H   CODE     NEAR LAB  ?C_STARTUP
      0100138BH   CODE     ---       _CalculateCRC
      01000426H   CODE     ---       _Conv_Two_Bytes_To_Int
      010011E9H   CODE     ---       _Enter_Idle_Mode
      01000F6BH   CODE     NEAR LAB  _FIRMWARE_ERASEPAGEUCM
      01000F6BH   CODE     NEAR LAB  _FIRMWARE_ERASEUCM256BYTES
      01000F80H   CODE     NEAR LAB  _FIRMWARE_ERASEUCM512BYTES
      010001D0H   CODE     NEAR LAB  _FIRMWARE_ERASEUCMBLOCK
      010001DAH   CODE     NEAR LAB  _FIRMWARE_GETCHIPID
      010001E2H   CODE     NEAR LAB  _FIRMWARE_GETCLOCKCONTROLSFR
LX51 LINKER/LOCATER V4.10a                                                            10/17/2007  16:47:04  PAGE 10


      010001E0H   CODE     NEAR LAB  _FIRMWARE_GETCLOCKSOURCESELECTSFR
      010001E4H   CODE     NEAR LAB  _FIRMWARE_GETDIAGNOSTICDATA
      010001DCH   CODE     NEAR LAB  _FIRMWARE_GETFIRMWAREVERSION
      01000FC5H   CODE     NEAR LAB  _FIRMWARE_MASSERASEUCM
      010001E6H   CODE     NEAR LAB  _FIRMWARE_SET_IO_PULLUP
      010001DEH   CODE     NEAR LAB  _FIRMWARE_SETCLOCK
      010001CEH   CODE     NEAR LAB  _FIRMWARE_SETCLOCKTRIM
      010001D6H   CODE     NEAR LAB  _FIRMWARE_SETEXECUTEONLYSTATUS
      01000FE7H   CODE     NEAR LAB  _FIRMWARE_SETINTERRUPTENABLE
      010001D8H   CODE     NEAR LAB  _FIRMWARE_SETPROTECTSTATUS
      010001D2H   CODE     NEAR LAB  _FIRMWARE_SETSECURITYACTION
      010001D4H   CODE     NEAR LAB  _FIRMWARE_SETSECURITYMASK
      01000F5EH   CODE     NEAR LAB  _FIRMWARE_USE_EMULATOR_API
      01000FA1H   CODE     NEAR LAB  _FIRMWARE_WRITEBYTEUCM
      010018ECH   CODE     NEAR LAB  _FIRMWARE_WRITEEE
      010018ECH   CODE     NEAR LAB  _Firmware_WriteUCM
      01000C85H   CODE     ---       _ISO_Select_Speed
      01001186H   CODE     NEAR LAB  _MASS_ERASE_UCM_LEAVING_BOOTLOADER
      01001965H   CODE     ---       _PutChar
      0100040EH   CODE     ---       _Serial_Receive_X_Bytes
      01001951H   CODE     ---       _Serial_Transmit_X_Bytes
      0100042EH   CODE     ---       _SHA_1_Hash
      0100179EH   CODE     ---       _Timer0_Setup
*SFR* 000000D0H.6 DATA     BIT       AC
*SFR* 000000E0H   DATA     BYTE      ACC
*SFR* 000000E8H   DATA     BIT       AM
      000000AAH   IDATA    ---       APDU_CMD
*SFR* 000000F0H   DATA     BYTE      B
      00000020H.1 DATA     BIT       bData_Present_After_New_Data_Temp_Page1
      00000020H.2 DATA     BIT       bData_Present_After_New_Data_Temp_Page2
      00000020H.0 DATA     BIT       bData_Present_Before_New_Data_Temp_Page1
      00000020H.3 DATA     BIT       bTwo_Page_Erase_Needed
      01001093H   CODE     ---       Call_SHA1
*SFR* 000000A1H   DATA     BYTE      CBSL
      01001977H   CODE     ---       Change_ISO_Speed
      010018CDH   CODE     ---       Chip_Init
      0100161FH   CODE     ---       CODE_Memory_Dump
      0000000BH   DATA     ---       CODE_PTR
      01001A0CH   CONST    ---       CRC16_LookUp_Table
      0100133CH   CODE     ---       Create_CRC16_Hash_Of_XDATA
      000000B8H   IDATA    CHAR      cRet_Val_Char
*SFR* 000000D0H.7 DATA     BIT       CY
*SFR* 00000083H   DATA     BYTE      DPH
*SFR* 00000083H   DATA     BYTE      DPH0
*SFR* 00000085H   DATA     BYTE      DPH1
*SFR* 00000082H   DATA     BYTE      DPL
*SFR* 00000082H   DATA     BYTE      DPL0
*SFR* 00000084H   DATA     BYTE      DPL1
*SFR* 00000086H   DATA     BYTE      DPS
*SFR* 00000093H   DATA     BYTE      DPX
*SFR* 00000093H   DATA     BYTE      DPX0
*SFR* 00000095H   DATA     BYTE      DPX1
*SFR* 000000E8H   DATA     BYTE      EPSW
      010016ADH   CODE     ---       Erase_256_UCM
      010016D7H   CODE     ---       Erase_512_UCM
      01001989H   CODE     ---       Erase_UCM_Blocks__R6R7_Passing
*SFR* 000000D0H.5 DATA     BIT       F0
*SFR* 000000E8H.1 DATA     BIT       F1
      01000F6BH   CODE     NEAR LAB  FIRMWARE_ERASEPAGEUCM
      01000F6BH   CODE     NEAR LAB  FIRMWARE_ERASEUCM256BYTES
      01000F80H   CODE     NEAR LAB  FIRMWARE_ERASEUCM512BYTES
      010001D0H   CODE     NEAR LAB  FIRMWARE_ERASEUCMBLOCK
      010001DAH   CODE     NEAR LAB  FIRMWARE_GETCHIPID
      010001E2H   CODE     NEAR LAB  FIRMWARE_GETCLOCKCONTROLSFR
      010001E0H   CODE     NEAR LAB  FIRMWARE_GETCLOCKSOURCESELECTSFR
LX51 LINKER/LOCATER V4.10a                                                            10/17/2007  16:47:04  PAGE 11


      010001E4H   CODE     NEAR LAB  FIRMWARE_GETDIAGNOSTICDATA
      010001DCH   CODE     NEAR LAB  Firmware_GetFirmwareVersion
      01000FF0H   CODE     NEAR LAB  FIRMWARE_GETINTERRUPTENABLE
      01000F5BH   CODE     NEAR LAB  FIRMWARE_INIT
      01000FC5H   CODE     NEAR LAB  FIRMWARE_MASSERASEUCM
      010001E6H   CODE     NEAR LAB  FIRMWARE_SET_IO_PULLUP
      010001DEH   CODE     NEAR LAB  FIRMWARE_SETCLOCK
      010001CEH   CODE     NEAR LAB  FIRMWARE_SETCLOCKTRIM
      010001D6H   CODE     NEAR LAB  FIRMWARE_SETEXECUTEONLYSTATUS
      010001D8H   CODE     NEAR LAB  FIRMWARE_SETPROTECTSTATUS
      010001D2H   CODE     NEAR LAB  FIRMWARE_SETSECURITYACTION
      010001D4H   CODE     NEAR LAB  FIRMWARE_SETSECURITYMASK
      01000FA1H   CODE     NEAR LAB  FIRMWARE_WRITEBYTEUCM
      010018ECH   CODE     NEAR LAB  FIRMWARE_WRITEEE
      010018ECH   CODE     NEAR LAB  FIRMWARE_WRITEUCM
*SFR* 00000080H   DATA     BIT       FSM_FINISH
*SFR* 00000080H.5 DATA     BIT       FSM_RESULT
*SFR* 00000080H.1 DATA     BIT       FSM_START
      01001568H   CODE     ---       Get_Chip_ID
      0100184BH   CODE     ---       Get_Clock_Control
      0100182AH   CODE     ---       Get_Clock_Source
      010015A7H   CODE     ---       Get_Diagnostic_Data
      0100186CH   CODE     ---       Get_Firmware_Version
      010017E7H   CODE     ---       Get_Idle_Mode
      01001809H   CODE     ---       Get_Interrupt_Enable
      010019BCH   CODE     ---       Get_OS_Version
      010017C4H   CODE     ---       Get_Pullup_Resistor
      01001529H   CODE     ---       Get_Response
      010018ADH   CODE     ---       Get_Security_Status
      01000403H   CODE     ---       GetChar
      01001920H   CODE     ---       IDATA_Memory_Dump
      00000008H   DATA     ---       IDATA_PTR
      000000A3H   IDATA    BYTE      IDLE_MODE
*SFR* 000000A8H   DATA     BYTE      IE
      01001C0CH   CONST    ---       INS_FPTR
      02000000H   XDATA    ---       IO_Buffer
*SFR* 000000B8H   DATA     BYTE      IP
      000000A4H   IDATA    INT       iRet_Val_Int
*SFR* 000000B2H   DATA     BYTE      ISOCON
*SFR* 000000B4H   DATA     BYTE      ISOTMR
      010015E6H   CODE     ---       main
      010019FDH   CODE     ---       Mass_Erase_UCM
      01001186H   CODE     NEAR LAB  MASS_ERASE_UCM_LEAVING_BOOTLOADER
*SFR* 000000F7H   DATA     BYTE      MFCON
*SFR* 00000088H.3 DATA     BIT       MFLT
*SFR* 000000A2H   DATA     BYTE      MPTR
*SFR* 000000EAH   DATA     BYTE      MPTRX
*SFR* 00000080H   DATA     BYTE      NVFSMCON
*SFR* 000000C9H   DATA     BYTE      NvFsmMode
*SFR* 000000D0H.2 DATA     BIT       OV
*SFR* 000000D0H   DATA     BIT       P
*SFR* 00000087H   DATA     BYTE      PCON
      01001111H   CODE     ---       Process_APDU_Command
      010019ACH   CODE     ---       Process_PPS_Command
*SFR* 000000C0H   DATA     BYTE      PROGIO
*SFR* 000000D0H   DATA     BYTE      PSW
*SFR* 000000C0H   DATA     BIT       PULLUP_RES_STATE
*SFR* 00000098H   DATA     BIT       RI
*SFR* 000000D0H.3 DATA     BIT       RS0
*SFR* 000000D0H.4 DATA     BIT       RS1
*SFR* 00000099H   DATA     BYTE      SBUF
*SFR* 00000098H   DATA     BYTE      SCON
      010013D9H   CODE     ---       Security_Fault_ISR
*SFR* 000000B0H   DATA     BYTE      SECURITYSTATUS
      01001701H   CODE     ---       Send_ATR
LX51 LINKER/LOCATER V4.10a                                                            10/17/2007  16:47:04  PAGE 12


      01000422H   CODE     ---       Serial_ISR
      010012ECH   CODE     ---       Set_Clock
      01001463H   CODE     ---       Set_Execute_Only_Status
      010019DAH   CODE     ---       Set_Idle_Mode
      010019E7H   CODE     ---       Set_Interrupt_Enable
      010014A5H   CODE     ---       Set_Protection_Status
      01001729H   CODE     ---       Set_Pullup_Resistor
      01001750H   CODE     ---       Set_Security_Action
      01001777H   CODE     ---       Set_Security_Mask
      010019F3H   CODE     ---       Set_Security_Status
*SFR* 00000088H.1 DATA     BIT       SINT
*SFR* 00000081H   DATA     BYTE      SP
*SFR* 000000D8H   DATA     BYTE      SPSW
*SFR* 00000088H   DATA     BIT       SSINT
      000000A8H   IDATA    WORD      SW1SW2
*SFR* 00000088H   DATA     BYTE      TCON
      000000B0H   IDATA    ---       TEMP_BUF
*SFR* 00000088H.5 DATA     BIT       TF0
*SFR* 00000088H.7 DATA     BIT       TF1
*SFR* 0000008CH   DATA     BYTE      TH0
*SFR* 0000008DH   DATA     BYTE      TH1
*SFR* 00000098H.1 DATA     BIT       TI
      000000A6H   IDATA    BYTE      Timer0_Int_Count
      010019CBH   CODE     ---       Timer0_ISR
      01001249H   CODE     ---       Timer0_Read
      0100193AH   CODE     ---       Timer0_Start
      0100199BH   CODE     ---       Timer0_Stop
      000000A7H   IDATA    BYTE      Timer1_Int_Count
*SFR* 0000008AH   DATA     BYTE      TL0
*SFR* 0000008BH   DATA     BYTE      TL1
*SFR* 00000089H   DATA     BYTE      TMOD
*SFR* 00000088H.4 DATA     BIT       TR0
*SFR* 00000088H.6 DATA     BIT       TR1
      000000AFH   IDATA    BYTE      ucCount
      00000020H   DATA     CHAR      ucTemp_Page_Status
      000000A1H   IDATA    WORD      uiTemp_Address
      0000009DH   IDATA    DWORD     ulTemp_Var
      0100188DH   CODE     ---       Use_Emulator_API
*SFR* 00000088H.1 DATA     BIT       USINT
      010014E7H   CODE     ---       Write_Byte_UCM_Flash_Mode
      01001906H   CODE     ---       Write_To_IRAM
      0100164FH   CODE     ---       Write_To_XRAM
      0100141EH   CODE     ---       Write_UCM_Bytes_Flash_Mode_From_IRAM_Buffer
      0100129BH   CODE     ---       Write_X_Bytes_To_UCM
      0100098EH   CODE     ---       Write_X_Bytes_To_UCM__256_Page_Backup_Handled
      0100167EH   CODE     ---       XDATA_Memory_Dump
      00000009H   DATA     ---       XDATA_PTR



SYMBOL TABLE OF MODULE:  Generic_TT40_Example_C_Code (TT40_GET_OS_VERSION)

      VALUE       REP       CLASS    TYPE      SYMBOL NAME
      ====================================================
      ---         MODULE    ---      ---       TT40_GET_OS_VERSION
      010019BCH   PUBLIC    CODE     ---       Get_OS_Version
      000000D0H.6 SFRSYM    DATA     BIT       AC
      00000080H   SFRSYM    DATA     BIT       FSM_FINISH
      00000083H   SFRSYM    DATA     BYTE      DPH0
      000000E8H   SFRSYM    DATA     BIT       AM
      000000A8H   SFRSYM    DATA     BYTE      IE
      00000085H   SFRSYM    DATA     BYTE      DPH1
      00000082H   SFRSYM    DATA     BYTE      DPL0
      00000084H   SFRSYM    DATA     BYTE      DPL1
      00000088H   SFRSYM    DATA     BIT       SSINT
LX51 LINKER/LOCATER V4.10a                                                            10/17/2007  16:47:04  PAGE 13


      000000C0H   SFRSYM    DATA     BIT       PULLUP_RES_STATE
      00000088H.1 SFRSYM    DATA     BIT       USINT
      000000B8H   SFRSYM    DATA     BYTE      IP
      00000098H   SFRSYM    DATA     BIT       RI
      000000D0H.7 SFRSYM    DATA     BIT       CY
      00000098H.1 SFRSYM    DATA     BIT       TI
      000000EAH   SFRSYM    DATA     BYTE      MPTRX
      00000093H   SFRSYM    DATA     BYTE      DPX0
      00000095H   SFRSYM    DATA     BYTE      DPX1
      00000081H   SFRSYM    DATA     BYTE      SP
      000000D0H.2 SFRSYM    DATA     BIT       OV
      000000A1H   SFRSYM    DATA     BYTE      CBSL
      00000080H.5 SFRSYM    DATA     BIT       FSM_RESULT
      00000099H   SFRSYM    DATA     BYTE      SBUF
      00000087H   SFRSYM    DATA     BYTE      PCON
      00000088H.3 SFRSYM    DATA     BIT       MFLT
      00000098H   SFRSYM    DATA     BYTE      SCON
      00000089H   SFRSYM    DATA     BYTE      TMOD
      00000088H   SFRSYM    DATA     BYTE      TCON
      00000088H.1 SFRSYM    DATA     BIT       SINT
      000000E8H   SFRSYM    DATA     BYTE      EPSW
      000000F0H   SFRSYM    DATA     BYTE      B
      000000A2H   SFRSYM    DATA     BYTE      MPTR
      000000E0H   SFRSYM    DATA     BYTE      ACC
      00000088H.5 SFRSYM    DATA     BIT       TF0
      00000088H.7 SFRSYM    DATA     BIT       TF1
      0000008CH   SFRSYM    DATA     BYTE      TH0
      000000B2H   SFRSYM    DATA     BYTE      ISOCON
      0000008DH   SFRSYM    DATA     BYTE      TH1
      000000D8H   SFRSYM    DATA     BYTE      SPSW
      000000D0H   SFRSYM    DATA     BIT       P
      0000008AH   SFRSYM    DATA     BYTE      TL0
      0000008BH   SFRSYM    DATA     BYTE      TL1
      000000C0H   SFRSYM    DATA     BYTE      PROGIO
      000000D0H.3 SFRSYM    DATA     BIT       RS0
      00000088H.4 SFRSYM    DATA     BIT       TR0
      000000D0H.4 SFRSYM    DATA     BIT       RS1
      00000080H.1 SFRSYM    DATA     BIT       FSM_START
      00000088H.6 SFRSYM    DATA     BIT       TR1
      00000083H   SFRSYM    DATA     BYTE      DPH
      000000B4H   SFRSYM    DATA     BYTE      ISOTMR
      00000082H   SFRSYM    DATA     BYTE      DPL
      000000B0H   SFRSYM    DATA     BYTE      SECURITYSTATUS
      00000086H   SFRSYM    DATA     BYTE      DPS
      00000093H   SFRSYM    DATA     BYTE      DPX
      00000080H   SFRSYM    DATA     BYTE      NVFSMCON
      000000F7H   SFRSYM    DATA     BYTE      MFCON
      000000C9H   SFRSYM    DATA     BYTE      NvFsmMode
      000000D0H.5 SFRSYM    DATA     BIT       F0
      000000E8H.1 SFRSYM    DATA     BIT       F1
      000000D0H   SFRSYM    DATA     BYTE      PSW

      010019BCH   BLOCK     CODE     ---       LVL=0
      010019BCH   LINE      CODE     ---       #58
      010019BCH   LINE      CODE     ---       #59
      010019BCH   LINE      CODE     ---       #60
      010019C1H   LINE      CODE     ---       #61
      010019C6H   LINE      CODE     ---       #63
      010019CAH   LINE      CODE     ---       #65
      ---         BLOCKEND  ---      ---       LVL=0

      ---         MODULE    ---      ---       TT40_SEND_ATR
      01001701H   PUBLIC    CODE     ---       Send_ATR
      000000D0H.6 SFRSYM    DATA     BIT       AC
      00000080H   SFRSYM    DATA     BIT       FSM_FINISH
LX51 LINKER/LOCATER V4.10a                                                            10/17/2007  16:47:04  PAGE 14


      00000083H   SFRSYM    DATA     BYTE      DPH0
      000000E8H   SFRSYM    DATA     BIT       AM
      000000A8H   SFRSYM    DATA     BYTE      IE
      00000085H   SFRSYM    DATA     BYTE      DPH1
      00000082H   SFRSYM    DATA     BYTE      DPL0
      00000084H   SFRSYM    DATA     BYTE      DPL1
      00000088H   SFRSYM    DATA     BIT       SSINT
      000000C0H   SFRSYM    DATA     BIT       PULLUP_RES_STATE
      00000088H.1 SFRSYM    DATA     BIT       USINT
      000000B8H   SFRSYM    DATA     BYTE      IP
      00000098H   SFRSYM    DATA     BIT       RI
      000000D0H.7 SFRSYM    DATA     BIT       CY
      00000098H.1 SFRSYM    DATA     BIT       TI
      000000EAH   SFRSYM    DATA     BYTE      MPTRX
      00000093H   SFRSYM    DATA     BYTE      DPX0
      00000095H   SFRSYM    DATA     BYTE      DPX1
      00000081H   SFRSYM    DATA     BYTE      SP
      000000D0H.2 SFRSYM    DATA     BIT       OV
      000000A1H   SFRSYM    DATA     BYTE      CBSL
      00000080H.5 SFRSYM    DATA     BIT       FSM_RESULT
      00000099H   SFRSYM    DATA     BYTE      SBUF
      00000087H   SFRSYM    DATA     BYTE      PCON
      00000088H.3 SFRSYM    DATA     BIT       MFLT
      00000098H   SFRSYM    DATA     BYTE      SCON
      00000089H   SFRSYM    DATA     BYTE      TMOD
      00000088H   SFRSYM    DATA     BYTE      TCON
      00000088H.1 SFRSYM    DATA     BIT       SINT
      000000E8H   SFRSYM    DATA     BYTE      EPSW
      000000F0H   SFRSYM    DATA     BYTE      B
      000000A2H   SFRSYM    DATA     BYTE      MPTR
      000000E0H   SFRSYM    DATA     BYTE      ACC
      00000088H.5 SFRSYM    DATA     BIT       TF0
      00000088H.7 SFRSYM    DATA     BIT       TF1
      0000008CH   SFRSYM    DATA     BYTE      TH0
      000000B2H   SFRSYM    DATA     BYTE      ISOCON
      0000008DH   SFRSYM    DATA     BYTE      TH1
      000000D8H   SFRSYM    DATA     BYTE      SPSW
      000000D0H   SFRSYM    DATA     BIT       P
      0000008AH   SFRSYM    DATA     BYTE      TL0
      0000008BH   SFRSYM    DATA     BYTE      TL1
      000000C0H   SFRSYM    DATA     BYTE      PROGIO
      000000D0H.3 SFRSYM    DATA     BIT       RS0
      00000088H.4 SFRSYM    DATA     BIT       TR0
      000000D0H.4 SFRSYM    DATA     BIT       RS1
      00000080H.1 SFRSYM    DATA     BIT       FSM_START
      00000088H.6 SFRSYM    DATA     BIT       TR1
      00000083H   SFRSYM    DATA     BYTE      DPH
      000000B4H   SFRSYM    DATA     BYTE      ISOTMR
      00000082H   SFRSYM    DATA     BYTE      DPL
      000000B0H   SFRSYM    DATA     BYTE      SECURITYSTATUS
      00000086H   SFRSYM    DATA     BYTE      DPS
      00000093H   SFRSYM    DATA     BYTE      DPX
      00000080H   SFRSYM    DATA     BYTE      NVFSMCON
      000000F7H   SFRSYM    DATA     BYTE      MFCON
      000000C9H   SFRSYM    DATA     BYTE      NvFsmMode
      000000D0H.5 SFRSYM    DATA     BIT       F0
      000000E8H.1 SFRSYM    DATA     BIT       F1
      000000D0H   SFRSYM    DATA     BYTE      PSW

      01001701H   BLOCK     CODE     ---       LVL=0
      01001701H   LINE      CODE     ---       #47
      01001701H   LINE      CODE     ---       #48
      01001701H   LINE      CODE     ---       #49
      01001706H   LINE      CODE     ---       #51
      0100170BH   LINE      CODE     ---       #53
LX51 LINKER/LOCATER V4.10a                                                            10/17/2007  16:47:04  PAGE 15


      01001710H   LINE      CODE     ---       #55
      01001715H   LINE      CODE     ---       #57
      0100171AH   LINE      CODE     ---       #59
      0100171FH   LINE      CODE     ---       #61
      01001726H   LINE      CODE     ---       #63
      ---         BLOCKEND  ---      ---       LVL=0

      ---         MODULE    ---      ---       ?C_STARTUP
      01000400H   PUBLIC    CODE     NEAR LAB  ?C_STARTUP
      00000081H   SFRSYM    DATA     BYTE      SP
      00000000H   SYMBOL    NUMBER   ---       IBPSTACK
      00000100H   SYMBOL    NUMBER   ---       IBPSTACKTOP
      00000100H   SYMBOL    NUMBER   ---       IDATALEN
      01000FFCH   SYMBOL    CODE     NEAR LAB  IDATALOOP
      00000000H   SYMBOL    NUMBER   ---       PBPSTACK
      00010000H   SYMBOL    NUMBER   ---       PBPSTACKTOP
      00000000H   SYMBOL    NUMBER   ---       PDATALEN
      00000000H   SYMBOL    NUMBER   ---       PDATASTART
      00000000H   SYMBOL    NUMBER   ---       PPAGE
      00000000H   SYMBOL    NUMBER   ---       PPAGEENABLE
      01000FF9H   SYMBOL    CODE     NEAR LAB  STARTUP1
      00000000H   SYMBOL    NUMBER   ---       XBPSTACK
      00010000H   SYMBOL    NUMBER   ---       XBPSTACKTOP
      00000200H   SYMBOL    NUMBER   ---       XDATALEN
      01001007H   SYMBOL    CODE     NEAR LAB  XDATALOOP
      0000B000H   SYMBOL    NUMBER   ---       XDATASTART

      01000400H   BLOCK     CODE     NEAR LAB  LVL=0
      01000400H   LINE      CODE     ---       #91
      ---         BLOCKEND  ---      ---       LVL=0

      01000FF9H   BLOCK     CODE     NEAR LAB  LVL=0
      01000FF9H   LINE      CODE     ---       #99
      01000FFBH   LINE      CODE     ---       #100
      01000FFCH   LINE      CODE     ---       #101
      01000FFDH   LINE      CODE     ---       #102
      01000FFFH   LINE      CODE     ---       #107
      01001002H   LINE      CODE     ---       #108
      01001004H   LINE      CODE     ---       #114
      01001006H   LINE      CODE     ---       #117
      01001007H   LINE      CODE     ---       #118
      01001008H   LINE      CODE     ---       #119
      01001009H   LINE      CODE     ---       #120
      0100100BH   LINE      CODE     ---       #121
      0100100DH   LINE      CODE     ---       #161
      01001010H   LINE      CODE     ---       #162
      ---         BLOCKEND  ---      ---       LVL=0

      ---         MODULE    ---      ---       TT40_ISR
      010013D9H   PUBLIC    CODE     ---       Security_Fault_ISR
      01000422H   PUBLIC    CODE     ---       Serial_ISR
      010019CBH   PUBLIC    CODE     ---       Timer0_ISR
      000000D0H.6 SFRSYM    DATA     BIT       AC
      00000080H   SFRSYM    DATA     BIT       FSM_FINISH
      00000083H   SFRSYM    DATA     BYTE      DPH0
      000000E8H   SFRSYM    DATA     BIT       AM
      000000A8H   SFRSYM    DATA     BYTE      IE
      00000085H   SFRSYM    DATA     BYTE      DPH1
      00000082H   SFRSYM    DATA     BYTE      DPL0
      00000084H   SFRSYM    DATA     BYTE      DPL1
      00000088H   SFRSYM    DATA     BIT       SSINT
      000000C0H   SFRSYM    DATA     BIT       PULLUP_RES_STATE
      00000088H.1 SFRSYM    DATA     BIT       USINT
      000000B8H   SFRSYM    DATA     BYTE      IP
      00000098H   SFRSYM    DATA     BIT       RI
LX51 LINKER/LOCATER V4.10a                                                            10/17/2007  16:47:04  PAGE 16


      000000D0H.7 SFRSYM    DATA     BIT       CY
      00000098H.1 SFRSYM    DATA     BIT       TI
      000000EAH   SFRSYM    DATA     BYTE      MPTRX
      00000093H   SFRSYM    DATA     BYTE      DPX0
      00000095H   SFRSYM    DATA     BYTE      DPX1
      00000081H   SFRSYM    DATA     BYTE      SP
      000000D0H.2 SFRSYM    DATA     BIT       OV
      000000A1H   SFRSYM    DATA     BYTE      CBSL
      00000080H.5 SFRSYM    DATA     BIT       FSM_RESULT
      00000099H   SFRSYM    DATA     BYTE      SBUF
      00000087H   SFRSYM    DATA     BYTE      PCON
      00000088H.3 SFRSYM    DATA     BIT       MFLT
      00000098H   SFRSYM    DATA     BYTE      SCON
      00000089H   SFRSYM    DATA     BYTE      TMOD
      00000088H   SFRSYM    DATA     BYTE      TCON
      00000088H.1 SFRSYM    DATA     BIT       SINT
      000000E8H   SFRSYM    DATA     BYTE      EPSW
      000000F0H   SFRSYM    DATA     BYTE      B
      000000A2H   SFRSYM    DATA     BYTE      MPTR
      000000E0H   SFRSYM    DATA     BYTE      ACC
      00000088H.5 SFRSYM    DATA     BIT       TF0
      00000088H.7 SFRSYM    DATA     BIT       TF1
      0000008CH   SFRSYM    DATA     BYTE      TH0
      000000B2H   SFRSYM    DATA     BYTE      ISOCON
      0000008DH   SFRSYM    DATA     BYTE      TH1
      000000D8H   SFRSYM    DATA     BYTE      SPSW
      000000D0H   SFRSYM    DATA     BIT       P
      0000008AH   SFRSYM    DATA     BYTE      TL0
      0000008BH   SFRSYM    DATA     BYTE      TL1
      000000C0H   SFRSYM    DATA     BYTE      PROGIO
      000000D0H.3 SFRSYM    DATA     BIT       RS0
      00000088H.4 SFRSYM    DATA     BIT       TR0
      000000D0H.4 SFRSYM    DATA     BIT       RS1
      00000080H.1 SFRSYM    DATA     BIT       FSM_START
      00000088H.6 SFRSYM    DATA     BIT       TR1
      00000083H   SFRSYM    DATA     BYTE      DPH
      000000B4H   SFRSYM    DATA     BYTE      ISOTMR
      00000082H   SFRSYM    DATA     BYTE      DPL
      000000B0H   SFRSYM    DATA     BYTE      SECURITYSTATUS
      00000086H   SFRSYM    DATA     BYTE      DPS
      00000093H   SFRSYM    DATA     BYTE      DPX
      00000080H   SFRSYM    DATA     BYTE      NVFSMCON
      000000F7H   SFRSYM    DATA     BYTE      MFCON
      000000C9H   SFRSYM    DATA     BYTE      NvFsmMode
      000000D0H.5 SFRSYM    DATA     BIT       F0
      000000E8H.1 SFRSYM    DATA     BIT       F1
      000000D0H   SFRSYM    DATA     BYTE      PSW

      010019CBH   BLOCK     CODE     ---       LVL=0
      010019CBH   LINE      CODE     ---       #66
      010019D2H   LINE      CODE     ---       #68
      010019D5H   LINE      CODE     ---       #69
      ---         BLOCKEND  ---      ---       LVL=0

      01000422H   BLOCK     CODE     ---       LVL=0
      01000422H   LINE      CODE     ---       #80
      01000422H   LINE      CODE     ---       #83
      ---         BLOCKEND  ---      ---       LVL=0

      010013D9H   BLOCK     CODE     ---       LVL=0
      010013D9H   LINE      CODE     ---       #94
      010013F6H   LINE      CODE     ---       #98
      010013FBH   LINE      CODE     ---       #100
      01001400H   LINE      CODE     ---       #102
      01001403H   LINE      CODE     ---       #116
LX51 LINKER/LOCATER V4.10a                                                            10/17/2007  16:47:04  PAGE 17


      ---         BLOCKEND  ---      ---       LVL=0

      ---         MODULE    ---      ---       TT40_API_JUMPTABLE
      01000F6BH   PUBLIC    CODE     NEAR LAB  _FIRMWARE_ERASEPAGEUCM
      01000F6BH   PUBLIC    CODE     NEAR LAB  _FIRMWARE_ERASEUCM256BYTES
      01000F80H   PUBLIC    CODE     NEAR LAB  _FIRMWARE_ERASEUCM512BYTES
      010001D0H   PUBLIC    CODE     NEAR LAB  _FIRMWARE_ERASEUCMBLOCK
      010001DAH   PUBLIC    CODE     NEAR LAB  _FIRMWARE_GETCHIPID
      010001E2H   PUBLIC    CODE     NEAR LAB  _FIRMWARE_GETCLOCKCONTROLSFR
      010001E0H   PUBLIC    CODE     NEAR LAB  _FIRMWARE_GETCLOCKSOURCESELECTSFR
      010001E4H   PUBLIC    CODE     NEAR LAB  _FIRMWARE_GETDIAGNOSTICDATA
      010001DCH   PUBLIC    CODE     NEAR LAB  _FIRMWARE_GETFIRMWAREVERSION
      01000FC5H   PUBLIC    CODE     NEAR LAB  _FIRMWARE_MASSERASEUCM
      010001E6H   PUBLIC    CODE     NEAR LAB  _FIRMWARE_SET_IO_PULLUP
      010001DEH   PUBLIC    CODE     NEAR LAB  _FIRMWARE_SETCLOCK
      010001CEH   PUBLIC    CODE     NEAR LAB  _FIRMWARE_SETCLOCKTRIM
      010001D6H   PUBLIC    CODE     NEAR LAB  _FIRMWARE_SETEXECUTEONLYSTATUS
      01000FE7H   PUBLIC    CODE     NEAR LAB  _FIRMWARE_SETINTERRUPTENABLE
      010001D8H   PUBLIC    CODE     NEAR LAB  _FIRMWARE_SETPROTECTSTATUS
      010001D2H   PUBLIC    CODE     NEAR LAB  _FIRMWARE_SETSECURITYACTION
      010001D4H   PUBLIC    CODE     NEAR LAB  _FIRMWARE_SETSECURITYMASK
      01000F5EH   PUBLIC    CODE     NEAR LAB  _FIRMWARE_USE_EMULATOR_API
      01000FA1H   PUBLIC    CODE     NEAR LAB  _FIRMWARE_WRITEBYTEUCM
      01000F6BH   PUBLIC    CODE     NEAR LAB  FIRMWARE_ERASEPAGEUCM
      01000F6BH   PUBLIC    CODE     NEAR LAB  FIRMWARE_ERASEUCM256BYTES
      01000F80H   PUBLIC    CODE     NEAR LAB  FIRMWARE_ERASEUCM512BYTES
      010001D0H   PUBLIC    CODE     NEAR LAB  FIRMWARE_ERASEUCMBLOCK
      010001DAH   PUBLIC    CODE     NEAR LAB  FIRMWARE_GETCHIPID
      010001E2H   PUBLIC    CODE     NEAR LAB  FIRMWARE_GETCLOCKCONTROLSFR
      010001E0H   PUBLIC    CODE     NEAR LAB  FIRMWARE_GETCLOCKSOURCESELECTSFR
      010001E4H   PUBLIC    CODE     NEAR LAB  FIRMWARE_GETDIAGNOSTICDATA
      010001DCH   PUBLIC    CODE     NEAR LAB  FIRMWARE_GETFIRMWAREVERSION
      01000FF0H   PUBLIC    CODE     NEAR LAB  FIRMWARE_GETINTERRUPTENABLE
      01000F5BH   PUBLIC    CODE     NEAR LAB  FIRMWARE_INIT
      01000FC5H   PUBLIC    CODE     NEAR LAB  FIRMWARE_MASSERASEUCM
      010001E6H   PUBLIC    CODE     NEAR LAB  FIRMWARE_SET_IO_PULLUP
      010001DEH   PUBLIC    CODE     NEAR LAB  FIRMWARE_SETCLOCK
      010001CEH   PUBLIC    CODE     NEAR LAB  FIRMWARE_SETCLOCKTRIM
      010001D6H   PUBLIC    CODE     NEAR LAB  FIRMWARE_SETEXECUTEONLYSTATUS
      010001D8H   PUBLIC    CODE     NEAR LAB  FIRMWARE_SETPROTECTSTATUS
      010001D2H   PUBLIC    CODE     NEAR LAB  FIRMWARE_SETSECURITYACTION
      010001D4H   PUBLIC    CODE     NEAR LAB  FIRMWARE_SETSECURITYMASK
      01000FA1H   PUBLIC    CODE     NEAR LAB  FIRMWARE_WRITEBYTEUCM
      000000D0H.6 SFRSYM    DATA     BIT       AC
      000000E0H   SFRSYM    DATA     BYTE      ACC
      000000E8H   SFRSYM    DATA     BIT       AM
      000000F0H   SFRSYM    DATA     BYTE      B
      000000A1H   SFRSYM    DATA     BYTE      CBSL
      000000D0H.7 SFRSYM    DATA     BIT       CY
      00000083H   SFRSYM    DATA     BYTE      DPH
      00000083H   SFRSYM    DATA     BYTE      DPH0
      00000085H   SFRSYM    DATA     BYTE      DPH1
      00000082H   SFRSYM    DATA     BYTE      DPL
      00000082H   SFRSYM    DATA     BYTE      DPL0
      00000084H   SFRSYM    DATA     BYTE      DPL1
      00000086H   SFRSYM    DATA     BYTE      DPS
      00000093H   SFRSYM    DATA     BYTE      DPX
      00000093H   SFRSYM    DATA     BYTE      DPX0
      00000095H   SFRSYM    DATA     BYTE      DPX1
      000000E8H   SFRSYM    DATA     BYTE      EPSW
      000000D0H.5 SFRSYM    DATA     BIT       F0
      000000E8H.1 SFRSYM    DATA     BIT       F1
      00000080H   SFRSYM    DATA     BIT       FSM_FINISH
      00000080H.5 SFRSYM    DATA     BIT       FSM_RESULT
      00000080H.1 SFRSYM    DATA     BIT       FSM_START
LX51 LINKER/LOCATER V4.10a                                                            10/17/2007  16:47:04  PAGE 18


      000000A8H   SFRSYM    DATA     BYTE      IE
      000000B8H   SFRSYM    DATA     BYTE      IP
      000000B2H   SFRSYM    DATA     BYTE      ISOCON
      000000B4H   SFRSYM    DATA     BYTE      ISOTMR
      000000F7H   SFRSYM    DATA     BYTE      MFCON
      00000088H.3 SFRSYM    DATA     BIT       MFLT
      000000A2H   SFRSYM    DATA     BYTE      MPTR
      000000EAH   SFRSYM    DATA     BYTE      MPTRX
      00000080H   SFRSYM    DATA     BYTE      NVFSMCON
      000000C9H   SFRSYM    DATA     BYTE      NVFSMMODE
      000000D0H.2 SFRSYM    DATA     BIT       OV
      000000D0H   SFRSYM    DATA     BIT       P
      00000087H   SFRSYM    DATA     BYTE      PCON
      000000C0H   SFRSYM    DATA     BYTE      PROGIO
      000000D0H   SFRSYM    DATA     BYTE      PSW
      000000C0H   SFRSYM    DATA     BIT       PULLUP_RES_STATE
      00000098H   SFRSYM    DATA     BIT       RI
      000000D0H.3 SFRSYM    DATA     BIT       RS0
      000000D0H.4 SFRSYM    DATA     BIT       RS1
      00000099H   SFRSYM    DATA     BYTE      SBUF
      00000098H   SFRSYM    DATA     BYTE      SCON
      000000B0H   SFRSYM    DATA     BYTE      SECURITYSTATUS
      00000088H.1 SFRSYM    DATA     BIT       SINT
      00000081H   SFRSYM    DATA     BYTE      SP
      000000D8H   SFRSYM    DATA     BYTE      SPSW
      00000088H   SFRSYM    DATA     BIT       SSINT
      00000088H   SFRSYM    DATA     BYTE      TCON
      00000088H.5 SFRSYM    DATA     BIT       TF0
      00000088H.7 SFRSYM    DATA     BIT       TF1
      0000008CH   SFRSYM    DATA     BYTE      TH0
      0000008DH   SFRSYM    DATA     BYTE      TH1
      00000098H.1 SFRSYM    DATA     BIT       TI
      0000008AH   SFRSYM    DATA     BYTE      TL0
      0000008BH   SFRSYM    DATA     BYTE      TL1
      00000089H   SFRSYM    DATA     BYTE      TMOD
      00000088H.4 SFRSYM    DATA     BIT       TR0
      00000088H.6 SFRSYM    DATA     BIT       TR1
      00000088H.1 SFRSYM    DATA     BIT       USINT
      01000FD5H   SYMBOL    CODE     NEAR LAB  _ADDRESS_BOUNDARY_CHECK
      010001ECH   SYMBOL    CODE     NEAR LAB  _FIRMWARE_API_ERASEPAGEUCM
      010001F0H   SYMBOL    CODE     NEAR LAB  _FIRMWARE_API_GETINTERRUPTENABLE
      010001EAH   SYMBOL    CODE     NEAR LAB  _FIRMWARE_API_MASSERASEUCM
      010001EEH   SYMBOL    CODE     NEAR LAB  _FIRMWARE_API_SETINTERRUPTENABLE
      010001E8H   SYMBOL    CODE     NEAR LAB  _FIRMWARE_API_WRITEBYTEUCM
      01000F68H   SYMBOL    CODE     NEAR LAB  _FIRMWARE_USE_EMULATOR_API_FAIL
      01000F65H   SYMBOL    CODE     NEAR LAB  _FIRMWARE_USE_EMULATOR_API_SUCCESS
      01000FD5H   SYMBOL    CODE     NEAR LAB  ADDRESS_BOUNDARY_CHECK
      01000FE4H   SYMBOL    CODE     NEAR LAB  ADDRESS_ERROR
      01000F7DH   SYMBOL    CODE     NEAR LAB  ERASEPAGEUCM_EMULATOR
      01000F92H   SYMBOL    CODE     NEAR LAB  ERASEUCM512BYTES_EMULATOR
      010001ECH   SYMBOL    CODE     NEAR LAB  FIRMWARE_API_ERASEPAGEUCM
      010001F0H   SYMBOL    CODE     NEAR LAB  FIRMWARE_API_GETINTERRUPTENABLE
      010001EAH   SYMBOL    CODE     NEAR LAB  FIRMWARE_API_MASSERASEUCM
      01000FB4H   SYMBOL    CODE     NEAR LAB  FIRMWARE_API_RUN_STATE_MACHINE
      01000FC4H   SYMBOL    CODE     NEAR LAB  FIRMWARE_API_RUN_STATE_MACHINE__RETURN
      010001EEH   SYMBOL    CODE     NEAR LAB  FIRMWARE_API_SETINTERRUPTENABLE
      010001E8H   SYMBOL    CODE     NEAR LAB  FIRMWARE_API_WRITEBYTEUCM
      01000FF6H   SYMBOL    CODE     NEAR LAB  GETINTERRUPTENABLE_EMULATOR
      01000FD2H   SYMBOL    CODE     NEAR LAB  MASSERASEUCM_EMULATOR
      01000FE1H   SYMBOL    CODE     NEAR LAB  RETURN_ERROR
      01000FEDH   SYMBOL    CODE     NEAR LAB  SETINTERRUPTENABLE_EMULATOR
      00000025H   SYMBOL    DATA     BYTE      TEMP_ADDR_HI
      00000026H   SYMBOL    DATA     BYTE      TEMP_ADDR_LO
      00000021H.0 SYMBOL    BIT      BIT       USE_EMULATOR_API
      01000FB1H   SYMBOL    CODE     NEAR LAB  WRITEBYTEUCM_EMULATOR
LX51 LINKER/LOCATER V4.10a                                                            10/17/2007  16:47:04  PAGE 19



      01000F5BH   BLOCK     CODE     NEAR LAB  LVL=0
      01000F5BH   LINE      CODE     ---       #163
      01000F5DH   LINE      CODE     ---       #165
      01000F5EH   LINE      CODE     ---       #202
      01000F5FH   LINE      CODE     ---       #203
      01000F61H   LINE      CODE     ---       #204
      01000F63H   LINE      CODE     ---       #205
      01000F65H   LINE      CODE     ---       #210
      01000F67H   LINE      CODE     ---       #211
      01000F68H   LINE      CODE     ---       #214
      01000F6AH   LINE      CODE     ---       #215
      01000F6BH   LINE      CODE     ---       #226
      01000F6EH   LINE      CODE     ---       #227
      01000F70H   LINE      CODE     ---       #230
      01000F73H   LINE      CODE     ---       #233
      01000F75H   LINE      CODE     ---       #234
      01000F77H   LINE      CODE     ---       #237
      01000F7AH   LINE      CODE     ---       #239
      01000F7DH   LINE      CODE     ---       #243
      01000F80H   LINE      CODE     ---       #253
      01000F83H   LINE      CODE     ---       #254
      01000F85H   LINE      CODE     ---       #257
      01000F88H   LINE      CODE     ---       #260
      01000F8AH   LINE      CODE     ---       #261
      01000F8CH   LINE      CODE     ---       #264
      01000F8FH   LINE      CODE     ---       #266
      01000F92H   LINE      CODE     ---       #271
      01000F94H   LINE      CODE     ---       #272
      01000F96H   LINE      CODE     ---       #273
      01000F99H   LINE      CODE     ---       #275
      01000F9BH   LINE      CODE     ---       #276
      01000F9CH   LINE      CODE     ---       #277
      01000F9EH   LINE      CODE     ---       #278
      01000FA1H   LINE      CODE     ---       #288
      01000FA4H   LINE      CODE     ---       #289
      01000FA6H   LINE      CODE     ---       #292
      01000FA9H   LINE      CODE     ---       #295
      01000FABH   LINE      CODE     ---       #296
      01000FADH   LINE      CODE     ---       #299
      01000FB0H   LINE      CODE     ---       #302
      01000FB1H   LINE      CODE     ---       #305
      01000FB4H   LINE      CODE     ---       #319
      01000FB5H   LINE      CODE     ---       #321
      01000FB8H   LINE      CODE     ---       #322
      01000FBBH   LINE      CODE     ---       #324
      01000FBDH   LINE      CODE     ---       #329
      01000FBFH   LINE      CODE     ---       #330
      01000FC2H   LINE      CODE     ---       #331
      01000FC4H   LINE      CODE     ---       #335
      01000FC5H   LINE      CODE     ---       #344
      01000FC8H   LINE      CODE     ---       #350
      01000FCBH   LINE      CODE     ---       #351
      01000FCEH   LINE      CODE     ---       #352
      01000FD1H   LINE      CODE     ---       #353
      01000FD2H   LINE      CODE     ---       #356
      01000FD5H   LINE      CODE     ---       #368
      01000FD6H   LINE      CODE     ---       #369
      01000FD7H   LINE      CODE     ---       #370
      01000FD9H   LINE      CODE     ---       #371
      01000FDBH   LINE      CODE     ---       #372
      01000FDDH   LINE      CODE     ---       #374
      01000FDFH   LINE      CODE     ---       #376
      01000FE0H   LINE      CODE     ---       #378
      01000FE1H   LINE      CODE     ---       #381
LX51 LINKER/LOCATER V4.10a                                                            10/17/2007  16:47:04  PAGE 20


      01000FE3H   LINE      CODE     ---       #383
      01000FE4H   LINE      CODE     ---       #388
      01000FE6H   LINE      CODE     ---       #390
      01000FE7H   LINE      CODE     ---       #398
      01000FEAH   LINE      CODE     ---       #401
      01000FECH   LINE      CODE     ---       #402
      01000FEDH   LINE      CODE     ---       #405
      01000FF0H   LINE      CODE     ---       #414
      01000FF3H   LINE      CODE     ---       #417
      01000FF5H   LINE      CODE     ---       #418
      01000FF6H   LINE      CODE     ---       #421
      ---         BLOCKEND  ---      ---       LVL=0

      ---         MODULE    ---      ---       TT40_MASS_ERASE_UCM_LEAVING_BOOTLOADER
      01001186H   PUBLIC    CODE     NEAR LAB  _MASS_ERASE_UCM_LEAVING_BOOTLOADER
      01001186H   PUBLIC    CODE     NEAR LAB  MASS_ERASE_UCM_LEAVING_BOOTLOADER
      000000D0H.6 SFRSYM    DATA     BIT       AC
      000000E0H   SFRSYM    DATA     BYTE      ACC
      000000E8H   SFRSYM    DATA     BIT       AM
      000000F0H   SFRSYM    DATA     BYTE      B
      000000A1H   SFRSYM    DATA     BYTE      CBSL
      000000D0H.7 SFRSYM    DATA     BIT       CY
      00000083H   SFRSYM    DATA     BYTE      DPH
      00000083H   SFRSYM    DATA     BYTE      DPH0
      00000085H   SFRSYM    DATA     BYTE      DPH1
      00000082H   SFRSYM    DATA     BYTE      DPL
      00000082H   SFRSYM    DATA     BYTE      DPL0
      00000084H   SFRSYM    DATA     BYTE      DPL1
      00000086H   SFRSYM    DATA     BYTE      DPS
      00000093H   SFRSYM    DATA     BYTE      DPX
      00000093H   SFRSYM    DATA     BYTE      DPX0
      00000095H   SFRSYM    DATA     BYTE      DPX1
      000000E8H   SFRSYM    DATA     BYTE      EPSW
      000000D0H.5 SFRSYM    DATA     BIT       F0
      000000E8H.1 SFRSYM    DATA     BIT       F1
      00000080H   SFRSYM    DATA     BIT       FSM_FINISH
      00000080H.5 SFRSYM    DATA     BIT       FSM_RESULT
      00000080H.1 SFRSYM    DATA     BIT       FSM_START
      000000A8H   SFRSYM    DATA     BYTE      IE
      000000B8H   SFRSYM    DATA     BYTE      IP
      000000B2H   SFRSYM    DATA     BYTE      ISOCON
      000000B4H   SFRSYM    DATA     BYTE      ISOTMR
      000000F7H   SFRSYM    DATA     BYTE      MFCON
      00000088H.3 SFRSYM    DATA     BIT       MFLT
      000000A2H   SFRSYM    DATA     BYTE      MPTR
      000000EAH   SFRSYM    DATA     BYTE      MPTRX
      00000080H   SFRSYM    DATA     BYTE      NVFSMCON
      000000C9H   SFRSYM    DATA     BYTE      NVFSMMODE
      000000D0H.2 SFRSYM    DATA     BIT       OV
      000000D0H   SFRSYM    DATA     BIT       P
      00000087H   SFRSYM    DATA     BYTE      PCON
      000000C0H   SFRSYM    DATA     BYTE      PROGIO
      000000D0H   SFRSYM    DATA     BYTE      PSW
      000000C0H   SFRSYM    DATA     BIT       PULLUP_RES_STATE
      00000098H   SFRSYM    DATA     BIT       RI
      000000D0H.3 SFRSYM    DATA     BIT       RS0
      000000D0H.4 SFRSYM    DATA     BIT       RS1
      00000099H   SFRSYM    DATA     BYTE      SBUF
      00000098H   SFRSYM    DATA     BYTE      SCON
      000000B0H   SFRSYM    DATA     BYTE      SECURITYSTATUS
      00000088H.1 SFRSYM    DATA     BIT       SINT
      00000081H   SFRSYM    DATA     BYTE      SP
      000000D8H   SFRSYM    DATA     BYTE      SPSW
      00000088H   SFRSYM    DATA     BIT       SSINT
      00000088H   SFRSYM    DATA     BYTE      TCON
LX51 LINKER/LOCATER V4.10a                                                            10/17/2007  16:47:04  PAGE 21


      00000088H.5 SFRSYM    DATA     BIT       TF0
      00000088H.7 SFRSYM    DATA     BIT       TF1
      0000008CH   SFRSYM    DATA     BYTE      TH0
      0000008DH   SFRSYM    DATA     BYTE      TH1
      00000098H.1 SFRSYM    DATA     BIT       TI
      0000008AH   SFRSYM    DATA     BYTE      TL0
      0000008BH   SFRSYM    DATA     BYTE      TL1
      00000089H   SFRSYM    DATA     BYTE      TMOD
      00000088H.4 SFRSYM    DATA     BIT       TR0
      00000088H.6 SFRSYM    DATA     BIT       TR1
      00000088H.1 SFRSYM    DATA     BIT       USINT
      00000003H   SYMBOL    NUMBER   ---       APDU_JUMPTABLE_SIZE
      0100118EH   SYMBOL    CODE     NEAR LAB  COPY_CODE_AND_JUMP_FOREVER_LOOP_TO_XRAM_AND_JUMP_TO_IT
      01001194H   SYMBOL    CODE     NEAR LAB  COPY_XRAM_CODE_LOOP
      010011B7H   SYMBOL    CODE     NEAR LAB  MASS_ERASE_CODE_TO_GO_INTO_XRAM
      010011C6H   SYMBOL    CODE     NEAR LAB  MASS_ERASE_UCM__BOOTLOADER_SAFE__LOOP
      0000B100H   SYMBOL    NUMBER   ---       XRAM_CODE_LOCATION
      0000B1F0H   SYMBOL    NUMBER   ---       XRAM_LOOP_FOREVER_ADDR
      0000B000H   SYMBOL    NUMBER   ---       XRAM_START_ADDRESS

      01001186H   BLOCK     CODE     NEAR LAB  LVL=0
      01001186H   LINE      CODE     ---       #59
      01001188H   LINE      CODE     ---       #60
      0100118BH   LINE      CODE     ---       #61
      0100118EH   LINE      CODE     ---       #64
      01001191H   LINE      CODE     ---       #65
      01001194H   LINE      CODE     ---       #68
      01001197H   LINE      CODE     ---       #69
      01001198H   LINE      CODE     ---       #70
      01001199H   LINE      CODE     ---       #71
      0100119AH   LINE      CODE     ---       #73
      0100119DH   LINE      CODE     ---       #74
      0100119EH   LINE      CODE     ---       #75
      0100119FH   LINE      CODE     ---       #76
      010011A1H   LINE      CODE     ---       #79
      010011A4H   LINE      CODE     ---       #80
      010011A6H   LINE      CODE     ---       #81
      010011A7H   LINE      CODE     ---       #82
      010011A8H   LINE      CODE     ---       #83
      010011AAH   LINE      CODE     ---       #84
      010011ABH   LINE      CODE     ---       #85
      010011ACH   LINE      CODE     ---       #86
      010011AEH   LINE      CODE     ---       #87
      010011AFH   LINE      CODE     ---       #90
      010011B1H   LINE      CODE     ---       #91
      010011B4H   LINE      CODE     ---       #94
      010011B7H   LINE      CODE     ---       #102
      010011B9H   LINE      CODE     ---       #103
      010011BBH   LINE      CODE     ---       #104
      010011BEH   LINE      CODE     ---       #108
      010011C1H   LINE      CODE     ---       #109
      010011C4H   LINE      CODE     ---       #110
      010011C6H   LINE      CODE     ---       #114
      010011C9H   LINE      CODE     ---       #115
      010011CAH   LINE      CODE     ---       #116
      010011CDH   LINE      CODE     ---       #117
      010011D0H   LINE      CODE     ---       #119
      010011D2H   LINE      CODE     ---       #121
      010011D4H   LINE      CODE     ---       #123
      010011D6H   LINE      CODE     ---       #125
      010011D9H   LINE      CODE     ---       #126
      010011DCH   LINE      CODE     ---       #127
      010011DEH   LINE      CODE     ---       #129
      010011E1H   LINE      CODE     ---       #130
      010011E4H   LINE      CODE     ---       #131
LX51 LINKER/LOCATER V4.10a                                                            10/17/2007  16:47:04  PAGE 22


      010011E6H   LINE      CODE     ---       #133
      ---         BLOCKEND  ---      ---       LVL=0

      ---         MODULE    ---      ---       CHIP_INIT
      010018CDH   PUBLIC    CODE     ---       Chip_Init
      000000D0H.6 SFRSYM    DATA     BIT       AC
      00000080H   SFRSYM    DATA     BIT       FSM_FINISH
      00000083H   SFRSYM    DATA     BYTE      DPH0
      000000E8H   SFRSYM    DATA     BIT       AM
      000000A8H   SFRSYM    DATA     BYTE      IE
      00000085H   SFRSYM    DATA     BYTE      DPH1
      00000082H   SFRSYM    DATA     BYTE      DPL0
      00000084H   SFRSYM    DATA     BYTE      DPL1
      00000088H   SFRSYM    DATA     BIT       SSINT
      000000C0H   SFRSYM    DATA     BIT       PULLUP_RES_STATE
      00000088H.1 SFRSYM    DATA     BIT       USINT
      000000B8H   SFRSYM    DATA     BYTE      IP
      00000098H   SFRSYM    DATA     BIT       RI
      000000D0H.7 SFRSYM    DATA     BIT       CY
      00000098H.1 SFRSYM    DATA     BIT       TI
      000000EAH   SFRSYM    DATA     BYTE      MPTRX
      00000093H   SFRSYM    DATA     BYTE      DPX0
      00000095H   SFRSYM    DATA     BYTE      DPX1
      00000081H   SFRSYM    DATA     BYTE      SP
      000000D0H.2 SFRSYM    DATA     BIT       OV
      000000A1H   SFRSYM    DATA     BYTE      CBSL
      00000080H.5 SFRSYM    DATA     BIT       FSM_RESULT
      00000099H   SFRSYM    DATA     BYTE      SBUF
      00000087H   SFRSYM    DATA     BYTE      PCON
      00000088H.3 SFRSYM    DATA     BIT       MFLT
      00000098H   SFRSYM    DATA     BYTE      SCON
      00000089H   SFRSYM    DATA     BYTE      TMOD
      00000088H   SFRSYM    DATA     BYTE      TCON
      00000088H.1 SFRSYM    DATA     BIT       SINT
      000000E8H   SFRSYM    DATA     BYTE      EPSW
      000000F0H   SFRSYM    DATA     BYTE      B
      000000A2H   SFRSYM    DATA     BYTE      MPTR
      000000E0H   SFRSYM    DATA     BYTE      ACC
      00000088H.5 SFRSYM    DATA     BIT       TF0
      00000088H.7 SFRSYM    DATA     BIT       TF1
      0000008CH   SFRSYM    DATA     BYTE      TH0
      000000B2H   SFRSYM    DATA     BYTE      ISOCON
      0000008DH   SFRSYM    DATA     BYTE      TH1
      000000D8H   SFRSYM    DATA     BYTE      SPSW
      000000D0H   SFRSYM    DATA     BIT       P
      0000008AH   SFRSYM    DATA     BYTE      TL0
      0000008BH   SFRSYM    DATA     BYTE      TL1
      000000C0H   SFRSYM    DATA     BYTE      PROGIO
      000000D0H.3 SFRSYM    DATA     BIT       RS0
      00000088H.4 SFRSYM    DATA     BIT       TR0
      000000D0H.4 SFRSYM    DATA     BIT       RS1
      00000080H.1 SFRSYM    DATA     BIT       FSM_START
      00000088H.6 SFRSYM    DATA     BIT       TR1
      00000083H   SFRSYM    DATA     BYTE      DPH
      000000B4H   SFRSYM    DATA     BYTE      ISOTMR
      00000082H   SFRSYM    DATA     BYTE      DPL
      000000B0H   SFRSYM    DATA     BYTE      SECURITYSTATUS
      00000086H   SFRSYM    DATA     BYTE      DPS
      00000093H   SFRSYM    DATA     BYTE      DPX
      00000080H   SFRSYM    DATA     BYTE      NVFSMCON
      000000F7H   SFRSYM    DATA     BYTE      MFCON
      000000C9H   SFRSYM    DATA     BYTE      NvFsmMode
      000000D0H.5 SFRSYM    DATA     BIT       F0
      000000E8H.1 SFRSYM    DATA     BIT       F1
      000000D0H   SFRSYM    DATA     BYTE      PSW
LX51 LINKER/LOCATER V4.10a                                                            10/17/2007  16:47:04  PAGE 23



      010018CDH   BLOCK     CODE     ---       LVL=0
      010018CDH   LINE      CODE     ---       #54
      010018CDH   LINE      CODE     ---       #55
      010018CDH   LINE      CODE     ---       #57
      010018D0H   LINE      CODE     ---       #61
      010018D8H   LINE      CODE     ---       #64
      010018DDH   LINE      CODE     ---       #67
      010018E0H   LINE      CODE     ---       #70
      010018E7H   LINE      CODE     ---       #73
      010018EBH   LINE      CODE     ---       #75
      ---         BLOCKEND  ---      ---       LVL=0

      ---         MODULE    ---      ---       GET_INTERRUPT_ENABLE
      01001809H   PUBLIC    CODE     ---       Get_Interrupt_Enable
      000000D0H.6 SFRSYM    DATA     BIT       AC
      00000080H   SFRSYM    DATA     BIT       FSM_FINISH
      00000083H   SFRSYM    DATA     BYTE      DPH0
      000000E8H   SFRSYM    DATA     BIT       AM
      000000A8H   SFRSYM    DATA     BYTE      IE
      00000085H   SFRSYM    DATA     BYTE      DPH1
      00000082H   SFRSYM    DATA     BYTE      DPL0
      00000084H   SFRSYM    DATA     BYTE      DPL1
      00000088H   SFRSYM    DATA     BIT       SSINT
      000000C0H   SFRSYM    DATA     BIT       PULLUP_RES_STATE
      00000088H.1 SFRSYM    DATA     BIT       USINT
      000000B8H   SFRSYM    DATA     BYTE      IP
      00000098H   SFRSYM    DATA     BIT       RI
      000000D0H.7 SFRSYM    DATA     BIT       CY
      00000098H.1 SFRSYM    DATA     BIT       TI
      000000EAH   SFRSYM    DATA     BYTE      MPTRX
      00000093H   SFRSYM    DATA     BYTE      DPX0
      00000095H   SFRSYM    DATA     BYTE      DPX1
      00000081H   SFRSYM    DATA     BYTE      SP
      000000D0H.2 SFRSYM    DATA     BIT       OV
      000000A1H   SFRSYM    DATA     BYTE      CBSL
      00000080H.5 SFRSYM    DATA     BIT       FSM_RESULT
      00000099H   SFRSYM    DATA     BYTE      SBUF
      00000087H   SFRSYM    DATA     BYTE      PCON
      00000088H.3 SFRSYM    DATA     BIT       MFLT
      00000098H   SFRSYM    DATA     BYTE      SCON
      00000089H   SFRSYM    DATA     BYTE      TMOD
      00000088H   SFRSYM    DATA     BYTE      TCON
      00000088H.1 SFRSYM    DATA     BIT       SINT
      000000E8H   SFRSYM    DATA     BYTE      EPSW
      000000F0H   SFRSYM    DATA     BYTE      B
      000000A2H   SFRSYM    DATA     BYTE      MPTR
      000000E0H   SFRSYM    DATA     BYTE      ACC
      00000088H.5 SFRSYM    DATA     BIT       TF0
      00000088H.7 SFRSYM    DATA     BIT       TF1
      0000008CH   SFRSYM    DATA     BYTE      TH0
      000000B2H   SFRSYM    DATA     BYTE      ISOCON
      0000008DH   SFRSYM    DATA     BYTE      TH1
      000000D8H   SFRSYM    DATA     BYTE      SPSW
      000000D0H   SFRSYM    DATA     BIT       P
      0000008AH   SFRSYM    DATA     BYTE      TL0
      0000008BH   SFRSYM    DATA     BYTE      TL1
      000000C0H   SFRSYM    DATA     BYTE      PROGIO
      000000D0H.3 SFRSYM    DATA     BIT       RS0
      00000088H.4 SFRSYM    DATA     BIT       TR0
      000000D0H.4 SFRSYM    DATA     BIT       RS1
      00000080H.1 SFRSYM    DATA     BIT       FSM_START
      00000088H.6 SFRSYM    DATA     BIT       TR1
      00000083H   SFRSYM    DATA     BYTE      DPH
      000000B4H   SFRSYM    DATA     BYTE      ISOTMR
LX51 LINKER/LOCATER V4.10a                                                            10/17/2007  16:47:04  PAGE 24


      00000082H   SFRSYM    DATA     BYTE      DPL
      000000B0H   SFRSYM    DATA     BYTE      SECURITYSTATUS
      00000086H   SFRSYM    DATA     BYTE      DPS
      00000093H   SFRSYM    DATA     BYTE      DPX
      00000080H   SFRSYM    DATA     BYTE      NVFSMCON
      000000F7H   SFRSYM    DATA     BYTE      MFCON
      000000C9H   SFRSYM    DATA     BYTE      NvFsmMode
      000000D0H.5 SFRSYM    DATA     BIT       F0
      000000E8H.1 SFRSYM    DATA     BIT       F1
      000000D0H   SFRSYM    DATA     BYTE      PSW

      01001809H   BLOCK     CODE     ---       LVL=0
      01001809H   LINE      CODE     ---       #58
      01001809H   LINE      CODE     ---       #59
      01001809H   LINE      CODE     ---       #60
      0100180FH   LINE      CODE     ---       #61
      0100180FH   LINE      CODE     ---       #62
      01001815H   LINE      CODE     ---       #64
      01001819H   LINE      CODE     ---       #65
      0100181BH   LINE      CODE     ---       #67
      0100181BH   LINE      CODE     ---       #68
      01001822H   LINE      CODE     ---       #69
      01001822H   LINE      CODE     ---       #71
      01001829H   LINE      CODE     ---       #73
      ---         BLOCKEND  ---      ---       LVL=0

      ---         MODULE    ---      ---       SET_INTERRUPT_ENABLE
      010019E7H   PUBLIC    CODE     ---       Set_Interrupt_Enable
      000000D0H.6 SFRSYM    DATA     BIT       AC
      00000080H   SFRSYM    DATA     BIT       FSM_FINISH
      00000083H   SFRSYM    DATA     BYTE      DPH0
      000000E8H   SFRSYM    DATA     BIT       AM
      000000A8H   SFRSYM    DATA     BYTE      IE
      00000085H   SFRSYM    DATA     BYTE      DPH1
      00000082H   SFRSYM    DATA     BYTE      DPL0
      00000084H   SFRSYM    DATA     BYTE      DPL1
      00000088H   SFRSYM    DATA     BIT       SSINT
      000000C0H   SFRSYM    DATA     BIT       PULLUP_RES_STATE
      00000088H.1 SFRSYM    DATA     BIT       USINT
      000000B8H   SFRSYM    DATA     BYTE      IP
      00000098H   SFRSYM    DATA     BIT       RI
      000000D0H.7 SFRSYM    DATA     BIT       CY
      00000098H.1 SFRSYM    DATA     BIT       TI
      000000EAH   SFRSYM    DATA     BYTE      MPTRX
      00000093H   SFRSYM    DATA     BYTE      DPX0
      00000095H   SFRSYM    DATA     BYTE      DPX1
      00000081H   SFRSYM    DATA     BYTE      SP
      000000D0H.2 SFRSYM    DATA     BIT       OV
      000000A1H   SFRSYM    DATA     BYTE      CBSL
      00000080H.5 SFRSYM    DATA     BIT       FSM_RESULT
      00000099H   SFRSYM    DATA     BYTE      SBUF
      00000087H   SFRSYM    DATA     BYTE      PCON
      00000088H.3 SFRSYM    DATA     BIT       MFLT
      00000098H   SFRSYM    DATA     BYTE      SCON
      00000089H   SFRSYM    DATA     BYTE      TMOD
      00000088H   SFRSYM    DATA     BYTE      TCON
      00000088H.1 SFRSYM    DATA     BIT       SINT
      000000E8H   SFRSYM    DATA     BYTE      EPSW
      000000F0H   SFRSYM    DATA     BYTE      B
      000000A2H   SFRSYM    DATA     BYTE      MPTR
      000000E0H   SFRSYM    DATA     BYTE      ACC
      00000088H.5 SFRSYM    DATA     BIT       TF0
      00000088H.7 SFRSYM    DATA     BIT       TF1
      0000008CH   SFRSYM    DATA     BYTE      TH0
      000000B2H   SFRSYM    DATA     BYTE      ISOCON
LX51 LINKER/LOCATER V4.10a                                                            10/17/2007  16:47:04  PAGE 25


      0000008DH   SFRSYM    DATA     BYTE      TH1
      000000D8H   SFRSYM    DATA     BYTE      SPSW
      000000D0H   SFRSYM    DATA     BIT       P
      0000008AH   SFRSYM    DATA     BYTE      TL0
      0000008BH   SFRSYM    DATA     BYTE      TL1
      000000C0H   SFRSYM    DATA     BYTE      PROGIO
      000000D0H.3 SFRSYM    DATA     BIT       RS0
      00000088H.4 SFRSYM    DATA     BIT       TR0
      000000D0H.4 SFRSYM    DATA     BIT       RS1
      00000080H.1 SFRSYM    DATA     BIT       FSM_START
      00000088H.6 SFRSYM    DATA     BIT       TR1
      00000083H   SFRSYM    DATA     BYTE      DPH
      000000B4H   SFRSYM    DATA     BYTE      ISOTMR
      00000082H   SFRSYM    DATA     BYTE      DPL
      000000B0H   SFRSYM    DATA     BYTE      SECURITYSTATUS
      00000086H   SFRSYM    DATA     BYTE      DPS
      00000093H   SFRSYM    DATA     BYTE      DPX
      00000080H   SFRSYM    DATA     BYTE      NVFSMCON
      000000F7H   SFRSYM    DATA     BYTE      MFCON
      000000C9H   SFRSYM    DATA     BYTE      NvFsmMode
      000000D0H.5 SFRSYM    DATA     BIT       F0
      000000E8H.1 SFRSYM    DATA     BIT       F1
      000000D0H   SFRSYM    DATA     BYTE      PSW

      010019E7H   BLOCK     CODE     ---       LVL=0
      010019E7H   LINE      CODE     ---       #56
      010019E7H   LINE      CODE     ---       #57
      010019E7H   LINE      CODE     ---       #58
      010019EEH   LINE      CODE     ---       #60
      010019F2H   LINE      CODE     ---       #62
      ---         BLOCKEND  ---      ---       LVL=0

      ---         MODULE    ---      ---       WRITE_X_BYTES_TO_UCM__256_PAGE_BACKUP_HAN
      00000020H.3 PUBLIC    DATA     BIT       bTwo_Page_Erase_Needed
      00000020H.2 PUBLIC    DATA     BIT       bData_Present_After_New_Data_Temp_Page2
      00000020H.1 PUBLIC    DATA     BIT       bData_Present_After_New_Data_Temp_Page1
      00000020H   PUBLIC    DATA     BIT       bData_Present_Before_New_Data_Temp_Page1
      00000020H   PUBLIC    DATA     CHAR      ucTemp_Page_Status
      0100098EH   PUBLIC    CODE     ---       Write_X_Bytes_To_UCM__256_Page_Backup_Handled
      000000D0H.6 SFRSYM    DATA     BIT       AC
      00000080H   SFRSYM    DATA     BIT       FSM_FINISH
      00000083H   SFRSYM    DATA     BYTE      DPH0
      000000E8H   SFRSYM    DATA     BIT       AM
      000000A8H   SFRSYM    DATA     BYTE      IE
      00000085H   SFRSYM    DATA     BYTE      DPH1
      00000082H   SFRSYM    DATA     BYTE      DPL0
      00000084H   SFRSYM    DATA     BYTE      DPL1
      00000088H   SFRSYM    DATA     BIT       SSINT
      000000C0H   SFRSYM    DATA     BIT       PULLUP_RES_STATE
      00000088H.1 SFRSYM    DATA     BIT       USINT
      000000B8H   SFRSYM    DATA     BYTE      IP
      00000098H   SFRSYM    DATA     BIT       RI
      000000D0H.7 SFRSYM    DATA     BIT       CY
      00000098H.1 SFRSYM    DATA     BIT       TI
      000000EAH   SFRSYM    DATA     BYTE      MPTRX
      00000093H   SFRSYM    DATA     BYTE      DPX0
      00000095H   SFRSYM    DATA     BYTE      DPX1
      00000081H   SFRSYM    DATA     BYTE      SP
      000000D0H.2 SFRSYM    DATA     BIT       OV
      000000A1H   SFRSYM    DATA     BYTE      CBSL
      00000080H.5 SFRSYM    DATA     BIT       FSM_RESULT
      00000099H   SFRSYM    DATA     BYTE      SBUF
      00000087H   SFRSYM    DATA     BYTE      PCON
      00000088H.3 SFRSYM    DATA     BIT       MFLT
      00000098H   SFRSYM    DATA     BYTE      SCON
LX51 LINKER/LOCATER V4.10a                                                            10/17/2007  16:47:04  PAGE 26


      00000089H   SFRSYM    DATA     BYTE      TMOD
      00000088H   SFRSYM    DATA     BYTE      TCON
      00000088H.1 SFRSYM    DATA     BIT       SINT
      000000E8H   SFRSYM    DATA     BYTE      EPSW
      000000F0H   SFRSYM    DATA     BYTE      B
      000000A2H   SFRSYM    DATA     BYTE      MPTR
      000000E0H   SFRSYM    DATA     BYTE      ACC
      00000088H.5 SFRSYM    DATA     BIT       TF0
      00000088H.7 SFRSYM    DATA     BIT       TF1
      0000008CH   SFRSYM    DATA     BYTE      TH0
      000000B2H   SFRSYM    DATA     BYTE      ISOCON
      0000008DH   SFRSYM    DATA     BYTE      TH1
      000000D8H   SFRSYM    DATA     BYTE      SPSW
      000000D0H   SFRSYM    DATA     BIT       P
      0000008AH   SFRSYM    DATA     BYTE      TL0
      0000008BH   SFRSYM    DATA     BYTE      TL1
      000000C0H   SFRSYM    DATA     BYTE      PROGIO
      000000D0H.3 SFRSYM    DATA     BIT       RS0
      00000088H.4 SFRSYM    DATA     BIT       TR0
      000000D0H.4 SFRSYM    DATA     BIT       RS1
      00000080H.1 SFRSYM    DATA     BIT       FSM_START
      00000088H.6 SFRSYM    DATA     BIT       TR1
      00000083H   SFRSYM    DATA     BYTE      DPH
      000000B4H   SFRSYM    DATA     BYTE      ISOTMR
      00000082H   SFRSYM    DATA     BYTE      DPL
      000000B0H   SFRSYM    DATA     BYTE      SECURITYSTATUS
      00000086H   SFRSYM    DATA     BYTE      DPS
      00000093H   SFRSYM    DATA     BYTE      DPX
      00000080H   SFRSYM    DATA     BYTE      NVFSMCON
      000000F7H   SFRSYM    DATA     BYTE      MFCON
      000000C9H   SFRSYM    DATA     BYTE      NvFsmMode
      000000D0H.5 SFRSYM    DATA     BIT       F0
      000000E8H.1 SFRSYM    DATA     BIT       F1
      000000D0H   SFRSYM    DATA     BYTE      PSW

      0100098EH   BLOCK     CODE     ---       LVL=0
      0100098EH   BLOCK     CODE     NEAR LAB  LVL=1
      0000005DH   SYMBOL    IDATA    WORD      uiStart_Address
      0000005FH   SYMBOL    IDATA    WORD      uiTemp_Page_Address
      00000061H   SYMBOL    IDATA    WORD      uiEnd_Address
      00000063H   SYMBOL    IDATA    BYTE      ucTemp_Page1_Before_Data_Count
      00000064H   SYMBOL    IDATA    BYTE      ucTemp_Page1_After_Data_Count
      00000065H   SYMBOL    IDATA    BYTE      ucTemp_Page2_After_Data_Count
      00000022H   SYMBOL    DATA     ---       ucByte_To_Write_Data_Ptr
      00000066H   SYMBOL    IDATA    WORD      uiCount
      ---         BLOCKEND  ---      ---       LVL=1
      0100098EH   LINE      CODE     ---       #90
      0100098EH   LINE      CODE     ---       #91
      0100098EH   LINE      CODE     ---       #101
      01000991H   LINE      CODE     ---       #102
      01000994H   LINE      CODE     ---       #103
      01000997H   LINE      CODE     ---       #104
      0100099CH   LINE      CODE     ---       #106
      010009A8H   LINE      CODE     ---       #107
      010009B3H   LINE      CODE     ---       #109
      010009BFH   LINE      CODE     ---       #110
      010009C7H   LINE      CODE     ---       #112
      010009D2H   LINE      CODE     ---       #118
      010009DDH   LINE      CODE     ---       #124
      010009E6H   LINE      CODE     ---       #125
      010009E6H   LINE      CODE     ---       #126
      010009F2H   LINE      CODE     ---       #127
      010009F2H   LINE      CODE     ---       #129
      01000A0BH   LINE      CODE     ---       #131
      01000A0FH   LINE      CODE     ---       #132
LX51 LINKER/LOCATER V4.10a                                                            10/17/2007  16:47:04  PAGE 27


      01000A0FH   LINE      CODE     ---       #133
      01000A0FH   LINE      CODE     ---       #134
      01000A0FH   LINE      CODE     ---       #135
      01000A14H   LINE      CODE     ---       #136
      01000A14H   LINE      CODE     ---       #146
      01000A20H   LINE      CODE     ---       #147
      01000A20H   LINE      CODE     ---       #149
      01000A3EH   LINE      CODE     ---       #150
      01000A3EH   LINE      CODE     ---       #152
      01000A4DH   LINE      CODE     ---       #153
      01000A4DH   LINE      CODE     ---       #154
      01000A57H   LINE      CODE     ---       #155
      01000A59H   LINE      CODE     ---       #156
      01000A5BH   LINE      CODE     ---       #157
      01000A5BH   LINE      CODE     ---       #158
      01000A5BH   LINE      CODE     ---       #161
      01000A6AH   LINE      CODE     ---       #162
      01000A6AH   LINE      CODE     ---       #163
      01000A6EH   LINE      CODE     ---       #164
      01000A70H   LINE      CODE     ---       #165
      01000A70H   LINE      CODE     ---       #168
      01000A8FH   LINE      CODE     ---       #169
      01000A8FH   LINE      CODE     ---       #170
      01000A96H   LINE      CODE     ---       #171
      01000A98H   LINE      CODE     ---       #172
      01000A98H   LINE      CODE     ---       #173
      01000A98H   LINE      CODE     ---       #179
      01000AA4H   LINE      CODE     ---       #180
      01000AA4H   LINE      CODE     ---       #182
      01000AA7H   LINE      CODE     ---       #183
      01000AA7H   LINE      CODE     ---       #185
      01000AB0H   LINE      CODE     ---       #186
      01000AB6H   LINE      CODE     ---       #189
      01000AC3H   LINE      CODE     ---       #190
      01000AC3H   LINE      CODE     ---       #191
      01000AE8H   LINE      CODE     ---       #193
      01000AECH   LINE      CODE     ---       #194
      01000AECH   LINE      CODE     ---       #195
      01000AECH   LINE      CODE     ---       #196
      01000AECH   LINE      CODE     ---       #197
      01000AF1H   LINE      CODE     ---       #198
      01000AF1H   LINE      CODE     ---       #199
      01000AF1H   LINE      CODE     ---       #201
      01000AFDH   LINE      CODE     ---       #202
      01000AFDH   LINE      CODE     ---       #204
      01000B00H   LINE      CODE     ---       #205
      01000B00H   LINE      CODE     ---       #207
      01000B11H   LINE      CODE     ---       #208
      01000B15H   LINE      CODE     ---       #211
      01000B22H   LINE      CODE     ---       #212
      01000B22H   LINE      CODE     ---       #213
      01000B47H   LINE      CODE     ---       #215
      01000B4BH   LINE      CODE     ---       #216
      01000B4BH   LINE      CODE     ---       #217
      01000B4BH   LINE      CODE     ---       #218
      01000B4BH   LINE      CODE     ---       #219
      01000B50H   LINE      CODE     ---       #220
      01000B50H   LINE      CODE     ---       #221
      01000B50H   LINE      CODE     ---       #223
      01000B5CH   LINE      CODE     ---       #224
      01000B5CH   LINE      CODE     ---       #226
      01000B5FH   LINE      CODE     ---       #227
      01000B5FH   LINE      CODE     ---       #229
      01000B70H   LINE      CODE     ---       #230
      01000B74H   LINE      CODE     ---       #233
LX51 LINKER/LOCATER V4.10a                                                            10/17/2007  16:47:04  PAGE 28


      01000B81H   LINE      CODE     ---       #234
      01000B81H   LINE      CODE     ---       #235
      01000BA6H   LINE      CODE     ---       #237
      01000BAAH   LINE      CODE     ---       #238
      01000BAAH   LINE      CODE     ---       #239
      01000BAAH   LINE      CODE     ---       #240
      01000BAAH   LINE      CODE     ---       #241
      01000BAFH   LINE      CODE     ---       #242
      01000BAFH   LINE      CODE     ---       #243
      01000BAFH   LINE      CODE     ---       #249
      01000BBBH   LINE      CODE     ---       #250
      01000BBBH   LINE      CODE     ---       #251
      01000BC5H   LINE      CODE     ---       #252
      01000BC5H   LINE      CODE     ---       #253
      01000BC8H   LINE      CODE     ---       #254
      01000BCAH   LINE      CODE     ---       #256
      01000BCAH   LINE      CODE     ---       #257
      01000BD1H   LINE      CODE     ---       #258
      01000BD1H   LINE      CODE     ---       #259
      01000BD1H   LINE      CODE     ---       #264
      01000BD5H   LINE      CODE     ---       #265
      01000BDAH   LINE      CODE     ---       #267
      01000BE6H   LINE      CODE     ---       #268
      01000BE6H   LINE      CODE     ---       #270
      01000BEBH   LINE      CODE     ---       #271
      01000BEBH   LINE      CODE     ---       #272
      01000C10H   LINE      CODE     ---       #273
      01000C20H   LINE      CODE     ---       #274
      01000C20H   LINE      CODE     ---       #276
      01000C2CH   LINE      CODE     ---       #277
      01000C2CH   LINE      CODE     ---       #279
      01000C2FH   LINE      CODE     ---       #280
      01000C2FH   LINE      CODE     ---       #282
      01000C34H   LINE      CODE     ---       #283
      01000C34H   LINE      CODE     ---       #284
      01000C59H   LINE      CODE     ---       #285
      01000C69H   LINE      CODE     ---       #286
      01000C69H   LINE      CODE     ---       #287
      01000C69H   LINE      CODE     ---       #289
      01000C71H   LINE      CODE     ---       #290
      01000C71H   LINE      CODE     ---       #292
      01000C76H   LINE      CODE     ---       #293
      01000C78H   LINE      CODE     ---       #295
      01000C78H   LINE      CODE     ---       #296
      01000C7DH   LINE      CODE     ---       #297
      01000C7DH   LINE      CODE     ---       #299
      01000C84H   LINE      CODE     ---       #301
      ---         BLOCKEND  ---      ---       LVL=0

      ---         MODULE    ---      ---       GET_PULLUP_RESISTOR
      010017C4H   PUBLIC    CODE     ---       Get_Pullup_Resistor
      000000D0H.6 SFRSYM    DATA     BIT       AC
      00000080H   SFRSYM    DATA     BIT       FSM_FINISH
      00000083H   SFRSYM    DATA     BYTE      DPH0
      000000E8H   SFRSYM    DATA     BIT       AM
      000000A8H   SFRSYM    DATA     BYTE      IE
      00000085H   SFRSYM    DATA     BYTE      DPH1
      00000082H   SFRSYM    DATA     BYTE      DPL0
      00000084H   SFRSYM    DATA     BYTE      DPL1
      00000088H   SFRSYM    DATA     BIT       SSINT
      000000C0H   SFRSYM    DATA     BIT       PULLUP_RES_STATE
      00000088H.1 SFRSYM    DATA     BIT       USINT
      000000B8H   SFRSYM    DATA     BYTE      IP
      00000098H   SFRSYM    DATA     BIT       RI
      000000D0H.7 SFRSYM    DATA     BIT       CY
LX51 LINKER/LOCATER V4.10a                                                            10/17/2007  16:47:04  PAGE 29


      00000098H.1 SFRSYM    DATA     BIT       TI
      000000EAH   SFRSYM    DATA     BYTE      MPTRX
      00000093H   SFRSYM    DATA     BYTE      DPX0
      00000095H   SFRSYM    DATA     BYTE      DPX1
      00000081H   SFRSYM    DATA     BYTE      SP
      000000D0H.2 SFRSYM    DATA     BIT       OV
      000000A1H   SFRSYM    DATA     BYTE      CBSL
      00000080H.5 SFRSYM    DATA     BIT       FSM_RESULT
      00000099H   SFRSYM    DATA     BYTE      SBUF
      00000087H   SFRSYM    DATA     BYTE      PCON
      00000088H.3 SFRSYM    DATA     BIT       MFLT
      00000098H   SFRSYM    DATA     BYTE      SCON
      00000089H   SFRSYM    DATA     BYTE      TMOD
      00000088H   SFRSYM    DATA     BYTE      TCON
      00000088H.1 SFRSYM    DATA     BIT       SINT
      000000E8H   SFRSYM    DATA     BYTE      EPSW
      000000F0H   SFRSYM    DATA     BYTE      B
      000000A2H   SFRSYM    DATA     BYTE      MPTR
      000000E0H   SFRSYM    DATA     BYTE      ACC
      00000088H.5 SFRSYM    DATA     BIT       TF0
      00000088H.7 SFRSYM    DATA     BIT       TF1
      0000008CH   SFRSYM    DATA     BYTE      TH0
      000000B2H   SFRSYM    DATA     BYTE      ISOCON
      0000008DH   SFRSYM    DATA     BYTE      TH1
      000000D8H   SFRSYM    DATA     BYTE      SPSW
      000000D0H   SFRSYM    DATA     BIT       P
      0000008AH   SFRSYM    DATA     BYTE      TL0
      0000008BH   SFRSYM    DATA     BYTE      TL1
      000000C0H   SFRSYM    DATA     BYTE      PROGIO
      000000D0H.3 SFRSYM    DATA     BIT       RS0
      00000088H.4 SFRSYM    DATA     BIT       TR0
      000000D0H.4 SFRSYM    DATA     BIT       RS1
      00000080H.1 SFRSYM    DATA     BIT       FSM_START
      00000088H.6 SFRSYM    DATA     BIT       TR1
      00000083H   SFRSYM    DATA     BYTE      DPH
      000000B4H   SFRSYM    DATA     BYTE      ISOTMR
      00000082H   SFRSYM    DATA     BYTE      DPL
      000000B0H   SFRSYM    DATA     BYTE      SECURITYSTATUS
      00000086H   SFRSYM    DATA     BYTE      DPS
      00000093H   SFRSYM    DATA     BYTE      DPX
      00000080H   SFRSYM    DATA     BYTE      NVFSMCON
      000000F7H   SFRSYM    DATA     BYTE      MFCON
      000000C9H   SFRSYM    DATA     BYTE      NvFsmMode
      000000D0H.5 SFRSYM    DATA     BIT       F0
      000000E8H.1 SFRSYM    DATA     BIT       F1
      000000D0H   SFRSYM    DATA     BYTE      PSW

      010017C4H   BLOCK     CODE     ---       LVL=0
      010017C4H   LINE      CODE     ---       #58
      010017C4H   LINE      CODE     ---       #59
      010017C4H   LINE      CODE     ---       #60
      010017CAH   LINE      CODE     ---       #61
      010017CAH   LINE      CODE     ---       #63
      010017D2H   LINE      CODE     ---       #65
      010017D6H   LINE      CODE     ---       #66
      010017D8H   LINE      CODE     ---       #68
      010017D8H   LINE      CODE     ---       #69
      010017DFH   LINE      CODE     ---       #70
      010017DFH   LINE      CODE     ---       #72
      010017E6H   LINE      CODE     ---       #74
      ---         BLOCKEND  ---      ---       LVL=0

      ---         MODULE    ---      ---       SET_PULLUP_RESISTOR
      01001729H   PUBLIC    CODE     ---       Set_Pullup_Resistor
      000000D0H.6 SFRSYM    DATA     BIT       AC
LX51 LINKER/LOCATER V4.10a                                                            10/17/2007  16:47:04  PAGE 30


      00000080H   SFRSYM    DATA     BIT       FSM_FINISH
      00000083H   SFRSYM    DATA     BYTE      DPH0
      000000E8H   SFRSYM    DATA     BIT       AM
      000000A8H   SFRSYM    DATA     BYTE      IE
      00000085H   SFRSYM    DATA     BYTE      DPH1
      00000082H   SFRSYM    DATA     BYTE      DPL0
      00000084H   SFRSYM    DATA     BYTE      DPL1
      00000088H   SFRSYM    DATA     BIT       SSINT
      000000C0H   SFRSYM    DATA     BIT       PULLUP_RES_STATE
      00000088H.1 SFRSYM    DATA     BIT       USINT
      000000B8H   SFRSYM    DATA     BYTE      IP
      00000098H   SFRSYM    DATA     BIT       RI
      000000D0H.7 SFRSYM    DATA     BIT       CY
      00000098H.1 SFRSYM    DATA     BIT       TI
      000000EAH   SFRSYM    DATA     BYTE      MPTRX
      00000093H   SFRSYM    DATA     BYTE      DPX0
      00000095H   SFRSYM    DATA     BYTE      DPX1
      00000081H   SFRSYM    DATA     BYTE      SP
      000000D0H.2 SFRSYM    DATA     BIT       OV
      000000A1H   SFRSYM    DATA     BYTE      CBSL
      00000080H.5 SFRSYM    DATA     BIT       FSM_RESULT
      00000099H   SFRSYM    DATA     BYTE      SBUF
      00000087H   SFRSYM    DATA     BYTE      PCON
      00000088H.3 SFRSYM    DATA     BIT       MFLT
      00000098H   SFRSYM    DATA     BYTE      SCON
      00000089H   SFRSYM    DATA     BYTE      TMOD
      00000088H   SFRSYM    DATA     BYTE      TCON
      00000088H.1 SFRSYM    DATA     BIT       SINT
      000000E8H   SFRSYM    DATA     BYTE      EPSW
      000000F0H   SFRSYM    DATA     BYTE      B
      000000A2H   SFRSYM    DATA     BYTE      MPTR
      000000E0H   SFRSYM    DATA     BYTE      ACC
      00000088H.5 SFRSYM    DATA     BIT       TF0
      00000088H.7 SFRSYM    DATA     BIT       TF1
      0000008CH   SFRSYM    DATA     BYTE      TH0
      000000B2H   SFRSYM    DATA     BYTE      ISOCON
      0000008DH   SFRSYM    DATA     BYTE      TH1
      000000D8H   SFRSYM    DATA     BYTE      SPSW
      000000D0H   SFRSYM    DATA     BIT       P
      0000008AH   SFRSYM    DATA     BYTE      TL0
      0000008BH   SFRSYM    DATA     BYTE      TL1
      000000C0H   SFRSYM    DATA     BYTE      PROGIO
      000000D0H.3 SFRSYM    DATA     BIT       RS0
      00000088H.4 SFRSYM    DATA     BIT       TR0
      000000D0H.4 SFRSYM    DATA     BIT       RS1
      00000080H.1 SFRSYM    DATA     BIT       FSM_START
      00000088H.6 SFRSYM    DATA     BIT       TR1
      00000083H   SFRSYM    DATA     BYTE      DPH
      000000B4H   SFRSYM    DATA     BYTE      ISOTMR
      00000082H   SFRSYM    DATA     BYTE      DPL
      000000B0H   SFRSYM    DATA     BYTE      SECURITYSTATUS
      00000086H   SFRSYM    DATA     BYTE      DPS
      00000093H   SFRSYM    DATA     BYTE      DPX
      00000080H   SFRSYM    DATA     BYTE      NVFSMCON
      000000F7H   SFRSYM    DATA     BYTE      MFCON
      000000C9H   SFRSYM    DATA     BYTE      NvFsmMode
      000000D0H.5 SFRSYM    DATA     BIT       F0
      000000E8H.1 SFRSYM    DATA     BIT       F1
      000000D0H   SFRSYM    DATA     BYTE      PSW

      01001729H   BLOCK     CODE     ---       LVL=0
      01001729H   LINE      CODE     ---       #58
      01001729H   LINE      CODE     ---       #59
      01001729H   LINE      CODE     ---       #61
      01001737H   LINE      CODE     ---       #64
LX51 LINKER/LOCATER V4.10a                                                            10/17/2007  16:47:04  PAGE 31


      0100173CH   LINE      CODE     ---       #65
      0100173CH   LINE      CODE     ---       #66
      01001741H   LINE      CODE     ---       #67
      01001743H   LINE      CODE     ---       #69
      01001743H   LINE      CODE     ---       #70
      01001748H   LINE      CODE     ---       #71
      01001748H   LINE      CODE     ---       #73
      0100174FH   LINE      CODE     ---       #75
      ---         BLOCKEND  ---      ---       LVL=0

      ---         MODULE    ---      ---       TIMER0_FUNCTIONS
      01001249H   PUBLIC    CODE     ---       Timer0_Read
      0100199BH   PUBLIC    CODE     ---       Timer0_Stop
      0100179EH   PUBLIC    CODE     ---       _Timer0_Setup
      0100193AH   PUBLIC    CODE     ---       Timer0_Start
      000000D0H.6 SFRSYM    DATA     BIT       AC
      00000080H   SFRSYM    DATA     BIT       FSM_FINISH
      00000083H   SFRSYM    DATA     BYTE      DPH0
      000000E8H   SFRSYM    DATA     BIT       AM
      000000A8H   SFRSYM    DATA     BYTE      IE
      00000085H   SFRSYM    DATA     BYTE      DPH1
      00000082H   SFRSYM    DATA     BYTE      DPL0
      00000084H   SFRSYM    DATA     BYTE      DPL1
      00000088H   SFRSYM    DATA     BIT       SSINT
      000000C0H   SFRSYM    DATA     BIT       PULLUP_RES_STATE
      00000088H.1 SFRSYM    DATA     BIT       USINT
      000000B8H   SFRSYM    DATA     BYTE      IP
      00000098H   SFRSYM    DATA     BIT       RI
      000000D0H.7 SFRSYM    DATA     BIT       CY
      00000098H.1 SFRSYM    DATA     BIT       TI
      000000EAH   SFRSYM    DATA     BYTE      MPTRX
      00000093H   SFRSYM    DATA     BYTE      DPX0
      00000095H   SFRSYM    DATA     BYTE      DPX1
      00000081H   SFRSYM    DATA     BYTE      SP
      000000D0H.2 SFRSYM    DATA     BIT       OV
      000000A1H   SFRSYM    DATA     BYTE      CBSL
      00000080H.5 SFRSYM    DATA     BIT       FSM_RESULT
      00000099H   SFRSYM    DATA     BYTE      SBUF
      00000087H   SFRSYM    DATA     BYTE      PCON
      00000088H.3 SFRSYM    DATA     BIT       MFLT
      00000098H   SFRSYM    DATA     BYTE      SCON
      00000089H   SFRSYM    DATA     BYTE      TMOD
      00000088H   SFRSYM    DATA     BYTE      TCON
      00000088H.1 SFRSYM    DATA     BIT       SINT
      000000E8H   SFRSYM    DATA     BYTE      EPSW
      000000F0H   SFRSYM    DATA     BYTE      B
      000000A2H   SFRSYM    DATA     BYTE      MPTR
      000000E0H   SFRSYM    DATA     BYTE      ACC
      00000088H.5 SFRSYM    DATA     BIT       TF0
      00000088H.7 SFRSYM    DATA     BIT       TF1
      0000008CH   SFRSYM    DATA     BYTE      TH0
      000000B2H   SFRSYM    DATA     BYTE      ISOCON
      0000008DH   SFRSYM    DATA     BYTE      TH1
      000000D8H   SFRSYM    DATA     BYTE      SPSW
      000000D0H   SFRSYM    DATA     BIT       P
      0000008AH   SFRSYM    DATA     BYTE      TL0
      0000008BH   SFRSYM    DATA     BYTE      TL1
      000000C0H   SFRSYM    DATA     BYTE      PROGIO
      000000D0H.3 SFRSYM    DATA     BIT       RS0
      00000088H.4 SFRSYM    DATA     BIT       TR0
      000000D0H.4 SFRSYM    DATA     BIT       RS1
      00000080H.1 SFRSYM    DATA     BIT       FSM_START
      00000088H.6 SFRSYM    DATA     BIT       TR1
      00000083H   SFRSYM    DATA     BYTE      DPH
      000000B4H   SFRSYM    DATA     BYTE      ISOTMR
LX51 LINKER/LOCATER V4.10a                                                            10/17/2007  16:47:04  PAGE 32


      00000082H   SFRSYM    DATA     BYTE      DPL
      000000B0H   SFRSYM    DATA     BYTE      SECURITYSTATUS
      00000086H   SFRSYM    DATA     BYTE      DPS
      00000093H   SFRSYM    DATA     BYTE      DPX
      00000080H   SFRSYM    DATA     BYTE      NVFSMCON
      000000F7H   SFRSYM    DATA     BYTE      MFCON
      000000C9H   SFRSYM    DATA     BYTE      NvFsmMode
      000000D0H.5 SFRSYM    DATA     BIT       F0
      000000E8H.1 SFRSYM    DATA     BIT       F1
      000000D0H   SFRSYM    DATA     BYTE      PSW

      0100193AH   BLOCK     CODE     ---       LVL=0
      0100193AH   BLOCK     CODE     NEAR LAB  LVL=1
      00000005H   SYMBOL    DATA     BYTE      bTimerMode
      00000006H   SYMBOL    DATA     WORD      wTimerCounterValue
      ---         BLOCKEND  ---      ---       LVL=1
      0100193AH   LINE      CODE     ---       #61
      0100193AH   LINE      CODE     ---       #62
      0100193AH   LINE      CODE     ---       #64
      0100193FH   LINE      CODE     ---       #67
      01001943H   LINE      CODE     ---       #70
      01001949H   LINE      CODE     ---       #73
      0100194CH   LINE      CODE     ---       #76
      01001950H   LINE      CODE     ---       #77
      ---         BLOCKEND  ---      ---       LVL=0

      0100179EH   BLOCK     CODE     ---       LVL=0
      00000022H   SYMBOL    DATA     WORD      wCounter
      00000024H   SYMBOL    DATA     BYTE      bMode
      0100179EH   LINE      CODE     ---       #91
      010017A4H   LINE      CODE     ---       #92
      010017A4H   LINE      CODE     ---       #93
      010017A6H   LINE      CODE     ---       #94
      010017A8H   LINE      CODE     ---       #97
      010017B2H   LINE      CODE     ---       #99
      010017B5H   LINE      CODE     ---       #100
      010017B9H   LINE      CODE     ---       #102
      010017BDH   LINE      CODE     ---       #103
      010017C1H   LINE      CODE     ---       #105
      010017C3H   LINE      CODE     ---       #106
      ---         BLOCKEND  ---      ---       LVL=0

      0100199BH   BLOCK     CODE     ---       LVL=0
      0100199BH   LINE      CODE     ---       #126
      0100199BH   LINE      CODE     ---       #127
      0100199BH   LINE      CODE     ---       #129
      010019A5H   LINE      CODE     ---       #131
      010019A7H   LINE      CODE     ---       #134
      010019ABH   LINE      CODE     ---       #135
      ---         BLOCKEND  ---      ---       LVL=0

      01001249H   BLOCK     CODE     ---       LVL=0
      01001249H   LINE      CODE     ---       #161
      01001249H   LINE      CODE     ---       #162
      01001249H   LINE      CODE     ---       #164
      0100124DH   LINE      CODE     ---       #165
      01001250H   LINE      CODE     ---       #166
      01001253H   LINE      CODE     ---       #167
      01001256H   LINE      CODE     ---       #168
      0100125CH   LINE      CODE     ---       #170
      01001263H   LINE      CODE     ---       #171
      01001263H   LINE      CODE     ---       #172
      0100126AH   LINE      CODE     ---       #173
      01001271H   LINE      CODE     ---       #174
      01001278H   LINE      CODE     ---       #175
LX51 LINKER/LOCATER V4.10a                                                            10/17/2007  16:47:04  PAGE 33


      0100127FH   LINE      CODE     ---       #176
      01001286H   LINE      CODE     ---       #178
      0100128AH   LINE      CODE     ---       #179
      0100128CH   LINE      CODE     ---       #181
      0100128CH   LINE      CODE     ---       #182
      01001293H   LINE      CODE     ---       #183
      01001293H   LINE      CODE     ---       #185
      0100129AH   LINE      CODE     ---       #186
      ---         BLOCKEND  ---      ---       LVL=0

      ---         MODULE    ---      ---       USE_EMULATOR_API
      0100188DH   PUBLIC    CODE     ---       Use_Emulator_API
      000000D0H.6 SFRSYM    DATA     BIT       AC
      00000080H   SFRSYM    DATA     BIT       FSM_FINISH
      00000083H   SFRSYM    DATA     BYTE      DPH0
      000000E8H   SFRSYM    DATA     BIT       AM
      000000A8H   SFRSYM    DATA     BYTE      IE
      00000085H   SFRSYM    DATA     BYTE      DPH1
      00000082H   SFRSYM    DATA     BYTE      DPL0
      00000084H   SFRSYM    DATA     BYTE      DPL1
      00000088H   SFRSYM    DATA     BIT       SSINT
      000000C0H   SFRSYM    DATA     BIT       PULLUP_RES_STATE
      00000088H.1 SFRSYM    DATA     BIT       USINT
      000000B8H   SFRSYM    DATA     BYTE      IP
      00000098H   SFRSYM    DATA     BIT       RI
      000000D0H.7 SFRSYM    DATA     BIT       CY
      00000098H.1 SFRSYM    DATA     BIT       TI
      000000EAH   SFRSYM    DATA     BYTE      MPTRX
      00000093H   SFRSYM    DATA     BYTE      DPX0
      00000095H   SFRSYM    DATA     BYTE      DPX1
      00000081H   SFRSYM    DATA     BYTE      SP
      000000D0H.2 SFRSYM    DATA     BIT       OV
      000000A1H   SFRSYM    DATA     BYTE      CBSL
      00000080H.5 SFRSYM    DATA     BIT       FSM_RESULT
      00000099H   SFRSYM    DATA     BYTE      SBUF
      00000087H   SFRSYM    DATA     BYTE      PCON
      00000088H.3 SFRSYM    DATA     BIT       MFLT
      00000098H   SFRSYM    DATA     BYTE      SCON
      00000089H   SFRSYM    DATA     BYTE      TMOD
      00000088H   SFRSYM    DATA     BYTE      TCON
      00000088H.1 SFRSYM    DATA     BIT       SINT
      000000E8H   SFRSYM    DATA     BYTE      EPSW
      000000F0H   SFRSYM    DATA     BYTE      B
      000000A2H   SFRSYM    DATA     BYTE      MPTR
      000000E0H   SFRSYM    DATA     BYTE      ACC
      00000088H.5 SFRSYM    DATA     BIT       TF0
      00000088H.7 SFRSYM    DATA     BIT       TF1
      0000008CH   SFRSYM    DATA     BYTE      TH0
      000000B2H   SFRSYM    DATA     BYTE      ISOCON
      0000008DH   SFRSYM    DATA     BYTE      TH1
      000000D8H   SFRSYM    DATA     BYTE      SPSW
      000000D0H   SFRSYM    DATA     BIT       P
      0000008AH   SFRSYM    DATA     BYTE      TL0
      0000008BH   SFRSYM    DATA     BYTE      TL1
      000000C0H   SFRSYM    DATA     BYTE      PROGIO
      000000D0H.3 SFRSYM    DATA     BIT       RS0
      00000088H.4 SFRSYM    DATA     BIT       TR0
      000000D0H.4 SFRSYM    DATA     BIT       RS1
      00000080H.1 SFRSYM    DATA     BIT       FSM_START
      00000088H.6 SFRSYM    DATA     BIT       TR1
      00000083H   SFRSYM    DATA     BYTE      DPH
      000000B4H   SFRSYM    DATA     BYTE      ISOTMR
      00000082H   SFRSYM    DATA     BYTE      DPL
      000000B0H   SFRSYM    DATA     BYTE      SECURITYSTATUS
      00000086H   SFRSYM    DATA     BYTE      DPS
LX51 LINKER/LOCATER V4.10a                                                            10/17/2007  16:47:04  PAGE 34


      00000093H   SFRSYM    DATA     BYTE      DPX
      00000080H   SFRSYM    DATA     BYTE      NVFSMCON
      000000F7H   SFRSYM    DATA     BYTE      MFCON
      000000C9H   SFRSYM    DATA     BYTE      NvFsmMode
      000000D0H.5 SFRSYM    DATA     BIT       F0
      000000E8H.1 SFRSYM    DATA     BIT       F1
      000000D0H   SFRSYM    DATA     BYTE      PSW

      0100188DH   BLOCK     CODE     ---       LVL=0
      0100188DH   LINE      CODE     ---       #59
      0100188DH   LINE      CODE     ---       #60
      0100188DH   LINE      CODE     ---       #62
      01001898H   LINE      CODE     ---       #65
      0100189CH   LINE      CODE     ---       #66
      0100189CH   LINE      CODE     ---       #67
      0100189EH   LINE      CODE     ---       #68
      010018A0H   LINE      CODE     ---       #70
      010018A0H   LINE      CODE     ---       #71
      010018A5H   LINE      CODE     ---       #72
      010018A5H   LINE      CODE     ---       #74
      010018ACH   LINE      CODE     ---       #76
      ---         BLOCKEND  ---      ---       LVL=0

      ---         MODULE    ---      ---       GLOBAL_VARS
      000000B8H   PUBLIC    IDATA    CHAR      cRet_Val_Char
      000000B0H   PUBLIC    IDATA    ---       TEMP_BUF
      0000000BH   PUBLIC    DATA     ---       CODE_PTR
      000000AFH   PUBLIC    IDATA    BYTE      ucCount
      000000AAH   PUBLIC    IDATA    ---       APDU_CMD
      02000000H   PUBLIC    XDATA    ---       IO_Buffer
      00000009H   PUBLIC    DATA     ---       XDATA_PTR
      00000008H   PUBLIC    DATA     ---       IDATA_PTR
      000000A8H   PUBLIC    IDATA    WORD      SW1SW2
      000000A7H   PUBLIC    IDATA    BYTE      Timer1_Int_Count
      000000A6H   PUBLIC    IDATA    BYTE      Timer0_Int_Count
      000000A4H   PUBLIC    IDATA    INT       iRet_Val_Int
      000000A3H   PUBLIC    IDATA    BYTE      IDLE_MODE
      000000A1H   PUBLIC    IDATA    WORD      uiTemp_Address
      0000009DH   PUBLIC    IDATA    DWORD     ulTemp_Var

      ---         MODULE    ---      ---       IO
      01001951H   PUBLIC    CODE     ---       _Serial_Transmit_X_Bytes
      0100040EH   PUBLIC    CODE     ---       _Serial_Receive_X_Bytes
      01000403H   PUBLIC    CODE     ---       GetChar
      01001965H   PUBLIC    CODE     ---       _PutChar
      000000D0H.6 SFRSYM    DATA     BIT       AC
      00000080H   SFRSYM    DATA     BIT       FSM_FINISH
      00000083H   SFRSYM    DATA     BYTE      DPH0
      000000E8H   SFRSYM    DATA     BIT       AM
      000000A8H   SFRSYM    DATA     BYTE      IE
      00000085H   SFRSYM    DATA     BYTE      DPH1
      00000082H   SFRSYM    DATA     BYTE      DPL0
      00000084H   SFRSYM    DATA     BYTE      DPL1
      00000088H   SFRSYM    DATA     BIT       SSINT
      000000C0H   SFRSYM    DATA     BIT       PULLUP_RES_STATE
      00000088H.1 SFRSYM    DATA     BIT       USINT
      000000B8H   SFRSYM    DATA     BYTE      IP
      00000098H   SFRSYM    DATA     BIT       RI
      000000D0H.7 SFRSYM    DATA     BIT       CY
      00000098H.1 SFRSYM    DATA     BIT       TI
      000000EAH   SFRSYM    DATA     BYTE      MPTRX
      00000093H   SFRSYM    DATA     BYTE      DPX0
      00000095H   SFRSYM    DATA     BYTE      DPX1
      00000081H   SFRSYM    DATA     BYTE      SP
      000000D0H.2 SFRSYM    DATA     BIT       OV
LX51 LINKER/LOCATER V4.10a                                                            10/17/2007  16:47:04  PAGE 35


      000000A1H   SFRSYM    DATA     BYTE      CBSL
      00000080H.5 SFRSYM    DATA     BIT       FSM_RESULT
      00000099H   SFRSYM    DATA     BYTE      SBUF
      00000087H   SFRSYM    DATA     BYTE      PCON
      00000088H.3 SFRSYM    DATA     BIT       MFLT
      00000098H   SFRSYM    DATA     BYTE      SCON
      00000089H   SFRSYM    DATA     BYTE      TMOD
      00000088H   SFRSYM    DATA     BYTE      TCON
      00000088H.1 SFRSYM    DATA     BIT       SINT
      000000E8H   SFRSYM    DATA     BYTE      EPSW
      000000F0H   SFRSYM    DATA     BYTE      B
      000000A2H   SFRSYM    DATA     BYTE      MPTR
      000000E0H   SFRSYM    DATA     BYTE      ACC
      00000088H.5 SFRSYM    DATA     BIT       TF0
      00000088H.7 SFRSYM    DATA     BIT       TF1
      0000008CH   SFRSYM    DATA     BYTE      TH0
      000000B2H   SFRSYM    DATA     BYTE      ISOCON
      0000008DH   SFRSYM    DATA     BYTE      TH1
      000000D8H   SFRSYM    DATA     BYTE      SPSW
      000000D0H   SFRSYM    DATA     BIT       P
      0000008AH   SFRSYM    DATA     BYTE      TL0
      0000008BH   SFRSYM    DATA     BYTE      TL1
      000000C0H   SFRSYM    DATA     BYTE      PROGIO
      000000D0H.3 SFRSYM    DATA     BIT       RS0
      00000088H.4 SFRSYM    DATA     BIT       TR0
      000000D0H.4 SFRSYM    DATA     BIT       RS1
      00000080H.1 SFRSYM    DATA     BIT       FSM_START
      00000088H.6 SFRSYM    DATA     BIT       TR1
      00000083H   SFRSYM    DATA     BYTE      DPH
      000000B4H   SFRSYM    DATA     BYTE      ISOTMR
      00000082H   SFRSYM    DATA     BYTE      DPL
      000000B0H   SFRSYM    DATA     BYTE      SECURITYSTATUS
      00000086H   SFRSYM    DATA     BYTE      DPS
      00000093H   SFRSYM    DATA     BYTE      DPX
      00000080H   SFRSYM    DATA     BYTE      NVFSMCON
      000000F7H   SFRSYM    DATA     BYTE      MFCON
      000000C9H   SFRSYM    DATA     BYTE      NvFsmMode
      000000D0H.5 SFRSYM    DATA     BIT       F0
      000000E8H.1 SFRSYM    DATA     BIT       F1
      000000D0H   SFRSYM    DATA     BYTE      PSW

      01001965H   BLOCK     CODE     ---       LVL=0
      00000007H   SYMBOL    DATA     BYTE      ByteToTx
      01001965H   LINE      CODE     ---       #52
      01001965H   LINE      CODE     ---       #53
      01001965H   LINE      CODE     ---       #54
      01001965H   LINE      CODE     ---       #55
      01001965H   LINE      CODE     ---       #56
      01001967H   LINE      CODE     ---       #58
      0100196AH   LINE      CODE     ---       #60
      0100196CH   LINE      CODE     ---       #62
      01001971H   LINE      CODE     ---       #63
      01001971H   LINE      CODE     ---       #64
      01001971H   LINE      CODE     ---       #65
      01001971H   LINE      CODE     ---       #67
      01001974H   LINE      CODE     ---       #68
      01001976H   LINE      CODE     ---       #70
      ---         BLOCKEND  ---      ---       LVL=0

      01000403H   BLOCK     CODE     ---       LVL=0
      01000403H   LINE      CODE     ---       #84
      01000403H   LINE      CODE     ---       #85
      01000403H   LINE      CODE     ---       #86
      01000406H   LINE      CODE     ---       #88
      01000408H   LINE      CODE     ---       #90
LX51 LINKER/LOCATER V4.10a                                                            10/17/2007  16:47:04  PAGE 36


      0100040AH   LINE      CODE     ---       #92
      ---         BLOCKEND  ---      ---       LVL=0

      0100040EH   BLOCK     CODE     ---       LVL=0
      00000006H   SYMBOL    DATA     BYTE      Num_of_Bytes_To_RX
      00000000H   SYMBOL    DATA     ---       Buffer_to_Fill
      0100040EH   LINE      CODE     ---       #104
      01000412H   LINE      CODE     ---       #105
      01000412H   LINE      CODE     ---       #106
      01000418H   LINE      CODE     ---       #107
      01000418H   LINE      CODE     ---       #108
      0100041DH   LINE      CODE     ---       #110
      0100041EH   LINE      CODE     ---       #112
      0100041FH   LINE      CODE     ---       #113
      01000421H   LINE      CODE     ---       #115
      ---         BLOCKEND  ---      ---       LVL=0

      01001951H   BLOCK     CODE     ---       LVL=0
      00000006H   SYMBOL    DATA     BYTE      Num_of_Bytes_To_TX
      00000000H   SYMBOL    DATA     ---       Buffer_to_Send
      01001951H   LINE      CODE     ---       #127
      01001955H   LINE      CODE     ---       #128
      01001955H   LINE      CODE     ---       #129
      0100195BH   LINE      CODE     ---       #130
      0100195BH   LINE      CODE     ---       #131
      01001960H   LINE      CODE     ---       #133
      01001961H   LINE      CODE     ---       #135
      01001962H   LINE      CODE     ---       #136
      01001964H   LINE      CODE     ---       #138
      ---         BLOCKEND  ---      ---       LVL=0

      ---         MODULE    ---      ---       CRC16_NORMAL
      01001A0CH   PUBLIC    CONST    ---       CRC16_LookUp_Table
      0100138BH   PUBLIC    CODE     ---       _CalculateCRC
      0100133CH   PUBLIC    CODE     ---       Create_CRC16_Hash_Of_XDATA
      000000D0H.6 SFRSYM    DATA     BIT       AC
      00000080H   SFRSYM    DATA     BIT       FSM_FINISH
      00000083H   SFRSYM    DATA     BYTE      DPH0
      000000E8H   SFRSYM    DATA     BIT       AM
      000000A8H   SFRSYM    DATA     BYTE      IE
      00000085H   SFRSYM    DATA     BYTE      DPH1
      00000082H   SFRSYM    DATA     BYTE      DPL0
      00000084H   SFRSYM    DATA     BYTE      DPL1
      00000088H   SFRSYM    DATA     BIT       SSINT
      000000C0H   SFRSYM    DATA     BIT       PULLUP_RES_STATE
      00000088H.1 SFRSYM    DATA     BIT       USINT
      000000B8H   SFRSYM    DATA     BYTE      IP
      00000098H   SFRSYM    DATA     BIT       RI
      000000D0H.7 SFRSYM    DATA     BIT       CY
      00000098H.1 SFRSYM    DATA     BIT       TI
      000000EAH   SFRSYM    DATA     BYTE      MPTRX
      00000093H   SFRSYM    DATA     BYTE      DPX0
      00000095H   SFRSYM    DATA     BYTE      DPX1
      00000081H   SFRSYM    DATA     BYTE      SP
      000000D0H.2 SFRSYM    DATA     BIT       OV
      000000A1H   SFRSYM    DATA     BYTE      CBSL
      00000080H.5 SFRSYM    DATA     BIT       FSM_RESULT
      00000099H   SFRSYM    DATA     BYTE      SBUF
      00000087H   SFRSYM    DATA     BYTE      PCON
      00000088H.3 SFRSYM    DATA     BIT       MFLT
      00000098H   SFRSYM    DATA     BYTE      SCON
      00000089H   SFRSYM    DATA     BYTE      TMOD
      00000088H   SFRSYM    DATA     BYTE      TCON
      00000088H.1 SFRSYM    DATA     BIT       SINT
      000000E8H   SFRSYM    DATA     BYTE      EPSW
LX51 LINKER/LOCATER V4.10a                                                            10/17/2007  16:47:04  PAGE 37


      000000F0H   SFRSYM    DATA     BYTE      B
      000000A2H   SFRSYM    DATA     BYTE      MPTR
      000000E0H   SFRSYM    DATA     BYTE      ACC
      00000088H.5 SFRSYM    DATA     BIT       TF0
      00000088H.7 SFRSYM    DATA     BIT       TF1
      0000008CH   SFRSYM    DATA     BYTE      TH0
      000000B2H   SFRSYM    DATA     BYTE      ISOCON
      0000008DH   SFRSYM    DATA     BYTE      TH1
      000000D8H   SFRSYM    DATA     BYTE      SPSW
      000000D0H   SFRSYM    DATA     BIT       P
      0000008AH   SFRSYM    DATA     BYTE      TL0
      0000008BH   SFRSYM    DATA     BYTE      TL1
      000000C0H   SFRSYM    DATA     BYTE      PROGIO
      000000D0H.3 SFRSYM    DATA     BIT       RS0
      00000088H.4 SFRSYM    DATA     BIT       TR0
      000000D0H.4 SFRSYM    DATA     BIT       RS1
      00000080H.1 SFRSYM    DATA     BIT       FSM_START
      00000088H.6 SFRSYM    DATA     BIT       TR1
      00000083H   SFRSYM    DATA     BYTE      DPH
      000000B4H   SFRSYM    DATA     BYTE      ISOTMR
      00000082H   SFRSYM    DATA     BYTE      DPL
      000000B0H   SFRSYM    DATA     BYTE      SECURITYSTATUS
      00000086H   SFRSYM    DATA     BYTE      DPS
      00000093H   SFRSYM    DATA     BYTE      DPX
      00000080H   SFRSYM    DATA     BYTE      NVFSMCON
      000000F7H   SFRSYM    DATA     BYTE      MFCON
      000000C9H   SFRSYM    DATA     BYTE      NvFsmMode
      000000D0H.5 SFRSYM    DATA     BIT       F0
      000000E8H.1 SFRSYM    DATA     BIT       F1
      000000D0H   SFRSYM    DATA     BYTE      PSW

      0100133CH   BLOCK     CODE     ---       LVL=0
      0100133CH   BLOCK     CODE     NEAR LAB  LVL=1
      00000022H   SYMBOL    DATA     WORD      CRC_Value
      ---         BLOCKEND  ---      ---       LVL=1
      0100133CH   LINE      CODE     ---       #96
      0100133CH   LINE      CODE     ---       #97
      0100133CH   LINE      CODE     ---       #98
      01001341H   LINE      CODE     ---       #100
      01001348H   LINE      CODE     ---       #101
      01001348H   LINE      CODE     ---       #102
      01001359H   LINE      CODE     ---       #104
      01001369H   LINE      CODE     ---       #106
      0100136FH   LINE      CODE     ---       #107
      01001376H   LINE      CODE     ---       #109
      0100137AH   LINE      CODE     ---       #110
      0100137CH   LINE      CODE     ---       #112
      0100137CH   LINE      CODE     ---       #113
      01001383H   LINE      CODE     ---       #114
      01001383H   LINE      CODE     ---       #116
      0100138AH   LINE      CODE     ---       #118
      ---         BLOCKEND  ---      ---       LVL=0

      0100138BH   BLOCK     CODE     ---       LVL=0
      00000024H   SYMBOL    DATA     ---       ucpStartAddress
      00000026H   SYMBOL    DATA     WORD      uiInitRemainder
      00000002H   SYMBOL    DATA     WORD      uiLen
      0100138BH   LINE      CODE     ---       #131
      01001393H   LINE      CODE     ---       #132
      01001393H   LINE      CODE     ---       #133
      0100139CH   LINE      CODE     ---       #134
      0100139CH   LINE      CODE     ---       #135
      010013CDH   LINE      CODE     ---       #136
      010013D4H   LINE      CODE     ---       #138
      010013D8H   LINE      CODE     ---       #140
LX51 LINKER/LOCATER V4.10a                                                            10/17/2007  16:47:04  PAGE 38


      ---         BLOCKEND  ---      ---       LVL=0

      ---         MODULE    ---      ---       SET_IDLE_MODE
      010017E7H   PUBLIC    CODE     ---       Get_Idle_Mode
      010019DAH   PUBLIC    CODE     ---       Set_Idle_Mode
      000000D0H.6 SFRSYM    DATA     BIT       AC
      00000080H   SFRSYM    DATA     BIT       FSM_FINISH
      00000083H   SFRSYM    DATA     BYTE      DPH0
      000000E8H   SFRSYM    DATA     BIT       AM
      000000A8H   SFRSYM    DATA     BYTE      IE
      00000085H   SFRSYM    DATA     BYTE      DPH1
      00000082H   SFRSYM    DATA     BYTE      DPL0
      00000084H   SFRSYM    DATA     BYTE      DPL1
      00000088H   SFRSYM    DATA     BIT       SSINT
      000000C0H   SFRSYM    DATA     BIT       PULLUP_RES_STATE
      00000088H.1 SFRSYM    DATA     BIT       USINT
      000000B8H   SFRSYM    DATA     BYTE      IP
      00000098H   SFRSYM    DATA     BIT       RI
      000000D0H.7 SFRSYM    DATA     BIT       CY
      00000098H.1 SFRSYM    DATA     BIT       TI
      000000EAH   SFRSYM    DATA     BYTE      MPTRX
      00000093H   SFRSYM    DATA     BYTE      DPX0
      00000095H   SFRSYM    DATA     BYTE      DPX1
      00000081H   SFRSYM    DATA     BYTE      SP
      000000D0H.2 SFRSYM    DATA     BIT       OV
      000000A1H   SFRSYM    DATA     BYTE      CBSL
      00000080H.5 SFRSYM    DATA     BIT       FSM_RESULT
      00000099H   SFRSYM    DATA     BYTE      SBUF
      00000087H   SFRSYM    DATA     BYTE      PCON
      00000088H.3 SFRSYM    DATA     BIT       MFLT
      00000098H   SFRSYM    DATA     BYTE      SCON
      00000089H   SFRSYM    DATA     BYTE      TMOD
      00000088H   SFRSYM    DATA     BYTE      TCON
      00000088H.1 SFRSYM    DATA     BIT       SINT
      000000E8H   SFRSYM    DATA     BYTE      EPSW
      000000F0H   SFRSYM    DATA     BYTE      B
      000000A2H   SFRSYM    DATA     BYTE      MPTR
      000000E0H   SFRSYM    DATA     BYTE      ACC
      00000088H.5 SFRSYM    DATA     BIT       TF0
      00000088H.7 SFRSYM    DATA     BIT       TF1
      0000008CH   SFRSYM    DATA     BYTE      TH0
      000000B2H   SFRSYM    DATA     BYTE      ISOCON
      0000008DH   SFRSYM    DATA     BYTE      TH1
      000000D8H   SFRSYM    DATA     BYTE      SPSW
      000000D0H   SFRSYM    DATA     BIT       P
      0000008AH   SFRSYM    DATA     BYTE      TL0
      0000008BH   SFRSYM    DATA     BYTE      TL1
      000000C0H   SFRSYM    DATA     BYTE      PROGIO
      000000D0H.3 SFRSYM    DATA     BIT       RS0
      00000088H.4 SFRSYM    DATA     BIT       TR0
      000000D0H.4 SFRSYM    DATA     BIT       RS1
      00000080H.1 SFRSYM    DATA     BIT       FSM_START
      00000088H.6 SFRSYM    DATA     BIT       TR1
      00000083H   SFRSYM    DATA     BYTE      DPH
      000000B4H   SFRSYM    DATA     BYTE      ISOTMR
      00000082H   SFRSYM    DATA     BYTE      DPL
      000000B0H   SFRSYM    DATA     BYTE      SECURITYSTATUS
      00000086H   SFRSYM    DATA     BYTE      DPS
      00000093H   SFRSYM    DATA     BYTE      DPX
      00000080H   SFRSYM    DATA     BYTE      NVFSMCON
      000000F7H   SFRSYM    DATA     BYTE      MFCON
      000000C9H   SFRSYM    DATA     BYTE      NvFsmMode
      000000D0H.5 SFRSYM    DATA     BIT       F0
      000000E8H.1 SFRSYM    DATA     BIT       F1
      000000D0H   SFRSYM    DATA     BYTE      PSW
LX51 LINKER/LOCATER V4.10a                                                            10/17/2007  16:47:04  PAGE 39



      010019DAH   BLOCK     CODE     ---       LVL=0
      010019DAH   LINE      CODE     ---       #57
      010019DAH   LINE      CODE     ---       #58
      010019DAH   LINE      CODE     ---       #59
      010019E2H   LINE      CODE     ---       #61
      010019E6H   LINE      CODE     ---       #63
      ---         BLOCKEND  ---      ---       LVL=0

      010017E7H   BLOCK     CODE     ---       LVL=0
      010017E7H   LINE      CODE     ---       #86
      010017E7H   LINE      CODE     ---       #87
      010017E7H   LINE      CODE     ---       #88
      010017EDH   LINE      CODE     ---       #89
      010017EDH   LINE      CODE     ---       #90
      010017F4H   LINE      CODE     ---       #92
      010017F8H   LINE      CODE     ---       #93
      010017FAH   LINE      CODE     ---       #95
      010017FAH   LINE      CODE     ---       #96
      01001801H   LINE      CODE     ---       #97
      01001801H   LINE      CODE     ---       #99
      01001808H   LINE      CODE     ---       #101
      ---         BLOCKEND  ---      ---       LVL=0

      ---         MODULE    ---      ---       ISO_SELECT_SPEED
      01000C85H   PUBLIC    CODE     ---       _ISO_Select_Speed
      000000D0H.6 SFRSYM    DATA     BIT       AC
      00000080H   SFRSYM    DATA     BIT       FSM_FINISH
      00000083H   SFRSYM    DATA     BYTE      DPH0
      000000E8H   SFRSYM    DATA     BIT       AM
      000000A8H   SFRSYM    DATA     BYTE      IE
      00000085H   SFRSYM    DATA     BYTE      DPH1
      00000082H   SFRSYM    DATA     BYTE      DPL0
      00000084H   SFRSYM    DATA     BYTE      DPL1
      00000088H   SFRSYM    DATA     BIT       SSINT
      000000C0H   SFRSYM    DATA     BIT       PULLUP_RES_STATE
      00000088H.1 SFRSYM    DATA     BIT       USINT
      000000B8H   SFRSYM    DATA     BYTE      IP
      00000098H   SFRSYM    DATA     BIT       RI
      000000D0H.7 SFRSYM    DATA     BIT       CY
      00000098H.1 SFRSYM    DATA     BIT       TI
      000000EAH   SFRSYM    DATA     BYTE      MPTRX
      00000093H   SFRSYM    DATA     BYTE      DPX0
      00000095H   SFRSYM    DATA     BYTE      DPX1
      00000081H   SFRSYM    DATA     BYTE      SP
      000000D0H.2 SFRSYM    DATA     BIT       OV
      000000A1H   SFRSYM    DATA     BYTE      CBSL
      00000080H.5 SFRSYM    DATA     BIT       FSM_RESULT
      00000099H   SFRSYM    DATA     BYTE      SBUF
      00000087H   SFRSYM    DATA     BYTE      PCON
      00000088H.3 SFRSYM    DATA     BIT       MFLT
      00000098H   SFRSYM    DATA     BYTE      SCON
      00000089H   SFRSYM    DATA     BYTE      TMOD
      00000088H   SFRSYM    DATA     BYTE      TCON
      00000088H.1 SFRSYM    DATA     BIT       SINT
      000000E8H   SFRSYM    DATA     BYTE      EPSW
      000000F0H   SFRSYM    DATA     BYTE      B
      000000A2H   SFRSYM    DATA     BYTE      MPTR
      000000E0H   SFRSYM    DATA     BYTE      ACC
      00000088H.5 SFRSYM    DATA     BIT       TF0
      00000088H.7 SFRSYM    DATA     BIT       TF1
      0000008CH   SFRSYM    DATA     BYTE      TH0
      000000B2H   SFRSYM    DATA     BYTE      ISOCON
      0000008DH   SFRSYM    DATA     BYTE      TH1
      000000D8H   SFRSYM    DATA     BYTE      SPSW
LX51 LINKER/LOCATER V4.10a                                                            10/17/2007  16:47:04  PAGE 40


      000000D0H   SFRSYM    DATA     BIT       P
      0000008AH   SFRSYM    DATA     BYTE      TL0
      0000008BH   SFRSYM    DATA     BYTE      TL1
      000000C0H   SFRSYM    DATA     BYTE      PROGIO
      000000D0H.3 SFRSYM    DATA     BIT       RS0
      00000088H.4 SFRSYM    DATA     BIT       TR0
      000000D0H.4 SFRSYM    DATA     BIT       RS1
      00000080H.1 SFRSYM    DATA     BIT       FSM_START
      00000088H.6 SFRSYM    DATA     BIT       TR1
      00000083H   SFRSYM    DATA     BYTE      DPH
      000000B4H   SFRSYM    DATA     BYTE      ISOTMR
      00000082H   SFRSYM    DATA     BYTE      DPL
      000000B0H   SFRSYM    DATA     BYTE      SECURITYSTATUS
      00000086H   SFRSYM    DATA     BYTE      DPS
      00000093H   SFRSYM    DATA     BYTE      DPX
      00000080H   SFRSYM    DATA     BYTE      NVFSMCON
      000000F7H   SFRSYM    DATA     BYTE      MFCON
      000000C9H   SFRSYM    DATA     BYTE      NvFsmMode
      000000D0H.5 SFRSYM    DATA     BIT       F0
      000000E8H.1 SFRSYM    DATA     BIT       F1
      000000D0H   SFRSYM    DATA     BYTE      PSW

      01000C85H   BLOCK     CODE     ---       LVL=0
      00000007H   SYMBOL    DATA     BYTE      FiDi
      00000022H   SYMBOL    DATA     BYTE      ucCommand_Type
      01000C87H   BLOCK     CODE     NEAR LAB  LVL=1
      0000005DH   SYMBOL    IDATA    WORD      F
      0000005FH   SYMBOL    IDATA    WORD      D
      00000061H   SYMBOL    IDATA    WORD      ISO_Timer_Val
      ---         BLOCKEND  ---      ---       LVL=1
      01000C85H   LINE      CODE     ---       #58
      01000C87H   LINE      CODE     ---       #59
      01000C87H   LINE      CODE     ---       #60
      01000C8EH   LINE      CODE     ---       #61
      01000C94H   LINE      CODE     ---       #62
      01000C9AH   LINE      CODE     ---       #64
      01000CC3H   LINE      CODE     ---       #65
      01000CC3H   LINE      CODE     ---       #66
      01000CCCH   LINE      CODE     ---       #67
      01000CD5H   LINE      CODE     ---       #68
      01000CDEH   LINE      CODE     ---       #69
      01000CE7H   LINE      CODE     ---       #70
      01000CF0H   LINE      CODE     ---       #71
      01000CF6H   LINE      CODE     ---       #72
      01000CFCH   LINE      CODE     ---       #73
      01000D02H   LINE      CODE     ---       #74
      01000D08H   LINE      CODE     ---       #75
      01000D11H   LINE      CODE     ---       #76
      01000D18H   LINE      CODE     ---       #77
      01000D18H   LINE      CODE     ---       #79
      01000D37H   LINE      CODE     ---       #80
      01000D37H   LINE      CODE     ---       #81
      01000D40H   LINE      CODE     ---       #82
      01000D49H   LINE      CODE     ---       #83
      01000D52H   LINE      CODE     ---       #84
      01000D5BH   LINE      CODE     ---       #85
      01000D64H   LINE      CODE     ---       #86
      01000D6DH   LINE      CODE     ---       #87
      01000D76H   LINE      CODE     ---       #88
      01000D7DH   LINE      CODE     ---       #89
      01000D7DH   LINE      CODE     ---       #92
      01000D9CH   LINE      CODE     ---       #102
      01000DACH   LINE      CODE     ---       #103
      01000DACH   LINE      CODE     ---       #104
      01000DB1H   LINE      CODE     ---       #105
LX51 LINKER/LOCATER V4.10a                                                            10/17/2007  16:47:04  PAGE 41


      01000DB1H   LINE      CODE     ---       #107
      01000DB8H   LINE      CODE     ---       #108
      01000DB8H   LINE      CODE     ---       #110
      01000DBDH   LINE      CODE     ---       #111
      01000DBDH   LINE      CODE     ---       #112
      01000DC4H   LINE      CODE     ---       #113
      01000DCBH   LINE      CODE     ---       #114
      01000DCBH   LINE      CODE     ---       #117
      01000DD5H   LINE      CODE     ---       #120
      01000DDAH   LINE      CODE     ---       #121
      01000DDBH   LINE      CODE     ---       #124
      01000DDBH   LINE      CODE     ---       #125
      01000DE0H   LINE      CODE     ---       #126
      01000DE0H   LINE      CODE     ---       #127
      01000DE5H   LINE      CODE     ---       #128
      01000DEAH   LINE      CODE     ---       #129
      01000DEFH   LINE      CODE     ---       #130
      01000DF4H   LINE      CODE     ---       #131
      01000DF4H   LINE      CODE     ---       #133
      01000DF9H   LINE      CODE     ---       #134
      01000DF9H   LINE      CODE     ---       #135
      01000E00H   LINE      CODE     ---       #136
      01000E07H   LINE      CODE     ---       #137
      01000E07H   LINE      CODE     ---       #138
      01000E07H   LINE      CODE     ---       #140
      ---         BLOCKEND  ---      ---       LVL=0

      ---         MODULE    ---      ---       MAIN
      01001C0CH   PUBLIC    CONST    ---       INS_FPTR
      01001111H   PUBLIC    CODE     ---       Process_APDU_Command
      010011E9H   PUBLIC    CODE     ---       _Enter_Idle_Mode
      010019ACH   PUBLIC    CODE     ---       Process_PPS_Command
      010015E6H   PUBLIC    CODE     ---       main
      000000D0H.6 SFRSYM    DATA     BIT       AC
      00000080H   SFRSYM    DATA     BIT       FSM_FINISH
      00000083H   SFRSYM    DATA     BYTE      DPH0
      000000E8H   SFRSYM    DATA     BIT       AM
      000000A8H   SFRSYM    DATA     BYTE      IE
      00000085H   SFRSYM    DATA     BYTE      DPH1
      00000082H   SFRSYM    DATA     BYTE      DPL0
      00000084H   SFRSYM    DATA     BYTE      DPL1
      00000088H   SFRSYM    DATA     BIT       SSINT
      000000C0H   SFRSYM    DATA     BIT       PULLUP_RES_STATE
      00000088H.1 SFRSYM    DATA     BIT       USINT
      000000B8H   SFRSYM    DATA     BYTE      IP
      00000098H   SFRSYM    DATA     BIT       RI
      000000D0H.7 SFRSYM    DATA     BIT       CY
      00000098H.1 SFRSYM    DATA     BIT       TI
      000000EAH   SFRSYM    DATA     BYTE      MPTRX
      00000093H   SFRSYM    DATA     BYTE      DPX0
      00000095H   SFRSYM    DATA     BYTE      DPX1
      00000081H   SFRSYM    DATA     BYTE      SP
      000000D0H.2 SFRSYM    DATA     BIT       OV
      000000A1H   SFRSYM    DATA     BYTE      CBSL
      00000080H.5 SFRSYM    DATA     BIT       FSM_RESULT
      00000099H   SFRSYM    DATA     BYTE      SBUF
      00000087H   SFRSYM    DATA     BYTE      PCON
      00000088H.3 SFRSYM    DATA     BIT       MFLT
      00000098H   SFRSYM    DATA     BYTE      SCON
      00000089H   SFRSYM    DATA     BYTE      TMOD
      00000088H   SFRSYM    DATA     BYTE      TCON
      00000088H.1 SFRSYM    DATA     BIT       SINT
      000000E8H   SFRSYM    DATA     BYTE      EPSW
      000000F0H   SFRSYM    DATA     BYTE      B
      000000A2H   SFRSYM    DATA     BYTE      MPTR
LX51 LINKER/LOCATER V4.10a                                                            10/17/2007  16:47:04  PAGE 42


      000000E0H   SFRSYM    DATA     BYTE      ACC
      00000088H.5 SFRSYM    DATA     BIT       TF0
      00000088H.7 SFRSYM    DATA     BIT       TF1
      0000008CH   SFRSYM    DATA     BYTE      TH0
      000000B2H   SFRSYM    DATA     BYTE      ISOCON
      0000008DH   SFRSYM    DATA     BYTE      TH1
      000000D8H   SFRSYM    DATA     BYTE      SPSW
      000000D0H   SFRSYM    DATA     BIT       P
      0000008AH   SFRSYM    DATA     BYTE      TL0
      0000008BH   SFRSYM    DATA     BYTE      TL1
      000000C0H   SFRSYM    DATA     BYTE      PROGIO
      000000D0H.3 SFRSYM    DATA     BIT       RS0
      00000088H.4 SFRSYM    DATA     BIT       TR0
      000000D0H.4 SFRSYM    DATA     BIT       RS1
      00000080H.1 SFRSYM    DATA     BIT       FSM_START
      00000088H.6 SFRSYM    DATA     BIT       TR1
      00000083H   SFRSYM    DATA     BYTE      DPH
      000000B4H   SFRSYM    DATA     BYTE      ISOTMR
      00000082H   SFRSYM    DATA     BYTE      DPL
      000000B0H   SFRSYM    DATA     BYTE      SECURITYSTATUS
      00000086H   SFRSYM    DATA     BYTE      DPS
      00000093H   SFRSYM    DATA     BYTE      DPX
      00000080H   SFRSYM    DATA     BYTE      NVFSMCON
      000000F7H   SFRSYM    DATA     BYTE      MFCON
      000000C9H   SFRSYM    DATA     BYTE      NvFsmMode
      000000D0H.5 SFRSYM    DATA     BIT       F0
      000000E8H.1 SFRSYM    DATA     BIT       F1
      000000D0H   SFRSYM    DATA     BYTE      PSW

      010015E6H   BLOCK     CODE     ---       LVL=0
      010015E6H   LINE      CODE     ---       #60
      010015E6H   LINE      CODE     ---       #61
      010015E6H   LINE      CODE     ---       #62
      010015E9H   LINE      CODE     ---       #64
      010015ECH   LINE      CODE     ---       #66
      010015F3H   LINE      CODE     ---       #74
      010015FAH   LINE      CODE     ---       #76
      010015FDH   LINE      CODE     ---       #77
      010015FDH   LINE      CODE     ---       #78
      01001600H   LINE      CODE     ---       #79
      01001602H   LINE      CODE     ---       #81
      01001602H   LINE      CODE     ---       #82
      01001609H   LINE      CODE     ---       #83
      0100160CH   LINE      CODE     ---       #84
      0100160CH   LINE      CODE     ---       #91
      0100160CH   LINE      CODE     ---       #92
      0100160CH   LINE      CODE     ---       #94
      01001613H   LINE      CODE     ---       #97
      0100161AH   LINE      CODE     ---       #99
      0100161DH   LINE      CODE     ---       #100
      ---         BLOCKEND  ---      ---       LVL=0

      010019ACH   BLOCK     CODE     ---       LVL=0
      010019ACH   LINE      CODE     ---       #113
      010019ACH   LINE      CODE     ---       #114
      010019ACH   LINE      CODE     ---       #116
      010019B3H   LINE      CODE     ---       #119
      ---         BLOCKEND  ---      ---       LVL=0

      010011E9H   BLOCK     CODE     ---       LVL=0
      00000007H   SYMBOL    DATA     BYTE      ucIdleMode
      010011E9H   LINE      CODE     ---       #132
      010011E9H   LINE      CODE     ---       #133
      010011E9H   LINE      CODE     ---       #134
      010011ECH   LINE      CODE     ---       #135
LX51 LINKER/LOCATER V4.10a                                                            10/17/2007  16:47:04  PAGE 43


      010011ECH   LINE      CODE     ---       #136
      010011EFH   LINE      CODE     ---       #138
      010011F0H   LINE      CODE     ---       #139
      010011F1H   LINE      CODE     ---       #140
      010011F2H   LINE      CODE     ---       #141
      010011F3H   LINE      CODE     ---       #142
      010011F4H   LINE      CODE     ---       #143
      010011F5H   LINE      CODE     ---       #144
      010011FAH   LINE      CODE     ---       #145
      010011FAH   LINE      CODE     ---       #148
      01001201H   LINE      CODE     ---       #150
      01001205H   LINE      CODE     ---       #152
      0100120EH   LINE      CODE     ---       #154
      01001215H   LINE      CODE     ---       #168
      01001218H   LINE      CODE     ---       #169
      01001218H   LINE      CODE     ---       #170
      0100121AH   LINE      CODE     ---       #171
      0100121CH   LINE      CODE     ---       #172
      01001222H   LINE      CODE     ---       #173
      01001222H   LINE      CODE     ---       #174
      01001224H   LINE      CODE     ---       #175
      01001226H   LINE      CODE     ---       #177
      01001226H   LINE      CODE     ---       #178
      0100122AH   LINE      CODE     ---       #179
      0100122AH   LINE      CODE     ---       #182
      01001233H   LINE      CODE     ---       #184
      01001236H   LINE      CODE     ---       #186
      01001237H   LINE      CODE     ---       #187
      01001238H   LINE      CODE     ---       #188
      01001239H   LINE      CODE     ---       #189
      0100123AH   LINE      CODE     ---       #190
      0100123BH   LINE      CODE     ---       #193
      01001248H   LINE      CODE     ---       #195
      01001248H   LINE      CODE     ---       #197
      ---         BLOCKEND  ---      ---       LVL=0

      01001111H   BLOCK     CODE     ---       LVL=0
      01001111H   LINE      CODE     ---       #218
      01001111H   LINE      CODE     ---       #219
      01001111H   LINE      CODE     ---       #221
      01001118H   LINE      CODE     ---       #222
      01001118H   LINE      CODE     ---       #223
      0100111CH   LINE      CODE     ---       #224
      0100111EH   LINE      CODE     ---       #227
      01001125H   LINE      CODE     ---       #228
      01001125H   LINE      CODE     ---       #229
      01001129H   LINE      CODE     ---       #230
      0100112BH   LINE      CODE     ---       #246
      01001144H   LINE      CODE     ---       #253
      01001144H   LINE      CODE     ---       #270
      0100114BH   LINE      CODE     ---       #279
      0100116EH   LINE      CODE     ---       #287
      01001170H   LINE      CODE     ---       #291
      01001170H   LINE      CODE     ---       #292
      01001177H   LINE      CODE     ---       #293
      01001177H   LINE      CODE     ---       #296
      0100117EH   LINE      CODE     ---       #297
      0100117EH   LINE      CODE     ---       #298
      01001185H   LINE      CODE     ---       #299
      01001185H   LINE      CODE     ---       #301
      ---         BLOCKEND  ---      ---       LVL=0

      ---         MODULE    ---      ---       SHA_1
      0100042EH   PUBLIC    CODE     ---       _SHA_1_Hash
      01001093H   PUBLIC    CODE     ---       Call_SHA1
LX51 LINKER/LOCATER V4.10a                                                            10/17/2007  16:47:04  PAGE 44


      000000D0H.6 SFRSYM    DATA     BIT       AC
      00000080H   SFRSYM    DATA     BIT       FSM_FINISH
      00000083H   SFRSYM    DATA     BYTE      DPH0
      000000E8H   SFRSYM    DATA     BIT       AM
      000000A8H   SFRSYM    DATA     BYTE      IE
      00000085H   SFRSYM    DATA     BYTE      DPH1
      00000082H   SFRSYM    DATA     BYTE      DPL0
      00000084H   SFRSYM    DATA     BYTE      DPL1
      00000088H   SFRSYM    DATA     BIT       SSINT
      000000C0H   SFRSYM    DATA     BIT       PULLUP_RES_STATE
      00000088H.1 SFRSYM    DATA     BIT       USINT
      000000B8H   SFRSYM    DATA     BYTE      IP
      00000098H   SFRSYM    DATA     BIT       RI
      000000D0H.7 SFRSYM    DATA     BIT       CY
      00000098H.1 SFRSYM    DATA     BIT       TI
      000000EAH   SFRSYM    DATA     BYTE      MPTRX
      00000093H   SFRSYM    DATA     BYTE      DPX0
      00000095H   SFRSYM    DATA     BYTE      DPX1
      00000081H   SFRSYM    DATA     BYTE      SP
      000000D0H.2 SFRSYM    DATA     BIT       OV
      000000A1H   SFRSYM    DATA     BYTE      CBSL
      00000080H.5 SFRSYM    DATA     BIT       FSM_RESULT
      00000099H   SFRSYM    DATA     BYTE      SBUF
      00000087H   SFRSYM    DATA     BYTE      PCON
      00000088H.3 SFRSYM    DATA     BIT       MFLT
      00000098H   SFRSYM    DATA     BYTE      SCON
      00000089H   SFRSYM    DATA     BYTE      TMOD
      00000088H   SFRSYM    DATA     BYTE      TCON
      00000088H.1 SFRSYM    DATA     BIT       SINT
      000000E8H   SFRSYM    DATA     BYTE      EPSW
      000000F0H   SFRSYM    DATA     BYTE      B
      000000A2H   SFRSYM    DATA     BYTE      MPTR
      000000E0H   SFRSYM    DATA     BYTE      ACC
      00000088H.5 SFRSYM    DATA     BIT       TF0
      00000088H.7 SFRSYM    DATA     BIT       TF1
      0000008CH   SFRSYM    DATA     BYTE      TH0
      000000B2H   SFRSYM    DATA     BYTE      ISOCON
      0000008DH   SFRSYM    DATA     BYTE      TH1
      000000D8H   SFRSYM    DATA     BYTE      SPSW
      000000D0H   SFRSYM    DATA     BIT       P
      0000008AH   SFRSYM    DATA     BYTE      TL0
      0000008BH   SFRSYM    DATA     BYTE      TL1
      000000C0H   SFRSYM    DATA     BYTE      PROGIO
      000000D0H.3 SFRSYM    DATA     BIT       RS0
      00000088H.4 SFRSYM    DATA     BIT       TR0
      000000D0H.4 SFRSYM    DATA     BIT       RS1
      00000080H.1 SFRSYM    DATA     BIT       FSM_START
      00000088H.6 SFRSYM    DATA     BIT       TR1
      00000083H   SFRSYM    DATA     BYTE      DPH
      000000B4H   SFRSYM    DATA     BYTE      ISOTMR
      00000082H   SFRSYM    DATA     BYTE      DPL
      000000B0H   SFRSYM    DATA     BYTE      SECURITYSTATUS
      00000086H   SFRSYM    DATA     BYTE      DPS
      00000093H   SFRSYM    DATA     BYTE      DPX
      00000080H   SFRSYM    DATA     BYTE      NVFSMCON
      000000F7H   SFRSYM    DATA     BYTE      MFCON
      000000C9H   SFRSYM    DATA     BYTE      NvFsmMode
      000000D0H.5 SFRSYM    DATA     BIT       F0
      000000E8H.1 SFRSYM    DATA     BIT       F1
      000000D0H   SFRSYM    DATA     BYTE      PSW

      01001093H   BLOCK     CODE     ---       LVL=0
      01001093H   BLOCK     CODE     NEAR LAB  LVL=1
      00000022H   SYMBOL    DATA     ---       ucpSHA1_Hash_Output
      0100109AH   BLOCK     CODE     NEAR LAB  LVL=2
LX51 LINKER/LOCATER V4.10a                                                            10/17/2007  16:47:04  PAGE 45


      00000025H   SYMBOL    DATA     ---       ucPtr_Data_To_Hash
      ---         BLOCKEND  ---      ---       LVL=2
      ---         BLOCKEND  ---      ---       LVL=1
      01001093H   LINE      CODE     ---       #64
      01001093H   LINE      CODE     ---       #65
      01001093H   LINE      CODE     ---       #68
      0100109AH   LINE      CODE     ---       #69
      0100109AH   LINE      CODE     ---       #71
      0100109FH   LINE      CODE     ---       #74
      010010ABH   LINE      CODE     ---       #75
      010010ABH   LINE      CODE     ---       #76
      010010BFH   LINE      CODE     ---       #77
      010010C4H   LINE      CODE     ---       #79
      010010CAH   LINE      CODE     ---       #82
      010010DFH   LINE      CODE     ---       #84
      010010E3H   LINE      CODE     ---       #85
      010010E3H   LINE      CODE     ---       #86
      010010F3H   LINE      CODE     ---       #87
      010010FCH   LINE      CODE     ---       #89
      01001100H   LINE      CODE     ---       #90
      01001102H   LINE      CODE     ---       #92
      01001102H   LINE      CODE     ---       #93
      01001109H   LINE      CODE     ---       #94
      01001109H   LINE      CODE     ---       #96
      01001110H   LINE      CODE     ---       #98
      ---         BLOCKEND  ---      ---       LVL=0

      0100042EH   BLOCK     CODE     ---       LVL=0
      00000027H   SYMBOL    DATA     ---       ucpDataBytesPtr
      0000002AH   SYMBOL    DATA     WORD      uiNumberToHash
      01000438H   BLOCK     CODE     NEAR LAB  LVL=1
      0000002CH   SYMBOL    DATA     ---       H
      00000040H   SYMBOL    DATA     DWORD     A
      00000044H   SYMBOL    DATA     DWORD     B
      00000048H   SYMBOL    DATA     DWORD     C
      0000004CH   SYMBOL    DATA     DWORD     D
      00000050H   SYMBOL    DATA     DWORD     E
      0000005DH   SYMBOL    IDATA    ---       W
      00000054H   SYMBOL    DATA     DWORD     ulTEMP
      00000058H   SYMBOL    DATA     WORD      uiBytesAlreadyHashed
      0000005AH   SYMBOL    DATA     BYTE      s
      0000005BH   SYMBOL    DATA     BYTE      t
      0000005CH   SYMBOL    DATA     BYTE      ucPaddingDone
      ---         BLOCKEND  ---      ---       LVL=1
      0100042EH   LINE      CODE     ---       #110
      01000438H   LINE      CODE     ---       #111
      01000438H   LINE      CODE     ---       #119
      0100043BH   LINE      CODE     ---       #131
      01000447H   LINE      CODE     ---       #132
      01000453H   LINE      CODE     ---       #133
      0100045FH   LINE      CODE     ---       #134
      0100046BH   LINE      CODE     ---       #135
      01000477H   LINE      CODE     ---       #141
      0100047BH   LINE      CODE     ---       #146
      0100048FH   LINE      CODE     ---       #147
      0100048FH   LINE      CODE     ---       #148
      01000492H   LINE      CODE     ---       #149
      01000492H   LINE      CODE     ---       #150
      010004A2H   LINE      CODE     ---       #151
      010004A9H   LINE      CODE     ---       #153
      010004ACH   LINE      CODE     ---       #155
      010004B7H   LINE      CODE     ---       #156
      010004B7H   LINE      CODE     ---       #158
      010004B7H   LINE      CODE     ---       #159
      010004FAH   LINE      CODE     ---       #160
LX51 LINKER/LOCATER V4.10a                                                            10/17/2007  16:47:04  PAGE 46


      01000505H   LINE      CODE     ---       #161
      01000507H   LINE      CODE     ---       #162
      01000521H   LINE      CODE     ---       #163
      01000521H   LINE      CODE     ---       #165
      0100053AH   LINE      CODE     ---       #166
      0100053AH   LINE      CODE     ---       #167
      0100053DH   LINE      CODE     ---       #171
      01000544H   LINE      CODE     ---       #172
      01000544H   LINE      CODE     ---       #173
      0100054AH   LINE      CODE     ---       #175
      01000556H   LINE      CODE     ---       #177
      0100055EH   LINE      CODE     ---       #179
      01000571H   LINE      CODE     ---       #180
      01000571H   LINE      CODE     ---       #182
      01000581H   LINE      CODE     ---       #183
      01000583H   LINE      CODE     ---       #185
      01000583H   LINE      CODE     ---       #186
      01000597H   LINE      CODE     ---       #187
      01000597H   LINE      CODE     ---       #189
      010005A9H   LINE      CODE     ---       #190
      010005ABH   LINE      CODE     ---       #192
      010005ABH   LINE      CODE     ---       #193
      010005C1H   LINE      CODE     ---       #194
      010005C1H   LINE      CODE     ---       #196
      010005D1H   LINE      CODE     ---       #197
      010005D3H   LINE      CODE     ---       #199
      010005D3H   LINE      CODE     ---       #201
      010005E9H   LINE      CODE     ---       #202
      010005E9H   LINE      CODE     ---       #203
      010005E9H   LINE      CODE     ---       #204
      010005E9H   LINE      CODE     ---       #206
      010005ECH   LINE      CODE     ---       #207
      010005ECH   LINE      CODE     ---       #209
      010005F8H   LINE      CODE     ---       #210
      010005F8H   LINE      CODE     ---       #211
      0100060EH   LINE      CODE     ---       #214
      01000614H   LINE      CODE     ---       #215
      01000617H   LINE      CODE     ---       #216
      01000617H   LINE      CODE     ---       #217
      01000617H   LINE      CODE     ---       #227
      01000653H   LINE      CODE     ---       #229
      01000656H   LINE      CODE     ---       #230
      01000656H   LINE      CODE     ---       #231
      0100065CH   LINE      CODE     ---       #232
      010006C3H   LINE      CODE     ---       #234
      010006CAH   LINE      CODE     ---       #235
      010006CAH   LINE      CODE     ---       #236
      010006FBH   LINE      CODE     ---       #237
      010006FBH   LINE      CODE     ---       #238
      01000702H   LINE      CODE     ---       #239
      01000702H   LINE      CODE     ---       #240
      01000743H   LINE      CODE     ---       #241
      01000746H   LINE      CODE     ---       #243
      01000746H   LINE      CODE     ---       #244
      0100074DH   LINE      CODE     ---       #245
      0100074DH   LINE      CODE     ---       #246
      01000780H   LINE      CODE     ---       #247
      01000783H   LINE      CODE     ---       #249
      01000783H   LINE      CODE     ---       #250
      0100078CH   LINE      CODE     ---       #251
      0100078CH   LINE      CODE     ---       #252
      010007E3H   LINE      CODE     ---       #253
      010007E5H   LINE      CODE     ---       #255
      010007E5H   LINE      CODE     ---       #256
      0100081EH   LINE      CODE     ---       #257
LX51 LINKER/LOCATER V4.10a                                                            10/17/2007  16:47:04  PAGE 47


      0100081EH   LINE      CODE     ---       #258
      0100081EH   LINE      CODE     ---       #259
      0100081EH   LINE      CODE     ---       #261
      01000882H   LINE      CODE     ---       #263
      0100088EH   LINE      CODE     ---       #264
      0100089AH   LINE      CODE     ---       #265
      010008CFH   LINE      CODE     ---       #266
      010008DBH   LINE      CODE     ---       #267
      010008E7H   LINE      CODE     ---       #269
      010008F2H   LINE      CODE     ---       #275
      0100090DH   LINE      CODE     ---       #276
      01000928H   LINE      CODE     ---       #277
      01000943H   LINE      CODE     ---       #278
      0100095EH   LINE      CODE     ---       #279
      01000979H   LINE      CODE     ---       #281
      01000984H   LINE      CODE     ---       #283
      01000987H   LINE      CODE     ---       #291
      0100098DH   LINE      CODE     ---       #293
      ---         BLOCKEND  ---      ---       LVL=0

      ---         MODULE    ---      ---       CHANGE_ISO_SPEED
      01001977H   PUBLIC    CODE     ---       Change_ISO_Speed
      000000D0H.6 SFRSYM    DATA     BIT       AC
      00000080H   SFRSYM    DATA     BIT       FSM_FINISH
      00000083H   SFRSYM    DATA     BYTE      DPH0
      000000E8H   SFRSYM    DATA     BIT       AM
      000000A8H   SFRSYM    DATA     BYTE      IE
      00000085H   SFRSYM    DATA     BYTE      DPH1
      00000082H   SFRSYM    DATA     BYTE      DPL0
      00000084H   SFRSYM    DATA     BYTE      DPL1
      00000088H   SFRSYM    DATA     BIT       SSINT
      000000C0H   SFRSYM    DATA     BIT       PULLUP_RES_STATE
      00000088H.1 SFRSYM    DATA     BIT       USINT
      000000B8H   SFRSYM    DATA     BYTE      IP
      00000098H   SFRSYM    DATA     BIT       RI
      000000D0H.7 SFRSYM    DATA     BIT       CY
      00000098H.1 SFRSYM    DATA     BIT       TI
      000000EAH   SFRSYM    DATA     BYTE      MPTRX
      00000093H   SFRSYM    DATA     BYTE      DPX0
      00000095H   SFRSYM    DATA     BYTE      DPX1
      00000081H   SFRSYM    DATA     BYTE      SP
      000000D0H.2 SFRSYM    DATA     BIT       OV
      000000A1H   SFRSYM    DATA     BYTE      CBSL
      00000080H.5 SFRSYM    DATA     BIT       FSM_RESULT
      00000099H   SFRSYM    DATA     BYTE      SBUF
      00000087H   SFRSYM    DATA     BYTE      PCON
      00000088H.3 SFRSYM    DATA     BIT       MFLT
      00000098H   SFRSYM    DATA     BYTE      SCON
      00000089H   SFRSYM    DATA     BYTE      TMOD
      00000088H   SFRSYM    DATA     BYTE      TCON
      00000088H.1 SFRSYM    DATA     BIT       SINT
      000000E8H   SFRSYM    DATA     BYTE      EPSW
      000000F0H   SFRSYM    DATA     BYTE      B
      000000A2H   SFRSYM    DATA     BYTE      MPTR
      000000E0H   SFRSYM    DATA     BYTE      ACC
      00000088H.5 SFRSYM    DATA     BIT       TF0
      00000088H.7 SFRSYM    DATA     BIT       TF1
      0000008CH   SFRSYM    DATA     BYTE      TH0
      000000B2H   SFRSYM    DATA     BYTE      ISOCON
      0000008DH   SFRSYM    DATA     BYTE      TH1
      000000D8H   SFRSYM    DATA     BYTE      SPSW
      000000D0H   SFRSYM    DATA     BIT       P
      0000008AH   SFRSYM    DATA     BYTE      TL0
      0000008BH   SFRSYM    DATA     BYTE      TL1
      000000C0H   SFRSYM    DATA     BYTE      PROGIO
LX51 LINKER/LOCATER V4.10a                                                            10/17/2007  16:47:04  PAGE 48


      000000D0H.3 SFRSYM    DATA     BIT       RS0
      00000088H.4 SFRSYM    DATA     BIT       TR0
      000000D0H.4 SFRSYM    DATA     BIT       RS1
      00000080H.1 SFRSYM    DATA     BIT       FSM_START
      00000088H.6 SFRSYM    DATA     BIT       TR1
      00000083H   SFRSYM    DATA     BYTE      DPH
      000000B4H   SFRSYM    DATA     BYTE      ISOTMR
      00000082H   SFRSYM    DATA     BYTE      DPL
      000000B0H   SFRSYM    DATA     BYTE      SECURITYSTATUS
      00000086H   SFRSYM    DATA     BYTE      DPS
      00000093H   SFRSYM    DATA     BYTE      DPX
      00000080H   SFRSYM    DATA     BYTE      NVFSMCON
      000000F7H   SFRSYM    DATA     BYTE      MFCON
      000000C9H   SFRSYM    DATA     BYTE      NvFsmMode
      000000D0H.5 SFRSYM    DATA     BIT       F0
      000000E8H.1 SFRSYM    DATA     BIT       F1
      000000D0H   SFRSYM    DATA     BYTE      PSW

      01001977H   BLOCK     CODE     ---       LVL=0
      01001977H   LINE      CODE     ---       #62
      01001977H   LINE      CODE     ---       #63
      01001977H   LINE      CODE     ---       #66
      01001980H   LINE      CODE     ---       #69
      01001986H   LINE      CODE     ---       #71
      01001988H   LINE      CODE     ---       #73
      ---         BLOCKEND  ---      ---       LVL=0

      ---         MODULE    ---      ---       SET_SECURITY_STATUS
      010019F3H   PUBLIC    CODE     ---       Set_Security_Status
      000000D0H.6 SFRSYM    DATA     BIT       AC
      00000080H   SFRSYM    DATA     BIT       FSM_FINISH
      00000083H   SFRSYM    DATA     BYTE      DPH0
      000000E8H   SFRSYM    DATA     BIT       AM
      000000A8H   SFRSYM    DATA     BYTE      IE
      00000085H   SFRSYM    DATA     BYTE      DPH1
      00000082H   SFRSYM    DATA     BYTE      DPL0
      00000084H   SFRSYM    DATA     BYTE      DPL1
      00000088H   SFRSYM    DATA     BIT       SSINT
      000000C0H   SFRSYM    DATA     BIT       PULLUP_RES_STATE
      00000088H.1 SFRSYM    DATA     BIT       USINT
      000000B8H   SFRSYM    DATA     BYTE      IP
      00000098H   SFRSYM    DATA     BIT       RI
      000000D0H.7 SFRSYM    DATA     BIT       CY
      00000098H.1 SFRSYM    DATA     BIT       TI
      000000EAH   SFRSYM    DATA     BYTE      MPTRX
      00000093H   SFRSYM    DATA     BYTE      DPX0
      00000095H   SFRSYM    DATA     BYTE      DPX1
      00000081H   SFRSYM    DATA     BYTE      SP
      000000D0H.2 SFRSYM    DATA     BIT       OV
      000000A1H   SFRSYM    DATA     BYTE      CBSL
      00000080H.5 SFRSYM    DATA     BIT       FSM_RESULT
      00000099H   SFRSYM    DATA     BYTE      SBUF
      00000087H   SFRSYM    DATA     BYTE      PCON
      00000088H.3 SFRSYM    DATA     BIT       MFLT
      00000098H   SFRSYM    DATA     BYTE      SCON
      00000089H   SFRSYM    DATA     BYTE      TMOD
      00000088H   SFRSYM    DATA     BYTE      TCON
      00000088H.1 SFRSYM    DATA     BIT       SINT
      000000E8H   SFRSYM    DATA     BYTE      EPSW
      000000F0H   SFRSYM    DATA     BYTE      B
      000000A2H   SFRSYM    DATA     BYTE      MPTR
      000000E0H   SFRSYM    DATA     BYTE      ACC
      00000088H.5 SFRSYM    DATA     BIT       TF0
      00000088H.7 SFRSYM    DATA     BIT       TF1
      0000008CH   SFRSYM    DATA     BYTE      TH0
LX51 LINKER/LOCATER V4.10a                                                            10/17/2007  16:47:04  PAGE 49


      000000B2H   SFRSYM    DATA     BYTE      ISOCON
      0000008DH   SFRSYM    DATA     BYTE      TH1
      000000D8H   SFRSYM    DATA     BYTE      SPSW
      000000D0H   SFRSYM    DATA     BIT       P
      0000008AH   SFRSYM    DATA     BYTE      TL0
      0000008BH   SFRSYM    DATA     BYTE      TL1
      000000C0H   SFRSYM    DATA     BYTE      PROGIO
      000000D0H.3 SFRSYM    DATA     BIT       RS0
      00000088H.4 SFRSYM    DATA     BIT       TR0
      000000D0H.4 SFRSYM    DATA     BIT       RS1
      00000080H.1 SFRSYM    DATA     BIT       FSM_START
      00000088H.6 SFRSYM    DATA     BIT       TR1
      00000083H   SFRSYM    DATA     BYTE      DPH
      000000B4H   SFRSYM    DATA     BYTE      ISOTMR
      00000082H   SFRSYM    DATA     BYTE      DPL
      000000B0H   SFRSYM    DATA     BYTE      SECURITYSTATUS
      00000086H   SFRSYM    DATA     BYTE      DPS
      00000093H   SFRSYM    DATA     BYTE      DPX
      00000080H   SFRSYM    DATA     BYTE      NVFSMCON
      000000F7H   SFRSYM    DATA     BYTE      MFCON
      000000C9H   SFRSYM    DATA     BYTE      NvFsmMode
      000000D0H.5 SFRSYM    DATA     BIT       F0
      000000E8H.1 SFRSYM    DATA     BIT       F1
      000000D0H   SFRSYM    DATA     BYTE      PSW

      010019F3H   BLOCK     CODE     ---       LVL=0
      010019F3H   LINE      CODE     ---       #56
      010019F3H   LINE      CODE     ---       #57
      010019F3H   LINE      CODE     ---       #58
      010019F8H   LINE      CODE     ---       #60
      010019FCH   LINE      CODE     ---       #62
      ---         BLOCKEND  ---      ---       LVL=0

      ---         MODULE    ---      ---       GET_SECURITY_STATUS
      010018ADH   PUBLIC    CODE     ---       Get_Security_Status
      000000D0H.6 SFRSYM    DATA     BIT       AC
      00000080H   SFRSYM    DATA     BIT       FSM_FINISH
      00000083H   SFRSYM    DATA     BYTE      DPH0
      000000E8H   SFRSYM    DATA     BIT       AM
      000000A8H   SFRSYM    DATA     BYTE      IE
      00000085H   SFRSYM    DATA     BYTE      DPH1
      00000082H   SFRSYM    DATA     BYTE      DPL0
      00000084H   SFRSYM    DATA     BYTE      DPL1
      00000088H   SFRSYM    DATA     BIT       SSINT
      000000C0H   SFRSYM    DATA     BIT       PULLUP_RES_STATE
      00000088H.1 SFRSYM    DATA     BIT       USINT
      000000B8H   SFRSYM    DATA     BYTE      IP
      00000098H   SFRSYM    DATA     BIT       RI
      000000D0H.7 SFRSYM    DATA     BIT       CY
      00000098H.1 SFRSYM    DATA     BIT       TI
      000000EAH   SFRSYM    DATA     BYTE      MPTRX
      00000093H   SFRSYM    DATA     BYTE      DPX0
      00000095H   SFRSYM    DATA     BYTE      DPX1
      00000081H   SFRSYM    DATA     BYTE      SP
      000000D0H.2 SFRSYM    DATA     BIT       OV
      000000A1H   SFRSYM    DATA     BYTE      CBSL
      00000080H.5 SFRSYM    DATA     BIT       FSM_RESULT
      00000099H   SFRSYM    DATA     BYTE      SBUF
      00000087H   SFRSYM    DATA     BYTE      PCON
      00000088H.3 SFRSYM    DATA     BIT       MFLT
      00000098H   SFRSYM    DATA     BYTE      SCON
      00000089H   SFRSYM    DATA     BYTE      TMOD
      00000088H   SFRSYM    DATA     BYTE      TCON
      00000088H.1 SFRSYM    DATA     BIT       SINT
      000000E8H   SFRSYM    DATA     BYTE      EPSW
LX51 LINKER/LOCATER V4.10a                                                            10/17/2007  16:47:04  PAGE 50


      000000F0H   SFRSYM    DATA     BYTE      B
      000000A2H   SFRSYM    DATA     BYTE      MPTR
      000000E0H   SFRSYM    DATA     BYTE      ACC
      00000088H.5 SFRSYM    DATA     BIT       TF0
      00000088H.7 SFRSYM    DATA     BIT       TF1
      0000008CH   SFRSYM    DATA     BYTE      TH0
      000000B2H   SFRSYM    DATA     BYTE      ISOCON
      0000008DH   SFRSYM    DATA     BYTE      TH1
      000000D8H   SFRSYM    DATA     BYTE      SPSW
      000000D0H   SFRSYM    DATA     BIT       P
      0000008AH   SFRSYM    DATA     BYTE      TL0
      0000008BH   SFRSYM    DATA     BYTE      TL1
      000000C0H   SFRSYM    DATA     BYTE      PROGIO
      000000D0H.3 SFRSYM    DATA     BIT       RS0
      00000088H.4 SFRSYM    DATA     BIT       TR0
      000000D0H.4 SFRSYM    DATA     BIT       RS1
      00000080H.1 SFRSYM    DATA     BIT       FSM_START
      00000088H.6 SFRSYM    DATA     BIT       TR1
      00000083H   SFRSYM    DATA     BYTE      DPH
      000000B4H   SFRSYM    DATA     BYTE      ISOTMR
      00000082H   SFRSYM    DATA     BYTE      DPL
      000000B0H   SFRSYM    DATA     BYTE      SECURITYSTATUS
      00000086H   SFRSYM    DATA     BYTE      DPS
      00000093H   SFRSYM    DATA     BYTE      DPX
      00000080H   SFRSYM    DATA     BYTE      NVFSMCON
      000000F7H   SFRSYM    DATA     BYTE      MFCON
      000000C9H   SFRSYM    DATA     BYTE      NvFsmMode
      000000D0H.5 SFRSYM    DATA     BIT       F0
      000000E8H.1 SFRSYM    DATA     BIT       F1
      000000D0H   SFRSYM    DATA     BYTE      PSW

      010018ADH   BLOCK     CODE     ---       LVL=0
      010018ADH   LINE      CODE     ---       #58
      010018ADH   LINE      CODE     ---       #59
      010018ADH   LINE      CODE     ---       #60
      010018B3H   LINE      CODE     ---       #61
      010018B3H   LINE      CODE     ---       #62
      010018B8H   LINE      CODE     ---       #64
      010018BCH   LINE      CODE     ---       #65
      010018BEH   LINE      CODE     ---       #67
      010018BEH   LINE      CODE     ---       #68
      010018C5H   LINE      CODE     ---       #69
      010018C5H   LINE      CODE     ---       #71
      010018CCH   LINE      CODE     ---       #74
      ---         BLOCKEND  ---      ---       LVL=0

      ---         MODULE    ---      ---       WRITE_UCM_BYTES_FLASH_MODE_FROM_IRAM_BUFF
      0100141EH   PUBLIC    CODE     ---       Write_UCM_Bytes_Flash_Mode_From_IRAM_Buffer
      000000D0H.6 SFRSYM    DATA     BIT       AC
      00000080H   SFRSYM    DATA     BIT       FSM_FINISH
      00000083H   SFRSYM    DATA     BYTE      DPH0
      000000E8H   SFRSYM    DATA     BIT       AM
      000000A8H   SFRSYM    DATA     BYTE      IE
      00000085H   SFRSYM    DATA     BYTE      DPH1
      00000082H   SFRSYM    DATA     BYTE      DPL0
      00000084H   SFRSYM    DATA     BYTE      DPL1
      00000088H   SFRSYM    DATA     BIT       SSINT
      000000C0H   SFRSYM    DATA     BIT       PULLUP_RES_STATE
      00000088H.1 SFRSYM    DATA     BIT       USINT
      000000B8H   SFRSYM    DATA     BYTE      IP
      00000098H   SFRSYM    DATA     BIT       RI
      000000D0H.7 SFRSYM    DATA     BIT       CY
      00000098H.1 SFRSYM    DATA     BIT       TI
      000000EAH   SFRSYM    DATA     BYTE      MPTRX
      00000093H   SFRSYM    DATA     BYTE      DPX0
LX51 LINKER/LOCATER V4.10a                                                            10/17/2007  16:47:04  PAGE 51


      00000095H   SFRSYM    DATA     BYTE      DPX1
      00000081H   SFRSYM    DATA     BYTE      SP
      000000D0H.2 SFRSYM    DATA     BIT       OV
      000000A1H   SFRSYM    DATA     BYTE      CBSL
      00000080H.5 SFRSYM    DATA     BIT       FSM_RESULT
      00000099H   SFRSYM    DATA     BYTE      SBUF
      00000087H   SFRSYM    DATA     BYTE      PCON
      00000088H.3 SFRSYM    DATA     BIT       MFLT
      00000098H   SFRSYM    DATA     BYTE      SCON
      00000089H   SFRSYM    DATA     BYTE      TMOD
      00000088H   SFRSYM    DATA     BYTE      TCON
      00000088H.1 SFRSYM    DATA     BIT       SINT
      000000E8H   SFRSYM    DATA     BYTE      EPSW
      000000F0H   SFRSYM    DATA     BYTE      B
      000000A2H   SFRSYM    DATA     BYTE      MPTR
      000000E0H   SFRSYM    DATA     BYTE      ACC
      00000088H.5 SFRSYM    DATA     BIT       TF0
      00000088H.7 SFRSYM    DATA     BIT       TF1
      0000008CH   SFRSYM    DATA     BYTE      TH0
      000000B2H   SFRSYM    DATA     BYTE      ISOCON
      0000008DH   SFRSYM    DATA     BYTE      TH1
      000000D8H   SFRSYM    DATA     BYTE      SPSW
      000000D0H   SFRSYM    DATA     BIT       P
      0000008AH   SFRSYM    DATA     BYTE      TL0
      0000008BH   SFRSYM    DATA     BYTE      TL1
      000000C0H   SFRSYM    DATA     BYTE      PROGIO
      000000D0H.3 SFRSYM    DATA     BIT       RS0
      00000088H.4 SFRSYM    DATA     BIT       TR0
      000000D0H.4 SFRSYM    DATA     BIT       RS1
      00000080H.1 SFRSYM    DATA     BIT       FSM_START
      00000088H.6 SFRSYM    DATA     BIT       TR1
      00000083H   SFRSYM    DATA     BYTE      DPH
      000000B4H   SFRSYM    DATA     BYTE      ISOTMR
      00000082H   SFRSYM    DATA     BYTE      DPL
      000000B0H   SFRSYM    DATA     BYTE      SECURITYSTATUS
      00000086H   SFRSYM    DATA     BYTE      DPS
      00000093H   SFRSYM    DATA     BYTE      DPX
      00000080H   SFRSYM    DATA     BYTE      NVFSMCON
      000000F7H   SFRSYM    DATA     BYTE      MFCON
      000000C9H   SFRSYM    DATA     BYTE      NvFsmMode
      000000D0H.5 SFRSYM    DATA     BIT       F0
      000000E8H.1 SFRSYM    DATA     BIT       F1
      000000D0H   SFRSYM    DATA     BYTE      PSW

      0100141EH   BLOCK     CODE     ---       LVL=0
      0100141EH   LINE      CODE     ---       #61
      0100141EH   LINE      CODE     ---       #62
      0100141EH   LINE      CODE     ---       #63
      01001425H   LINE      CODE     ---       #64
      01001425H   LINE      CODE     ---       #66
      0100142CH   LINE      CODE     ---       #69
      01001444H   LINE      CODE     ---       #71
      01001449H   LINE      CODE     ---       #72
      01001449H   LINE      CODE     ---       #73
      0100144EH   LINE      CODE     ---       #74
      01001450H   LINE      CODE     ---       #76
      01001450H   LINE      CODE     ---       #77
      01001452H   LINE      CODE     ---       #78
      01001452H   LINE      CODE     ---       #79
      01001454H   LINE      CODE     ---       #82
      01001454H   LINE      CODE     ---       #83
      0100145BH   LINE      CODE     ---       #84
      0100145BH   LINE      CODE     ---       #86
      01001462H   LINE      CODE     ---       #88
      ---         BLOCKEND  ---      ---       LVL=0
LX51 LINKER/LOCATER V4.10a                                                            10/17/2007  16:47:04  PAGE 52



      ---         MODULE    ---      ---       SOFTWARE_APIS
      010018ECH   PUBLIC    CODE     NEAR LAB  _FIRMWARE_WRITEEE
      010018ECH   PUBLIC    CODE     NEAR LAB  _FIRMWARE_WRITEUCM
      010018ECH   PUBLIC    CODE     NEAR LAB  FIRMWARE_WRITEEE
      010018ECH   PUBLIC    CODE     NEAR LAB  FIRMWARE_WRITEUCM
      000000D0H.6 SFRSYM    DATA     BIT       AC
      000000E0H   SFRSYM    DATA     BYTE      ACC
      000000E8H   SFRSYM    DATA     BIT       AM
      000000F0H   SFRSYM    DATA     BYTE      B
      000000A1H   SFRSYM    DATA     BYTE      CBSL
      000000D0H.7 SFRSYM    DATA     BIT       CY
      00000083H   SFRSYM    DATA     BYTE      DPH
      00000083H   SFRSYM    DATA     BYTE      DPH0
      00000085H   SFRSYM    DATA     BYTE      DPH1
      00000082H   SFRSYM    DATA     BYTE      DPL
      00000082H   SFRSYM    DATA     BYTE      DPL0
      00000084H   SFRSYM    DATA     BYTE      DPL1
      00000086H   SFRSYM    DATA     BYTE      DPS
      00000093H   SFRSYM    DATA     BYTE      DPX
      00000093H   SFRSYM    DATA     BYTE      DPX0
      00000095H   SFRSYM    DATA     BYTE      DPX1
      000000E8H   SFRSYM    DATA     BYTE      EPSW
      000000D0H.5 SFRSYM    DATA     BIT       F0
      000000E8H.1 SFRSYM    DATA     BIT       F1
      00000080H   SFRSYM    DATA     BIT       FSM_FINISH
      00000080H.5 SFRSYM    DATA     BIT       FSM_RESULT
      00000080H.1 SFRSYM    DATA     BIT       FSM_START
      000000A8H   SFRSYM    DATA     BYTE      IE
      000000B8H   SFRSYM    DATA     BYTE      IP
      000000B2H   SFRSYM    DATA     BYTE      ISOCON
      000000B4H   SFRSYM    DATA     BYTE      ISOTMR
      000000F7H   SFRSYM    DATA     BYTE      MFCON
      00000088H.3 SFRSYM    DATA     BIT       MFLT
      000000A2H   SFRSYM    DATA     BYTE      MPTR
      000000EAH   SFRSYM    DATA     BYTE      MPTRX
      00000080H   SFRSYM    DATA     BYTE      NVFSMCON
      000000C9H   SFRSYM    DATA     BYTE      NVFSMMODE
      000000D0H.2 SFRSYM    DATA     BIT       OV
      000000D0H   SFRSYM    DATA     BIT       P
      00000087H   SFRSYM    DATA     BYTE      PCON
      000000C0H   SFRSYM    DATA     BYTE      PROGIO
      000000D0H   SFRSYM    DATA     BYTE      PSW
      000000C0H   SFRSYM    DATA     BIT       PULLUP_RES_STATE
      00000098H   SFRSYM    DATA     BIT       RI
      000000D0H.3 SFRSYM    DATA     BIT       RS0
      000000D0H.4 SFRSYM    DATA     BIT       RS1
      00000099H   SFRSYM    DATA     BYTE      SBUF
      00000098H   SFRSYM    DATA     BYTE      SCON
      000000B0H   SFRSYM    DATA     BYTE      SECURITYSTATUS
      00000088H.1 SFRSYM    DATA     BIT       SINT
      00000081H   SFRSYM    DATA     BYTE      SP
      000000D8H   SFRSYM    DATA     BYTE      SPSW
      00000088H   SFRSYM    DATA     BIT       SSINT
      00000088H   SFRSYM    DATA     BYTE      TCON
      00000088H.5 SFRSYM    DATA     BIT       TF0
      00000088H.7 SFRSYM    DATA     BIT       TF1
      0000008CH   SFRSYM    DATA     BYTE      TH0
      0000008DH   SFRSYM    DATA     BYTE      TH1
      00000098H.1 SFRSYM    DATA     BIT       TI
      0000008AH   SFRSYM    DATA     BYTE      TL0
      0000008BH   SFRSYM    DATA     BYTE      TL1
      00000089H   SFRSYM    DATA     BYTE      TMOD
      00000088H.4 SFRSYM    DATA     BIT       TR0
      00000088H.6 SFRSYM    DATA     BIT       TR1
LX51 LINKER/LOCATER V4.10a                                                            10/17/2007  16:47:04  PAGE 53


      00000088H.1 SFRSYM    DATA     BIT       USINT
      010018EEH   SYMBOL    CODE     NEAR LAB  FIRMWARE_WRITENVM_LOOP
      01001903H   SYMBOL    CODE     NEAR LAB  FIRMWARE_WRITENVM_RETURN_FAIL
      01001900H   SYMBOL    CODE     NEAR LAB  FIRMWARE_WRITENVM_RETURN_SUCCESS

      010018ECH   BLOCK     CODE     NEAR LAB  LVL=0
      010018ECH   LINE      CODE     ---       #42
      010018EEH   LINE      CODE     ---       #45
      010018EFH   LINE      CODE     ---       #46
      010018F0H   LINE      CODE     ---       #48
      010018F3H   LINE      CODE     ---       #52
      010018F4H   LINE      CODE     ---       #53
      010018F6H   LINE      CODE     ---       #54
      010018F8H   LINE      CODE     ---       #56
      010018F9H   LINE      CODE     ---       #58
      010018FAH   LINE      CODE     ---       #59
      010018FCH   LINE      CODE     ---       #60
      010018FEH   LINE      CODE     ---       #62
      01001900H   LINE      CODE     ---       #66
      01001902H   LINE      CODE     ---       #67
      01001903H   LINE      CODE     ---       #70
      01001905H   LINE      CODE     ---       #71
      ---         BLOCKEND  ---      ---       LVL=0

      ---         MODULE    ---      ---       WRITE_X_BYTES_TO_UCM
      0100129BH   PUBLIC    CODE     ---       Write_X_Bytes_To_UCM
      000000D0H.6 SFRSYM    DATA     BIT       AC
      00000080H   SFRSYM    DATA     BIT       FSM_FINISH
      00000083H   SFRSYM    DATA     BYTE      DPH0
      000000E8H   SFRSYM    DATA     BIT       AM
      000000A8H   SFRSYM    DATA     BYTE      IE
      00000085H   SFRSYM    DATA     BYTE      DPH1
      00000082H   SFRSYM    DATA     BYTE      DPL0
      00000084H   SFRSYM    DATA     BYTE      DPL1
      00000088H   SFRSYM    DATA     BIT       SSINT
      000000C0H   SFRSYM    DATA     BIT       PULLUP_RES_STATE
      00000088H.1 SFRSYM    DATA     BIT       USINT
      000000B8H   SFRSYM    DATA     BYTE      IP
      00000098H   SFRSYM    DATA     BIT       RI
      000000D0H.7 SFRSYM    DATA     BIT       CY
      00000098H.1 SFRSYM    DATA     BIT       TI
      000000EAH   SFRSYM    DATA     BYTE      MPTRX
      00000093H   SFRSYM    DATA     BYTE      DPX0
      00000095H   SFRSYM    DATA     BYTE      DPX1
      00000081H   SFRSYM    DATA     BYTE      SP
      000000D0H.2 SFRSYM    DATA     BIT       OV
      000000A1H   SFRSYM    DATA     BYTE      CBSL
      00000080H.5 SFRSYM    DATA     BIT       FSM_RESULT
      00000099H   SFRSYM    DATA     BYTE      SBUF
      00000087H   SFRSYM    DATA     BYTE      PCON
      00000088H.3 SFRSYM    DATA     BIT       MFLT
      00000098H   SFRSYM    DATA     BYTE      SCON
      00000089H   SFRSYM    DATA     BYTE      TMOD
      00000088H   SFRSYM    DATA     BYTE      TCON
      00000088H.1 SFRSYM    DATA     BIT       SINT
      000000E8H   SFRSYM    DATA     BYTE      EPSW
      000000F0H   SFRSYM    DATA     BYTE      B
      000000A2H   SFRSYM    DATA     BYTE      MPTR
      000000E0H   SFRSYM    DATA     BYTE      ACC
      00000088H.5 SFRSYM    DATA     BIT       TF0
      00000088H.7 SFRSYM    DATA     BIT       TF1
      0000008CH   SFRSYM    DATA     BYTE      TH0
      000000B2H   SFRSYM    DATA     BYTE      ISOCON
      0000008DH   SFRSYM    DATA     BYTE      TH1
      000000D8H   SFRSYM    DATA     BYTE      SPSW
LX51 LINKER/LOCATER V4.10a                                                            10/17/2007  16:47:04  PAGE 54


      000000D0H   SFRSYM    DATA     BIT       P
      0000008AH   SFRSYM    DATA     BYTE      TL0
      0000008BH   SFRSYM    DATA     BYTE      TL1
      000000C0H   SFRSYM    DATA     BYTE      PROGIO
      000000D0H.3 SFRSYM    DATA     BIT       RS0
      00000088H.4 SFRSYM    DATA     BIT       TR0
      000000D0H.4 SFRSYM    DATA     BIT       RS1
      00000080H.1 SFRSYM    DATA     BIT       FSM_START
      00000088H.6 SFRSYM    DATA     BIT       TR1
      00000083H   SFRSYM    DATA     BYTE      DPH
      000000B4H   SFRSYM    DATA     BYTE      ISOTMR
      00000082H   SFRSYM    DATA     BYTE      DPL
      000000B0H   SFRSYM    DATA     BYTE      SECURITYSTATUS
      00000086H   SFRSYM    DATA     BYTE      DPS
      00000093H   SFRSYM    DATA     BYTE      DPX
      00000080H   SFRSYM    DATA     BYTE      NVFSMCON
      000000F7H   SFRSYM    DATA     BYTE      MFCON
      000000C9H   SFRSYM    DATA     BYTE      NvFsmMode
      000000D0H.5 SFRSYM    DATA     BIT       F0
      000000E8H.1 SFRSYM    DATA     BIT       F1
      000000D0H   SFRSYM    DATA     BYTE      PSW

      0100129BH   BLOCK     CODE     ---       LVL=0
      0100129BH   LINE      CODE     ---       #59
      0100129BH   LINE      CODE     ---       #60
      0100129BH   LINE      CODE     ---       #61
      010012A2H   LINE      CODE     ---       #64
      010012B3H   LINE      CODE     ---       #67
      010012B3H   LINE      CODE     ---       #69
      010012C6H   LINE      CODE     ---       #71
      010012C9H   LINE      CODE     ---       #72
      010012D1H   LINE      CODE     ---       #75
      010012D5H   LINE      CODE     ---       #76
      010012D5H   LINE      CODE     ---       #77
      010012DCH   LINE      CODE     ---       #78
      010012DCH   LINE      CODE     ---       #79
      010012E4H   LINE      CODE     ---       #81
      010012EBH   LINE      CODE     ---       #83
      ---         BLOCKEND  ---      ---       LVL=0

      ---         MODULE    ---      ---       WRITE_TO_IRAM
      01001906H   PUBLIC    CODE     ---       Write_To_IRAM
      000000D0H.6 SFRSYM    DATA     BIT       AC
      00000080H   SFRSYM    DATA     BIT       FSM_FINISH
      00000083H   SFRSYM    DATA     BYTE      DPH0
      000000E8H   SFRSYM    DATA     BIT       AM
      000000A8H   SFRSYM    DATA     BYTE      IE
      00000085H   SFRSYM    DATA     BYTE      DPH1
      00000082H   SFRSYM    DATA     BYTE      DPL0
      00000084H   SFRSYM    DATA     BYTE      DPL1
      00000088H   SFRSYM    DATA     BIT       SSINT
      000000C0H   SFRSYM    DATA     BIT       PULLUP_RES_STATE
      00000088H.1 SFRSYM    DATA     BIT       USINT
      000000B8H   SFRSYM    DATA     BYTE      IP
      00000098H   SFRSYM    DATA     BIT       RI
      000000D0H.7 SFRSYM    DATA     BIT       CY
      00000098H.1 SFRSYM    DATA     BIT       TI
      000000EAH   SFRSYM    DATA     BYTE      MPTRX
      00000093H   SFRSYM    DATA     BYTE      DPX0
      00000095H   SFRSYM    DATA     BYTE      DPX1
      00000081H   SFRSYM    DATA     BYTE      SP
      000000D0H.2 SFRSYM    DATA     BIT       OV
      000000A1H   SFRSYM    DATA     BYTE      CBSL
      00000080H.5 SFRSYM    DATA     BIT       FSM_RESULT
      00000099H   SFRSYM    DATA     BYTE      SBUF
LX51 LINKER/LOCATER V4.10a                                                            10/17/2007  16:47:04  PAGE 55


      00000087H   SFRSYM    DATA     BYTE      PCON
      00000088H.3 SFRSYM    DATA     BIT       MFLT
      00000098H   SFRSYM    DATA     BYTE      SCON
      00000089H   SFRSYM    DATA     BYTE      TMOD
      00000088H   SFRSYM    DATA     BYTE      TCON
      00000088H.1 SFRSYM    DATA     BIT       SINT
      000000E8H   SFRSYM    DATA     BYTE      EPSW
      000000F0H   SFRSYM    DATA     BYTE      B
      000000A2H   SFRSYM    DATA     BYTE      MPTR
      000000E0H   SFRSYM    DATA     BYTE      ACC
      00000088H.5 SFRSYM    DATA     BIT       TF0
      00000088H.7 SFRSYM    DATA     BIT       TF1
      0000008CH   SFRSYM    DATA     BYTE      TH0
      000000B2H   SFRSYM    DATA     BYTE      ISOCON
      0000008DH   SFRSYM    DATA     BYTE      TH1
      000000D8H   SFRSYM    DATA     BYTE      SPSW
      000000D0H   SFRSYM    DATA     BIT       P
      0000008AH   SFRSYM    DATA     BYTE      TL0
      0000008BH   SFRSYM    DATA     BYTE      TL1
      000000C0H   SFRSYM    DATA     BYTE      PROGIO
      000000D0H.3 SFRSYM    DATA     BIT       RS0
      00000088H.4 SFRSYM    DATA     BIT       TR0
      000000D0H.4 SFRSYM    DATA     BIT       RS1
      00000080H.1 SFRSYM    DATA     BIT       FSM_START
      00000088H.6 SFRSYM    DATA     BIT       TR1
      00000083H   SFRSYM    DATA     BYTE      DPH
      000000B4H   SFRSYM    DATA     BYTE      ISOTMR
      00000082H   SFRSYM    DATA     BYTE      DPL
      000000B0H   SFRSYM    DATA     BYTE      SECURITYSTATUS
      00000086H   SFRSYM    DATA     BYTE      DPS
      00000093H   SFRSYM    DATA     BYTE      DPX
      00000080H   SFRSYM    DATA     BYTE      NVFSMCON
      000000F7H   SFRSYM    DATA     BYTE      MFCON
      000000C9H   SFRSYM    DATA     BYTE      NvFsmMode
      000000D0H.5 SFRSYM    DATA     BIT       F0
      000000E8H.1 SFRSYM    DATA     BIT       F1
      000000D0H   SFRSYM    DATA     BYTE      PSW

      01001906H   BLOCK     CODE     ---       LVL=0
      01001906H   LINE      CODE     ---       #58
      01001906H   LINE      CODE     ---       #59
      01001906H   LINE      CODE     ---       #60
      0100190BH   LINE      CODE     ---       #65
      0100190BH   LINE      CODE     ---       #66
      01001916H   LINE      CODE     ---       #67
      0100191CH   LINE      CODE     ---       #69
      0100191FH   LINE      CODE     ---       #71
      ---         BLOCKEND  ---      ---       LVL=0

      ---         MODULE    ---      ---       WRITE_TO_XRAM
      0100164FH   PUBLIC    CODE     ---       Write_To_XRAM
      000000D0H.6 SFRSYM    DATA     BIT       AC
      00000080H   SFRSYM    DATA     BIT       FSM_FINISH
      00000083H   SFRSYM    DATA     BYTE      DPH0
      000000E8H   SFRSYM    DATA     BIT       AM
      000000A8H   SFRSYM    DATA     BYTE      IE
      00000085H   SFRSYM    DATA     BYTE      DPH1
      00000082H   SFRSYM    DATA     BYTE      DPL0
      00000084H   SFRSYM    DATA     BYTE      DPL1
      00000088H   SFRSYM    DATA     BIT       SSINT
      000000C0H   SFRSYM    DATA     BIT       PULLUP_RES_STATE
      00000088H.1 SFRSYM    DATA     BIT       USINT
      000000B8H   SFRSYM    DATA     BYTE      IP
      00000098H   SFRSYM    DATA     BIT       RI
      000000D0H.7 SFRSYM    DATA     BIT       CY
LX51 LINKER/LOCATER V4.10a                                                            10/17/2007  16:47:04  PAGE 56


      00000098H.1 SFRSYM    DATA     BIT       TI
      000000EAH   SFRSYM    DATA     BYTE      MPTRX
      00000093H   SFRSYM    DATA     BYTE      DPX0
      00000095H   SFRSYM    DATA     BYTE      DPX1
      00000081H   SFRSYM    DATA     BYTE      SP
      000000D0H.2 SFRSYM    DATA     BIT       OV
      000000A1H   SFRSYM    DATA     BYTE      CBSL
      00000080H.5 SFRSYM    DATA     BIT       FSM_RESULT
      00000099H   SFRSYM    DATA     BYTE      SBUF
      00000087H   SFRSYM    DATA     BYTE      PCON
      00000088H.3 SFRSYM    DATA     BIT       MFLT
      00000098H   SFRSYM    DATA     BYTE      SCON
      00000089H   SFRSYM    DATA     BYTE      TMOD
      00000088H   SFRSYM    DATA     BYTE      TCON
      00000088H.1 SFRSYM    DATA     BIT       SINT
      000000E8H   SFRSYM    DATA     BYTE      EPSW
      000000F0H   SFRSYM    DATA     BYTE      B
      000000A2H   SFRSYM    DATA     BYTE      MPTR
      000000E0H   SFRSYM    DATA     BYTE      ACC
      00000088H.5 SFRSYM    DATA     BIT       TF0
      00000088H.7 SFRSYM    DATA     BIT       TF1
      0000008CH   SFRSYM    DATA     BYTE      TH0
      000000B2H   SFRSYM    DATA     BYTE      ISOCON
      0000008DH   SFRSYM    DATA     BYTE      TH1
      000000D8H   SFRSYM    DATA     BYTE      SPSW
      000000D0H   SFRSYM    DATA     BIT       P
      0000008AH   SFRSYM    DATA     BYTE      TL0
      0000008BH   SFRSYM    DATA     BYTE      TL1
      000000C0H   SFRSYM    DATA     BYTE      PROGIO
      000000D0H.3 SFRSYM    DATA     BIT       RS0
      00000088H.4 SFRSYM    DATA     BIT       TR0
      000000D0H.4 SFRSYM    DATA     BIT       RS1
      00000080H.1 SFRSYM    DATA     BIT       FSM_START
      00000088H.6 SFRSYM    DATA     BIT       TR1
      00000083H   SFRSYM    DATA     BYTE      DPH
      000000B4H   SFRSYM    DATA     BYTE      ISOTMR
      00000082H   SFRSYM    DATA     BYTE      DPL
      000000B0H   SFRSYM    DATA     BYTE      SECURITYSTATUS
      00000086H   SFRSYM    DATA     BYTE      DPS
      00000093H   SFRSYM    DATA     BYTE      DPX
      00000080H   SFRSYM    DATA     BYTE      NVFSMCON
      000000F7H   SFRSYM    DATA     BYTE      MFCON
      000000C9H   SFRSYM    DATA     BYTE      NvFsmMode
      000000D0H.5 SFRSYM    DATA     BIT       F0
      000000E8H.1 SFRSYM    DATA     BIT       F1
      000000D0H   SFRSYM    DATA     BYTE      PSW

      0100164FH   BLOCK     CODE     ---       LVL=0
      0100164FH   LINE      CODE     ---       #59
      0100164FH   LINE      CODE     ---       #60
      0100164FH   LINE      CODE     ---       #62
      01001660H   LINE      CODE     ---       #67
      01001660H   LINE      CODE     ---       #68
      01001674H   LINE      CODE     ---       #69
      0100167AH   LINE      CODE     ---       #71
      0100167DH   LINE      CODE     ---       #73
      ---         BLOCKEND  ---      ---       LVL=0

      ---         MODULE    ---      ---       GET_RESPONSE
      01001529H   PUBLIC    CODE     ---       Get_Response
      000000D0H.6 SFRSYM    DATA     BIT       AC
      00000080H   SFRSYM    DATA     BIT       FSM_FINISH
      00000083H   SFRSYM    DATA     BYTE      DPH0
      000000E8H   SFRSYM    DATA     BIT       AM
      000000A8H   SFRSYM    DATA     BYTE      IE
LX51 LINKER/LOCATER V4.10a                                                            10/17/2007  16:47:04  PAGE 57


      00000085H   SFRSYM    DATA     BYTE      DPH1
      00000082H   SFRSYM    DATA     BYTE      DPL0
      00000084H   SFRSYM    DATA     BYTE      DPL1
      00000088H   SFRSYM    DATA     BIT       SSINT
      000000C0H   SFRSYM    DATA     BIT       PULLUP_RES_STATE
      00000088H.1 SFRSYM    DATA     BIT       USINT
      000000B8H   SFRSYM    DATA     BYTE      IP
      00000098H   SFRSYM    DATA     BIT       RI
      000000D0H.7 SFRSYM    DATA     BIT       CY
      00000098H.1 SFRSYM    DATA     BIT       TI
      000000EAH   SFRSYM    DATA     BYTE      MPTRX
      00000093H   SFRSYM    DATA     BYTE      DPX0
      00000095H   SFRSYM    DATA     BYTE      DPX1
      00000081H   SFRSYM    DATA     BYTE      SP
      000000D0H.2 SFRSYM    DATA     BIT       OV
      000000A1H   SFRSYM    DATA     BYTE      CBSL
      00000080H.5 SFRSYM    DATA     BIT       FSM_RESULT
      00000099H   SFRSYM    DATA     BYTE      SBUF
      00000087H   SFRSYM    DATA     BYTE      PCON
      00000088H.3 SFRSYM    DATA     BIT       MFLT
      00000098H   SFRSYM    DATA     BYTE      SCON
      00000089H   SFRSYM    DATA     BYTE      TMOD
      00000088H   SFRSYM    DATA     BYTE      TCON
      00000088H.1 SFRSYM    DATA     BIT       SINT
      000000E8H   SFRSYM    DATA     BYTE      EPSW
      000000F0H   SFRSYM    DATA     BYTE      B
      000000A2H   SFRSYM    DATA     BYTE      MPTR
      000000E0H   SFRSYM    DATA     BYTE      ACC
      00000088H.5 SFRSYM    DATA     BIT       TF0
      00000088H.7 SFRSYM    DATA     BIT       TF1
      0000008CH   SFRSYM    DATA     BYTE      TH0
      000000B2H   SFRSYM    DATA     BYTE      ISOCON
      0000008DH   SFRSYM    DATA     BYTE      TH1
      000000D8H   SFRSYM    DATA     BYTE      SPSW
      000000D0H   SFRSYM    DATA     BIT       P
      0000008AH   SFRSYM    DATA     BYTE      TL0
      0000008BH   SFRSYM    DATA     BYTE      TL1
      000000C0H   SFRSYM    DATA     BYTE      PROGIO
      000000D0H.3 SFRSYM    DATA     BIT       RS0
      00000088H.4 SFRSYM    DATA     BIT       TR0
      000000D0H.4 SFRSYM    DATA     BIT       RS1
      00000080H.1 SFRSYM    DATA     BIT       FSM_START
      00000088H.6 SFRSYM    DATA     BIT       TR1
      00000083H   SFRSYM    DATA     BYTE      DPH
      000000B4H   SFRSYM    DATA     BYTE      ISOTMR
      00000082H   SFRSYM    DATA     BYTE      DPL
      000000B0H   SFRSYM    DATA     BYTE      SECURITYSTATUS
      00000086H   SFRSYM    DATA     BYTE      DPS
      00000093H   SFRSYM    DATA     BYTE      DPX
      00000080H   SFRSYM    DATA     BYTE      NVFSMCON
      000000F7H   SFRSYM    DATA     BYTE      MFCON
      000000C9H   SFRSYM    DATA     BYTE      NvFsmMode
      000000D0H.5 SFRSYM    DATA     BIT       F0
      000000E8H.1 SFRSYM    DATA     BIT       F1
      000000D0H   SFRSYM    DATA     BYTE      PSW

      01001529H   BLOCK     CODE     ---       LVL=0
      01001529H   LINE      CODE     ---       #58
      01001529H   LINE      CODE     ---       #59
      01001529H   LINE      CODE     ---       #60
      01001531H   LINE      CODE     ---       #61
      01001531H   LINE      CODE     ---       #63
      0100153FH   LINE      CODE     ---       #64
      0100153FH   LINE      CODE     ---       #65
      0100154EH   LINE      CODE     ---       #66
LX51 LINKER/LOCATER V4.10a                                                            10/17/2007  16:47:04  PAGE 58


      01001553H   LINE      CODE     ---       #67
      01001557H   LINE      CODE     ---       #68
      01001559H   LINE      CODE     ---       #70
      01001559H   LINE      CODE     ---       #71
      01001560H   LINE      CODE     ---       #72
      01001560H   LINE      CODE     ---       #74
      01001567H   LINE      CODE     ---       #76
      ---         BLOCKEND  ---      ---       LVL=0

      ---         MODULE    ---      ---       CODE_MEMORY_DUMP
      0100161FH   PUBLIC    CODE     ---       CODE_Memory_Dump
      000000D0H.6 SFRSYM    DATA     BIT       AC
      00000080H   SFRSYM    DATA     BIT       FSM_FINISH
      00000083H   SFRSYM    DATA     BYTE      DPH0
      000000E8H   SFRSYM    DATA     BIT       AM
      000000A8H   SFRSYM    DATA     BYTE      IE
      00000085H   SFRSYM    DATA     BYTE      DPH1
      00000082H   SFRSYM    DATA     BYTE      DPL0
      00000084H   SFRSYM    DATA     BYTE      DPL1
      00000088H   SFRSYM    DATA     BIT       SSINT
      000000C0H   SFRSYM    DATA     BIT       PULLUP_RES_STATE
      00000088H.1 SFRSYM    DATA     BIT       USINT
      000000B8H   SFRSYM    DATA     BYTE      IP
      00000098H   SFRSYM    DATA     BIT       RI
      000000D0H.7 SFRSYM    DATA     BIT       CY
      00000098H.1 SFRSYM    DATA     BIT       TI
      000000EAH   SFRSYM    DATA     BYTE      MPTRX
      00000093H   SFRSYM    DATA     BYTE      DPX0
      00000095H   SFRSYM    DATA     BYTE      DPX1
      00000081H   SFRSYM    DATA     BYTE      SP
      000000D0H.2 SFRSYM    DATA     BIT       OV
      000000A1H   SFRSYM    DATA     BYTE      CBSL
      00000080H.5 SFRSYM    DATA     BIT       FSM_RESULT
      00000099H   SFRSYM    DATA     BYTE      SBUF
      00000087H   SFRSYM    DATA     BYTE      PCON
      00000088H.3 SFRSYM    DATA     BIT       MFLT
      00000098H   SFRSYM    DATA     BYTE      SCON
      00000089H   SFRSYM    DATA     BYTE      TMOD
      00000088H   SFRSYM    DATA     BYTE      TCON
      00000088H.1 SFRSYM    DATA     BIT       SINT
      000000E8H   SFRSYM    DATA     BYTE      EPSW
      000000F0H   SFRSYM    DATA     BYTE      B
      000000A2H   SFRSYM    DATA     BYTE      MPTR
      000000E0H   SFRSYM    DATA     BYTE      ACC
      00000088H.5 SFRSYM    DATA     BIT       TF0
      00000088H.7 SFRSYM    DATA     BIT       TF1
      0000008CH   SFRSYM    DATA     BYTE      TH0
      000000B2H   SFRSYM    DATA     BYTE      ISOCON
      0000008DH   SFRSYM    DATA     BYTE      TH1
      000000D8H   SFRSYM    DATA     BYTE      SPSW
      000000D0H   SFRSYM    DATA     BIT       P
      0000008AH   SFRSYM    DATA     BYTE      TL0
      0000008BH   SFRSYM    DATA     BYTE      TL1
      000000C0H   SFRSYM    DATA     BYTE      PROGIO
      000000D0H.3 SFRSYM    DATA     BIT       RS0
      00000088H.4 SFRSYM    DATA     BIT       TR0
      000000D0H.4 SFRSYM    DATA     BIT       RS1
      00000080H.1 SFRSYM    DATA     BIT       FSM_START
      00000088H.6 SFRSYM    DATA     BIT       TR1
      00000083H   SFRSYM    DATA     BYTE      DPH
      000000B4H   SFRSYM    DATA     BYTE      ISOTMR
      00000082H   SFRSYM    DATA     BYTE      DPL
      000000B0H   SFRSYM    DATA     BYTE      SECURITYSTATUS
      00000086H   SFRSYM    DATA     BYTE      DPS
      00000093H   SFRSYM    DATA     BYTE      DPX
LX51 LINKER/LOCATER V4.10a                                                            10/17/2007  16:47:04  PAGE 59


      00000080H   SFRSYM    DATA     BYTE      NVFSMCON
      000000F7H   SFRSYM    DATA     BYTE      MFCON
      000000C9H   SFRSYM    DATA     BYTE      NvFsmMode
      000000D0H.5 SFRSYM    DATA     BIT       F0
      000000E8H.1 SFRSYM    DATA     BIT       F1
      000000D0H   SFRSYM    DATA     BYTE      PSW

      0100161FH   BLOCK     CODE     ---       LVL=0
      0100161FH   LINE      CODE     ---       #59
      0100161FH   LINE      CODE     ---       #60
      0100161FH   LINE      CODE     ---       #61
      01001630H   LINE      CODE     ---       #66
      01001630H   LINE      CODE     ---       #67
      01001645H   LINE      CODE     ---       #68
      0100164BH   LINE      CODE     ---       #70
      0100164EH   LINE      CODE     ---       #72
      ---         BLOCKEND  ---      ---       LVL=0

      ---         MODULE    ---      ---       IDATA_MEMORY_DUMP
      01001920H   PUBLIC    CODE     ---       IDATA_Memory_Dump
      000000D0H.6 SFRSYM    DATA     BIT       AC
      00000080H   SFRSYM    DATA     BIT       FSM_FINISH
      00000083H   SFRSYM    DATA     BYTE      DPH0
      000000E8H   SFRSYM    DATA     BIT       AM
      000000A8H   SFRSYM    DATA     BYTE      IE
      00000085H   SFRSYM    DATA     BYTE      DPH1
      00000082H   SFRSYM    DATA     BYTE      DPL0
      00000084H   SFRSYM    DATA     BYTE      DPL1
      00000088H   SFRSYM    DATA     BIT       SSINT
      000000C0H   SFRSYM    DATA     BIT       PULLUP_RES_STATE
      00000088H.1 SFRSYM    DATA     BIT       USINT
      000000B8H   SFRSYM    DATA     BYTE      IP
      00000098H   SFRSYM    DATA     BIT       RI
      000000D0H.7 SFRSYM    DATA     BIT       CY
      00000098H.1 SFRSYM    DATA     BIT       TI
      000000EAH   SFRSYM    DATA     BYTE      MPTRX
      00000093H   SFRSYM    DATA     BYTE      DPX0
      00000095H   SFRSYM    DATA     BYTE      DPX1
      00000081H   SFRSYM    DATA     BYTE      SP
      000000D0H.2 SFRSYM    DATA     BIT       OV
      000000A1H   SFRSYM    DATA     BYTE      CBSL
      00000080H.5 SFRSYM    DATA     BIT       FSM_RESULT
      00000099H   SFRSYM    DATA     BYTE      SBUF
      00000087H   SFRSYM    DATA     BYTE      PCON
      00000088H.3 SFRSYM    DATA     BIT       MFLT
      00000098H   SFRSYM    DATA     BYTE      SCON
      00000089H   SFRSYM    DATA     BYTE      TMOD
      00000088H   SFRSYM    DATA     BYTE      TCON
      00000088H.1 SFRSYM    DATA     BIT       SINT
      000000E8H   SFRSYM    DATA     BYTE      EPSW
      000000F0H   SFRSYM    DATA     BYTE      B
      000000A2H   SFRSYM    DATA     BYTE      MPTR
      000000E0H   SFRSYM    DATA     BYTE      ACC
      00000088H.5 SFRSYM    DATA     BIT       TF0
      00000088H.7 SFRSYM    DATA     BIT       TF1
      0000008CH   SFRSYM    DATA     BYTE      TH0
      000000B2H   SFRSYM    DATA     BYTE      ISOCON
      0000008DH   SFRSYM    DATA     BYTE      TH1
      000000D8H   SFRSYM    DATA     BYTE      SPSW
      000000D0H   SFRSYM    DATA     BIT       P
      0000008AH   SFRSYM    DATA     BYTE      TL0
      0000008BH   SFRSYM    DATA     BYTE      TL1
      000000C0H   SFRSYM    DATA     BYTE      PROGIO
      000000D0H.3 SFRSYM    DATA     BIT       RS0
      00000088H.4 SFRSYM    DATA     BIT       TR0
LX51 LINKER/LOCATER V4.10a                                                            10/17/2007  16:47:04  PAGE 60


      000000D0H.4 SFRSYM    DATA     BIT       RS1
      00000080H.1 SFRSYM    DATA     BIT       FSM_START
      00000088H.6 SFRSYM    DATA     BIT       TR1
      00000083H   SFRSYM    DATA     BYTE      DPH
      000000B4H   SFRSYM    DATA     BYTE      ISOTMR
      00000082H   SFRSYM    DATA     BYTE      DPL
      000000B0H   SFRSYM    DATA     BYTE      SECURITYSTATUS
      00000086H   SFRSYM    DATA     BYTE      DPS
      00000093H   SFRSYM    DATA     BYTE      DPX
      00000080H   SFRSYM    DATA     BYTE      NVFSMCON
      000000F7H   SFRSYM    DATA     BYTE      MFCON
      000000C9H   SFRSYM    DATA     BYTE      NvFsmMode
      000000D0H.5 SFRSYM    DATA     BIT       F0
      000000E8H.1 SFRSYM    DATA     BIT       F1
      000000D0H   SFRSYM    DATA     BYTE      PSW

      01001920H   BLOCK     CODE     ---       LVL=0
      01001920H   LINE      CODE     ---       #60
      01001920H   LINE      CODE     ---       #61
      01001920H   LINE      CODE     ---       #62
      01001925H   LINE      CODE     ---       #67
      01001925H   LINE      CODE     ---       #68
      01001930H   LINE      CODE     ---       #69
      01001936H   LINE      CODE     ---       #71
      01001939H   LINE      CODE     ---       #73
      ---         BLOCKEND  ---      ---       LVL=0

      ---         MODULE    ---      ---       XDATA_MEMORY_DUMP
      0100167EH   PUBLIC    CODE     ---       XDATA_Memory_Dump
      000000D0H.6 SFRSYM    DATA     BIT       AC
      00000080H   SFRSYM    DATA     BIT       FSM_FINISH
      00000083H   SFRSYM    DATA     BYTE      DPH0
      000000E8H   SFRSYM    DATA     BIT       AM
      000000A8H   SFRSYM    DATA     BYTE      IE
      00000085H   SFRSYM    DATA     BYTE      DPH1
      00000082H   SFRSYM    DATA     BYTE      DPL0
      00000084H   SFRSYM    DATA     BYTE      DPL1
      00000088H   SFRSYM    DATA     BIT       SSINT
      000000C0H   SFRSYM    DATA     BIT       PULLUP_RES_STATE
      00000088H.1 SFRSYM    DATA     BIT       USINT
      000000B8H   SFRSYM    DATA     BYTE      IP
      00000098H   SFRSYM    DATA     BIT       RI
      000000D0H.7 SFRSYM    DATA     BIT       CY
      00000098H.1 SFRSYM    DATA     BIT       TI
      000000EAH   SFRSYM    DATA     BYTE      MPTRX
      00000093H   SFRSYM    DATA     BYTE      DPX0
      00000095H   SFRSYM    DATA     BYTE      DPX1
      00000081H   SFRSYM    DATA     BYTE      SP
      000000D0H.2 SFRSYM    DATA     BIT       OV
      000000A1H   SFRSYM    DATA     BYTE      CBSL
      00000080H.5 SFRSYM    DATA     BIT       FSM_RESULT
      00000099H   SFRSYM    DATA     BYTE      SBUF
      00000087H   SFRSYM    DATA     BYTE      PCON
      00000088H.3 SFRSYM    DATA     BIT       MFLT
      00000098H   SFRSYM    DATA     BYTE      SCON
      00000089H   SFRSYM    DATA     BYTE      TMOD
      00000088H   SFRSYM    DATA     BYTE      TCON
      00000088H.1 SFRSYM    DATA     BIT       SINT
      000000E8H   SFRSYM    DATA     BYTE      EPSW
      000000F0H   SFRSYM    DATA     BYTE      B
      000000A2H   SFRSYM    DATA     BYTE      MPTR
      000000E0H   SFRSYM    DATA     BYTE      ACC
      00000088H.5 SFRSYM    DATA     BIT       TF0
      00000088H.7 SFRSYM    DATA     BIT       TF1
      0000008CH   SFRSYM    DATA     BYTE      TH0
LX51 LINKER/LOCATER V4.10a                                                            10/17/2007  16:47:04  PAGE 61


      000000B2H   SFRSYM    DATA     BYTE      ISOCON
      0000008DH   SFRSYM    DATA     BYTE      TH1
      000000D8H   SFRSYM    DATA     BYTE      SPSW
      000000D0H   SFRSYM    DATA     BIT       P
      0000008AH   SFRSYM    DATA     BYTE      TL0
      0000008BH   SFRSYM    DATA     BYTE      TL1
      000000C0H   SFRSYM    DATA     BYTE      PROGIO
      000000D0H.3 SFRSYM    DATA     BIT       RS0
      00000088H.4 SFRSYM    DATA     BIT       TR0
      000000D0H.4 SFRSYM    DATA     BIT       RS1
      00000080H.1 SFRSYM    DATA     BIT       FSM_START
      00000088H.6 SFRSYM    DATA     BIT       TR1
      00000083H   SFRSYM    DATA     BYTE      DPH
      000000B4H   SFRSYM    DATA     BYTE      ISOTMR
      00000082H   SFRSYM    DATA     BYTE      DPL
      000000B0H   SFRSYM    DATA     BYTE      SECURITYSTATUS
      00000086H   SFRSYM    DATA     BYTE      DPS
      00000093H   SFRSYM    DATA     BYTE      DPX
      00000080H   SFRSYM    DATA     BYTE      NVFSMCON
      000000F7H   SFRSYM    DATA     BYTE      MFCON
      000000C9H   SFRSYM    DATA     BYTE      NvFsmMode
      000000D0H.5 SFRSYM    DATA     BIT       F0
      000000E8H.1 SFRSYM    DATA     BIT       F1
      000000D0H   SFRSYM    DATA     BYTE      PSW

      0100167EH   BLOCK     CODE     ---       LVL=0
      0100167EH   LINE      CODE     ---       #59
      0100167EH   LINE      CODE     ---       #60
      0100167EH   LINE      CODE     ---       #61
      0100168FH   LINE      CODE     ---       #66
      0100168FH   LINE      CODE     ---       #67
      010016A3H   LINE      CODE     ---       #68
      010016A9H   LINE      CODE     ---       #70
      010016ACH   LINE      CODE     ---       #72
      ---         BLOCKEND  ---      ---       LVL=0

      ---         MODULE    ---      ---       CONV_TWO_BYTES_TO_INT
      01000426H   PUBLIC    CODE     ---       _Conv_Two_Bytes_To_Int
      000000D0H.6 SFRSYM    DATA     BIT       AC
      00000080H   SFRSYM    DATA     BIT       FSM_FINISH
      00000083H   SFRSYM    DATA     BYTE      DPH0
      000000E8H   SFRSYM    DATA     BIT       AM
      000000A8H   SFRSYM    DATA     BYTE      IE
      00000085H   SFRSYM    DATA     BYTE      DPH1
      00000082H   SFRSYM    DATA     BYTE      DPL0
      00000084H   SFRSYM    DATA     BYTE      DPL1
      00000088H   SFRSYM    DATA     BIT       SSINT
      000000C0H   SFRSYM    DATA     BIT       PULLUP_RES_STATE
      00000088H.1 SFRSYM    DATA     BIT       USINT
      000000B8H   SFRSYM    DATA     BYTE      IP
      00000098H   SFRSYM    DATA     BIT       RI
      000000D0H.7 SFRSYM    DATA     BIT       CY
      00000098H.1 SFRSYM    DATA     BIT       TI
      000000EAH   SFRSYM    DATA     BYTE      MPTRX
      00000093H   SFRSYM    DATA     BYTE      DPX0
      00000095H   SFRSYM    DATA     BYTE      DPX1
      00000081H   SFRSYM    DATA     BYTE      SP
      000000D0H.2 SFRSYM    DATA     BIT       OV
      000000A1H   SFRSYM    DATA     BYTE      CBSL
      00000080H.5 SFRSYM    DATA     BIT       FSM_RESULT
      00000099H   SFRSYM    DATA     BYTE      SBUF
      00000087H   SFRSYM    DATA     BYTE      PCON
      00000088H.3 SFRSYM    DATA     BIT       MFLT
      00000098H   SFRSYM    DATA     BYTE      SCON
      00000089H   SFRSYM    DATA     BYTE      TMOD
LX51 LINKER/LOCATER V4.10a                                                            10/17/2007  16:47:04  PAGE 62


      00000088H   SFRSYM    DATA     BYTE      TCON
      00000088H.1 SFRSYM    DATA     BIT       SINT
      000000E8H   SFRSYM    DATA     BYTE      EPSW
      000000F0H   SFRSYM    DATA     BYTE      B
      000000A2H   SFRSYM    DATA     BYTE      MPTR
      000000E0H   SFRSYM    DATA     BYTE      ACC
      00000088H.5 SFRSYM    DATA     BIT       TF0
      00000088H.7 SFRSYM    DATA     BIT       TF1
      0000008CH   SFRSYM    DATA     BYTE      TH0
      000000B2H   SFRSYM    DATA     BYTE      ISOCON
      0000008DH   SFRSYM    DATA     BYTE      TH1
      000000D8H   SFRSYM    DATA     BYTE      SPSW
      000000D0H   SFRSYM    DATA     BIT       P
      0000008AH   SFRSYM    DATA     BYTE      TL0
      0000008BH   SFRSYM    DATA     BYTE      TL1
      000000C0H   SFRSYM    DATA     BYTE      PROGIO
      000000D0H.3 SFRSYM    DATA     BIT       RS0
      00000088H.4 SFRSYM    DATA     BIT       TR0
      000000D0H.4 SFRSYM    DATA     BIT       RS1
      00000080H.1 SFRSYM    DATA     BIT       FSM_START
      00000088H.6 SFRSYM    DATA     BIT       TR1
      00000083H   SFRSYM    DATA     BYTE      DPH
      000000B4H   SFRSYM    DATA     BYTE      ISOTMR
      00000082H   SFRSYM    DATA     BYTE      DPL
      000000B0H   SFRSYM    DATA     BYTE      SECURITYSTATUS
      00000086H   SFRSYM    DATA     BYTE      DPS
      00000093H   SFRSYM    DATA     BYTE      DPX
      00000080H   SFRSYM    DATA     BYTE      NVFSMCON
      000000F7H   SFRSYM    DATA     BYTE      MFCON
      000000C9H   SFRSYM    DATA     BYTE      NvFsmMode
      000000D0H.5 SFRSYM    DATA     BIT       F0
      000000E8H.1 SFRSYM    DATA     BIT       F1
      000000D0H   SFRSYM    DATA     BYTE      PSW

      01000426H   BLOCK     CODE     ---       LVL=0
      00000007H   SYMBOL    DATA     BYTE      ucHiByteAddr
      00000005H   SYMBOL    DATA     BYTE      ucLoByteAddr
      01000426H   LINE      CODE     ---       #48
      01000426H   LINE      CODE     ---       #49
      01000426H   LINE      CODE     ---       #50
      0100042AH   LINE      CODE     ---       #52
      ---         BLOCKEND  ---      ---       LVL=0

      ---         MODULE    ---      ---       GET_CLOCK_SOURCE
      0100182AH   PUBLIC    CODE     ---       Get_Clock_Source
      000000D0H.6 SFRSYM    DATA     BIT       AC
      00000080H   SFRSYM    DATA     BIT       FSM_FINISH
      00000083H   SFRSYM    DATA     BYTE      DPH0
      000000E8H   SFRSYM    DATA     BIT       AM
      000000A8H   SFRSYM    DATA     BYTE      IE
      00000085H   SFRSYM    DATA     BYTE      DPH1
      00000082H   SFRSYM    DATA     BYTE      DPL0
      00000084H   SFRSYM    DATA     BYTE      DPL1
      00000088H   SFRSYM    DATA     BIT       SSINT
      000000C0H   SFRSYM    DATA     BIT       PULLUP_RES_STATE
      00000088H.1 SFRSYM    DATA     BIT       USINT
      000000B8H   SFRSYM    DATA     BYTE      IP
      00000098H   SFRSYM    DATA     BIT       RI
      000000D0H.7 SFRSYM    DATA     BIT       CY
      00000098H.1 SFRSYM    DATA     BIT       TI
      000000EAH   SFRSYM    DATA     BYTE      MPTRX
      00000093H   SFRSYM    DATA     BYTE      DPX0
      00000095H   SFRSYM    DATA     BYTE      DPX1
      00000081H   SFRSYM    DATA     BYTE      SP
      000000D0H.2 SFRSYM    DATA     BIT       OV
LX51 LINKER/LOCATER V4.10a                                                            10/17/2007  16:47:04  PAGE 63


      000000A1H   SFRSYM    DATA     BYTE      CBSL
      00000080H.5 SFRSYM    DATA     BIT       FSM_RESULT
      00000099H   SFRSYM    DATA     BYTE      SBUF
      00000087H   SFRSYM    DATA     BYTE      PCON
      00000088H.3 SFRSYM    DATA     BIT       MFLT
      00000098H   SFRSYM    DATA     BYTE      SCON
      00000089H   SFRSYM    DATA     BYTE      TMOD
      00000088H   SFRSYM    DATA     BYTE      TCON
      00000088H.1 SFRSYM    DATA     BIT       SINT
      000000E8H   SFRSYM    DATA     BYTE      EPSW
      000000F0H   SFRSYM    DATA     BYTE      B
      000000A2H   SFRSYM    DATA     BYTE      MPTR
      000000E0H   SFRSYM    DATA     BYTE      ACC
      00000088H.5 SFRSYM    DATA     BIT       TF0
      00000088H.7 SFRSYM    DATA     BIT       TF1
      0000008CH   SFRSYM    DATA     BYTE      TH0
      000000B2H   SFRSYM    DATA     BYTE      ISOCON
      0000008DH   SFRSYM    DATA     BYTE      TH1
      000000D8H   SFRSYM    DATA     BYTE      SPSW
      000000D0H   SFRSYM    DATA     BIT       P
      0000008AH   SFRSYM    DATA     BYTE      TL0
      0000008BH   SFRSYM    DATA     BYTE      TL1
      000000C0H   SFRSYM    DATA     BYTE      PROGIO
      000000D0H.3 SFRSYM    DATA     BIT       RS0
      00000088H.4 SFRSYM    DATA     BIT       TR0
      000000D0H.4 SFRSYM    DATA     BIT       RS1
      00000080H.1 SFRSYM    DATA     BIT       FSM_START
      00000088H.6 SFRSYM    DATA     BIT       TR1
      00000083H   SFRSYM    DATA     BYTE      DPH
      000000B4H   SFRSYM    DATA     BYTE      ISOTMR
      00000082H   SFRSYM    DATA     BYTE      DPL
      000000B0H   SFRSYM    DATA     BYTE      SECURITYSTATUS
      00000086H   SFRSYM    DATA     BYTE      DPS
      00000093H   SFRSYM    DATA     BYTE      DPX
      00000080H   SFRSYM    DATA     BYTE      NVFSMCON
      000000F7H   SFRSYM    DATA     BYTE      MFCON
      000000C9H   SFRSYM    DATA     BYTE      NvFsmMode
      000000D0H.5 SFRSYM    DATA     BIT       F0
      000000E8H.1 SFRSYM    DATA     BIT       F1
      000000D0H   SFRSYM    DATA     BYTE      PSW

      0100182AH   BLOCK     CODE     ---       LVL=0
      0100182AH   LINE      CODE     ---       #53
      0100182AH   LINE      CODE     ---       #54
      0100182AH   LINE      CODE     ---       #55
      01001830H   LINE      CODE     ---       #56
      01001830H   LINE      CODE     ---       #58
      01001836H   LINE      CODE     ---       #60
      0100183AH   LINE      CODE     ---       #61
      0100183CH   LINE      CODE     ---       #63
      0100183CH   LINE      CODE     ---       #64
      01001843H   LINE      CODE     ---       #65
      01001843H   LINE      CODE     ---       #67
      0100184AH   LINE      CODE     ---       #69
      ---         BLOCKEND  ---      ---       LVL=0

      ---         MODULE    ---      ---       GET_CLOCK_CONTROL
      0100184BH   PUBLIC    CODE     ---       Get_Clock_Control
      000000D0H.6 SFRSYM    DATA     BIT       AC
      00000080H   SFRSYM    DATA     BIT       FSM_FINISH
      00000083H   SFRSYM    DATA     BYTE      DPH0
      000000E8H   SFRSYM    DATA     BIT       AM
      000000A8H   SFRSYM    DATA     BYTE      IE
      00000085H   SFRSYM    DATA     BYTE      DPH1
      00000082H   SFRSYM    DATA     BYTE      DPL0
LX51 LINKER/LOCATER V4.10a                                                            10/17/2007  16:47:04  PAGE 64


      00000084H   SFRSYM    DATA     BYTE      DPL1
      00000088H   SFRSYM    DATA     BIT       SSINT
      000000C0H   SFRSYM    DATA     BIT       PULLUP_RES_STATE
      00000088H.1 SFRSYM    DATA     BIT       USINT
      000000B8H   SFRSYM    DATA     BYTE      IP
      00000098H   SFRSYM    DATA     BIT       RI
      000000D0H.7 SFRSYM    DATA     BIT       CY
      00000098H.1 SFRSYM    DATA     BIT       TI
      000000EAH   SFRSYM    DATA     BYTE      MPTRX
      00000093H   SFRSYM    DATA     BYTE      DPX0
      00000095H   SFRSYM    DATA     BYTE      DPX1
      00000081H   SFRSYM    DATA     BYTE      SP
      000000D0H.2 SFRSYM    DATA     BIT       OV
      000000A1H   SFRSYM    DATA     BYTE      CBSL
      00000080H.5 SFRSYM    DATA     BIT       FSM_RESULT
      00000099H   SFRSYM    DATA     BYTE      SBUF
      00000087H   SFRSYM    DATA     BYTE      PCON
      00000088H.3 SFRSYM    DATA     BIT       MFLT
      00000098H   SFRSYM    DATA     BYTE      SCON
      00000089H   SFRSYM    DATA     BYTE      TMOD
      00000088H   SFRSYM    DATA     BYTE      TCON
      00000088H.1 SFRSYM    DATA     BIT       SINT
      000000E8H   SFRSYM    DATA     BYTE      EPSW
      000000F0H   SFRSYM    DATA     BYTE      B
      000000A2H   SFRSYM    DATA     BYTE      MPTR
      000000E0H   SFRSYM    DATA     BYTE      ACC
      00000088H.5 SFRSYM    DATA     BIT       TF0
      00000088H.7 SFRSYM    DATA     BIT       TF1
      0000008CH   SFRSYM    DATA     BYTE      TH0
      000000B2H   SFRSYM    DATA     BYTE      ISOCON
      0000008DH   SFRSYM    DATA     BYTE      TH1
      000000D8H   SFRSYM    DATA     BYTE      SPSW
      000000D0H   SFRSYM    DATA     BIT       P
      0000008AH   SFRSYM    DATA     BYTE      TL0
      0000008BH   SFRSYM    DATA     BYTE      TL1
      000000C0H   SFRSYM    DATA     BYTE      PROGIO
      000000D0H.3 SFRSYM    DATA     BIT       RS0
      00000088H.4 SFRSYM    DATA     BIT       TR0
      000000D0H.4 SFRSYM    DATA     BIT       RS1
      00000080H.1 SFRSYM    DATA     BIT       FSM_START
      00000088H.6 SFRSYM    DATA     BIT       TR1
      00000083H   SFRSYM    DATA     BYTE      DPH
      000000B4H   SFRSYM    DATA     BYTE      ISOTMR
      00000082H   SFRSYM    DATA     BYTE      DPL
      000000B0H   SFRSYM    DATA     BYTE      SECURITYSTATUS
      00000086H   SFRSYM    DATA     BYTE      DPS
      00000093H   SFRSYM    DATA     BYTE      DPX
      00000080H   SFRSYM    DATA     BYTE      NVFSMCON
      000000F7H   SFRSYM    DATA     BYTE      MFCON
      000000C9H   SFRSYM    DATA     BYTE      NvFsmMode
      000000D0H.5 SFRSYM    DATA     BIT       F0
      000000E8H.1 SFRSYM    DATA     BIT       F1
      000000D0H   SFRSYM    DATA     BYTE      PSW

      0100184BH   BLOCK     CODE     ---       LVL=0
      0100184BH   LINE      CODE     ---       #53
      0100184BH   LINE      CODE     ---       #54
      0100184BH   LINE      CODE     ---       #55
      01001851H   LINE      CODE     ---       #56
      01001851H   LINE      CODE     ---       #58
      01001857H   LINE      CODE     ---       #60
      0100185BH   LINE      CODE     ---       #61
      0100185DH   LINE      CODE     ---       #63
      0100185DH   LINE      CODE     ---       #64
      01001864H   LINE      CODE     ---       #65
LX51 LINKER/LOCATER V4.10a                                                            10/17/2007  16:47:04  PAGE 65


      01001864H   LINE      CODE     ---       #67
      0100186BH   LINE      CODE     ---       #69
      ---         BLOCKEND  ---      ---       LVL=0

      ---         MODULE    ---      ---       SET_EXECUTE_ONLY_STATUS
      01001463H   PUBLIC    CODE     ---       Set_Execute_Only_Status
      000000D0H.6 SFRSYM    DATA     BIT       AC
      00000080H   SFRSYM    DATA     BIT       FSM_FINISH
      00000083H   SFRSYM    DATA     BYTE      DPH0
      000000E8H   SFRSYM    DATA     BIT       AM
      000000A8H   SFRSYM    DATA     BYTE      IE
      00000085H   SFRSYM    DATA     BYTE      DPH1
      00000082H   SFRSYM    DATA     BYTE      DPL0
      00000084H   SFRSYM    DATA     BYTE      DPL1
      00000088H   SFRSYM    DATA     BIT       SSINT
      000000C0H   SFRSYM    DATA     BIT       PULLUP_RES_STATE
      00000088H.1 SFRSYM    DATA     BIT       USINT
      000000B8H   SFRSYM    DATA     BYTE      IP
      00000098H   SFRSYM    DATA     BIT       RI
      000000D0H.7 SFRSYM    DATA     BIT       CY
      00000098H.1 SFRSYM    DATA     BIT       TI
      000000EAH   SFRSYM    DATA     BYTE      MPTRX
      00000093H   SFRSYM    DATA     BYTE      DPX0
      00000095H   SFRSYM    DATA     BYTE      DPX1
      00000081H   SFRSYM    DATA     BYTE      SP
      000000D0H.2 SFRSYM    DATA     BIT       OV
      000000A1H   SFRSYM    DATA     BYTE      CBSL
      00000080H.5 SFRSYM    DATA     BIT       FSM_RESULT
      00000099H   SFRSYM    DATA     BYTE      SBUF
      00000087H   SFRSYM    DATA     BYTE      PCON
      00000088H.3 SFRSYM    DATA     BIT       MFLT
      00000098H   SFRSYM    DATA     BYTE      SCON
      00000089H   SFRSYM    DATA     BYTE      TMOD
      00000088H   SFRSYM    DATA     BYTE      TCON
      00000088H.1 SFRSYM    DATA     BIT       SINT
      000000E8H   SFRSYM    DATA     BYTE      EPSW
      000000F0H   SFRSYM    DATA     BYTE      B
      000000A2H   SFRSYM    DATA     BYTE      MPTR
      000000E0H   SFRSYM    DATA     BYTE      ACC
      00000088H.5 SFRSYM    DATA     BIT       TF0
      00000088H.7 SFRSYM    DATA     BIT       TF1
      0000008CH   SFRSYM    DATA     BYTE      TH0
      000000B2H   SFRSYM    DATA     BYTE      ISOCON
      0000008DH   SFRSYM    DATA     BYTE      TH1
      000000D8H   SFRSYM    DATA     BYTE      SPSW
      000000D0H   SFRSYM    DATA     BIT       P
      0000008AH   SFRSYM    DATA     BYTE      TL0
      0000008BH   SFRSYM    DATA     BYTE      TL1
      000000C0H   SFRSYM    DATA     BYTE      PROGIO
      000000D0H.3 SFRSYM    DATA     BIT       RS0
      00000088H.4 SFRSYM    DATA     BIT       TR0
      000000D0H.4 SFRSYM    DATA     BIT       RS1
      00000080H.1 SFRSYM    DATA     BIT       FSM_START
      00000088H.6 SFRSYM    DATA     BIT       TR1
      00000083H   SFRSYM    DATA     BYTE      DPH
      000000B4H   SFRSYM    DATA     BYTE      ISOTMR
      00000082H   SFRSYM    DATA     BYTE      DPL
      000000B0H   SFRSYM    DATA     BYTE      SECURITYSTATUS
      00000086H   SFRSYM    DATA     BYTE      DPS
      00000093H   SFRSYM    DATA     BYTE      DPX
      00000080H   SFRSYM    DATA     BYTE      NVFSMCON
      000000F7H   SFRSYM    DATA     BYTE      MFCON
      000000C9H   SFRSYM    DATA     BYTE      NvFsmMode
      000000D0H.5 SFRSYM    DATA     BIT       F0
      000000E8H.1 SFRSYM    DATA     BIT       F1
LX51 LINKER/LOCATER V4.10a                                                            10/17/2007  16:47:04  PAGE 66


      000000D0H   SFRSYM    DATA     BYTE      PSW

      01001463H   BLOCK     CODE     ---       LVL=0
      01001463H   LINE      CODE     ---       #64
      01001463H   LINE      CODE     ---       #65
      01001463H   LINE      CODE     ---       #66
      0100146AH   LINE      CODE     ---       #67
      0100146AH   LINE      CODE     ---       #68
      01001471H   LINE      CODE     ---       #71
      01001486H   LINE      CODE     ---       #74
      0100148BH   LINE      CODE     ---       #75
      0100148BH   LINE      CODE     ---       #76
      01001490H   LINE      CODE     ---       #77
      01001492H   LINE      CODE     ---       #79
      01001492H   LINE      CODE     ---       #80
      01001494H   LINE      CODE     ---       #81
      01001494H   LINE      CODE     ---       #82
      01001496H   LINE      CODE     ---       #85
      01001496H   LINE      CODE     ---       #86
      0100149DH   LINE      CODE     ---       #87
      0100149DH   LINE      CODE     ---       #89
      010014A4H   LINE      CODE     ---       #91
      ---         BLOCKEND  ---      ---       LVL=0

      ---         MODULE    ---      ---       SET_PROTECTION_STATUS
      010014A5H   PUBLIC    CODE     ---       Set_Protection_Status
      000000D0H.6 SFRSYM    DATA     BIT       AC
      00000080H   SFRSYM    DATA     BIT       FSM_FINISH
      00000083H   SFRSYM    DATA     BYTE      DPH0
      000000E8H   SFRSYM    DATA     BIT       AM
      000000A8H   SFRSYM    DATA     BYTE      IE
      00000085H   SFRSYM    DATA     BYTE      DPH1
      00000082H   SFRSYM    DATA     BYTE      DPL0
      00000084H   SFRSYM    DATA     BYTE      DPL1
      00000088H   SFRSYM    DATA     BIT       SSINT
      000000C0H   SFRSYM    DATA     BIT       PULLUP_RES_STATE
      00000088H.1 SFRSYM    DATA     BIT       USINT
      000000B8H   SFRSYM    DATA     BYTE      IP
      00000098H   SFRSYM    DATA     BIT       RI
      000000D0H.7 SFRSYM    DATA     BIT       CY
      00000098H.1 SFRSYM    DATA     BIT       TI
      000000EAH   SFRSYM    DATA     BYTE      MPTRX
      00000093H   SFRSYM    DATA     BYTE      DPX0
      00000095H   SFRSYM    DATA     BYTE      DPX1
      00000081H   SFRSYM    DATA     BYTE      SP
      000000D0H.2 SFRSYM    DATA     BIT       OV
      000000A1H   SFRSYM    DATA     BYTE      CBSL
      00000080H.5 SFRSYM    DATA     BIT       FSM_RESULT
      00000099H   SFRSYM    DATA     BYTE      SBUF
      00000087H   SFRSYM    DATA     BYTE      PCON
      00000088H.3 SFRSYM    DATA     BIT       MFLT
      00000098H   SFRSYM    DATA     BYTE      SCON
      00000089H   SFRSYM    DATA     BYTE      TMOD
      00000088H   SFRSYM    DATA     BYTE      TCON
      00000088H.1 SFRSYM    DATA     BIT       SINT
      000000E8H   SFRSYM    DATA     BYTE      EPSW
      000000F0H   SFRSYM    DATA     BYTE      B
      000000A2H   SFRSYM    DATA     BYTE      MPTR
      000000E0H   SFRSYM    DATA     BYTE      ACC
      00000088H.5 SFRSYM    DATA     BIT       TF0
      00000088H.7 SFRSYM    DATA     BIT       TF1
      0000008CH   SFRSYM    DATA     BYTE      TH0
      000000B2H   SFRSYM    DATA     BYTE      ISOCON
      0000008DH   SFRSYM    DATA     BYTE      TH1
      000000D8H   SFRSYM    DATA     BYTE      SPSW
LX51 LINKER/LOCATER V4.10a                                                            10/17/2007  16:47:04  PAGE 67


      000000D0H   SFRSYM    DATA     BIT       P
      0000008AH   SFRSYM    DATA     BYTE      TL0
      0000008BH   SFRSYM    DATA     BYTE      TL1
      000000C0H   SFRSYM    DATA     BYTE      PROGIO
      000000D0H.3 SFRSYM    DATA     BIT       RS0
      00000088H.4 SFRSYM    DATA     BIT       TR0
      000000D0H.4 SFRSYM    DATA     BIT       RS1
      00000080H.1 SFRSYM    DATA     BIT       FSM_START
      00000088H.6 SFRSYM    DATA     BIT       TR1
      00000083H   SFRSYM    DATA     BYTE      DPH
      000000B4H   SFRSYM    DATA     BYTE      ISOTMR
      00000082H   SFRSYM    DATA     BYTE      DPL
      000000B0H   SFRSYM    DATA     BYTE      SECURITYSTATUS
      00000086H   SFRSYM    DATA     BYTE      DPS
      00000093H   SFRSYM    DATA     BYTE      DPX
      00000080H   SFRSYM    DATA     BYTE      NVFSMCON
      000000F7H   SFRSYM    DATA     BYTE      MFCON
      000000C9H   SFRSYM    DATA     BYTE      NvFsmMode
      000000D0H.5 SFRSYM    DATA     BIT       F0
      000000E8H.1 SFRSYM    DATA     BIT       F1
      000000D0H   SFRSYM    DATA     BYTE      PSW

      010014A5H   BLOCK     CODE     ---       LVL=0
      010014A5H   LINE      CODE     ---       #65
      010014A5H   LINE      CODE     ---       #66
      010014A5H   LINE      CODE     ---       #67
      010014ACH   LINE      CODE     ---       #68
      010014ACH   LINE      CODE     ---       #69
      010014B3H   LINE      CODE     ---       #72
      010014C8H   LINE      CODE     ---       #75
      010014CDH   LINE      CODE     ---       #76
      010014CDH   LINE      CODE     ---       #77
      010014D2H   LINE      CODE     ---       #78
      010014D4H   LINE      CODE     ---       #80
      010014D4H   LINE      CODE     ---       #81
      010014D6H   LINE      CODE     ---       #82
      010014D6H   LINE      CODE     ---       #83
      010014D8H   LINE      CODE     ---       #86
      010014D8H   LINE      CODE     ---       #87
      010014DFH   LINE      CODE     ---       #88
      010014DFH   LINE      CODE     ---       #90
      010014E6H   LINE      CODE     ---       #92
      ---         BLOCKEND  ---      ---       LVL=0

      ---         MODULE    ---      ---       SET_SECURITY_ACTION
      01001750H   PUBLIC    CODE     ---       Set_Security_Action
      000000D0H.6 SFRSYM    DATA     BIT       AC
      00000080H   SFRSYM    DATA     BIT       FSM_FINISH
      00000083H   SFRSYM    DATA     BYTE      DPH0
      000000E8H   SFRSYM    DATA     BIT       AM
      000000A8H   SFRSYM    DATA     BYTE      IE
      00000085H   SFRSYM    DATA     BYTE      DPH1
      00000082H   SFRSYM    DATA     BYTE      DPL0
      00000084H   SFRSYM    DATA     BYTE      DPL1
      00000088H   SFRSYM    DATA     BIT       SSINT
      000000C0H   SFRSYM    DATA     BIT       PULLUP_RES_STATE
      00000088H.1 SFRSYM    DATA     BIT       USINT
      000000B8H   SFRSYM    DATA     BYTE      IP
      00000098H   SFRSYM    DATA     BIT       RI
      000000D0H.7 SFRSYM    DATA     BIT       CY
      00000098H.1 SFRSYM    DATA     BIT       TI
      000000EAH   SFRSYM    DATA     BYTE      MPTRX
      00000093H   SFRSYM    DATA     BYTE      DPX0
      00000095H   SFRSYM    DATA     BYTE      DPX1
      00000081H   SFRSYM    DATA     BYTE      SP
LX51 LINKER/LOCATER V4.10a                                                            10/17/2007  16:47:04  PAGE 68


      000000D0H.2 SFRSYM    DATA     BIT       OV
      000000A1H   SFRSYM    DATA     BYTE      CBSL
      00000080H.5 SFRSYM    DATA     BIT       FSM_RESULT
      00000099H   SFRSYM    DATA     BYTE      SBUF
      00000087H   SFRSYM    DATA     BYTE      PCON
      00000088H.3 SFRSYM    DATA     BIT       MFLT
      00000098H   SFRSYM    DATA     BYTE      SCON
      00000089H   SFRSYM    DATA     BYTE      TMOD
      00000088H   SFRSYM    DATA     BYTE      TCON
      00000088H.1 SFRSYM    DATA     BIT       SINT
      000000E8H   SFRSYM    DATA     BYTE      EPSW
      000000F0H   SFRSYM    DATA     BYTE      B
      000000A2H   SFRSYM    DATA     BYTE      MPTR
      000000E0H   SFRSYM    DATA     BYTE      ACC
      00000088H.5 SFRSYM    DATA     BIT       TF0
      00000088H.7 SFRSYM    DATA     BIT       TF1
      0000008CH   SFRSYM    DATA     BYTE      TH0
      000000B2H   SFRSYM    DATA     BYTE      ISOCON
      0000008DH   SFRSYM    DATA     BYTE      TH1
      000000D8H   SFRSYM    DATA     BYTE      SPSW
      000000D0H   SFRSYM    DATA     BIT       P
      0000008AH   SFRSYM    DATA     BYTE      TL0
      0000008BH   SFRSYM    DATA     BYTE      TL1
      000000C0H   SFRSYM    DATA     BYTE      PROGIO
      000000D0H.3 SFRSYM    DATA     BIT       RS0
      00000088H.4 SFRSYM    DATA     BIT       TR0
      000000D0H.4 SFRSYM    DATA     BIT       RS1
      00000080H.1 SFRSYM    DATA     BIT       FSM_START
      00000088H.6 SFRSYM    DATA     BIT       TR1
      00000083H   SFRSYM    DATA     BYTE      DPH
      000000B4H   SFRSYM    DATA     BYTE      ISOTMR
      00000082H   SFRSYM    DATA     BYTE      DPL
      000000B0H   SFRSYM    DATA     BYTE      SECURITYSTATUS
      00000086H   SFRSYM    DATA     BYTE      DPS
      00000093H   SFRSYM    DATA     BYTE      DPX
      00000080H   SFRSYM    DATA     BYTE      NVFSMCON
      000000F7H   SFRSYM    DATA     BYTE      MFCON
      000000C9H   SFRSYM    DATA     BYTE      NvFsmMode
      000000D0H.5 SFRSYM    DATA     BIT       F0
      000000E8H.1 SFRSYM    DATA     BIT       F1
      000000D0H   SFRSYM    DATA     BYTE      PSW

      01001750H   BLOCK     CODE     ---       LVL=0
      01001750H   LINE      CODE     ---       #59
      01001750H   LINE      CODE     ---       #60
      01001750H   LINE      CODE     ---       #62
      0100175EH   LINE      CODE     ---       #65
      01001763H   LINE      CODE     ---       #66
      01001763H   LINE      CODE     ---       #67
      01001768H   LINE      CODE     ---       #68
      0100176AH   LINE      CODE     ---       #70
      0100176AH   LINE      CODE     ---       #71
      0100176FH   LINE      CODE     ---       #72
      0100176FH   LINE      CODE     ---       #74
      01001776H   LINE      CODE     ---       #76
      ---         BLOCKEND  ---      ---       LVL=0

      ---         MODULE    ---      ---       SET_SECURITY_MASK
      01001777H   PUBLIC    CODE     ---       Set_Security_Mask
      000000D0H.6 SFRSYM    DATA     BIT       AC
      00000080H   SFRSYM    DATA     BIT       FSM_FINISH
      00000083H   SFRSYM    DATA     BYTE      DPH0
      000000E8H   SFRSYM    DATA     BIT       AM
      000000A8H   SFRSYM    DATA     BYTE      IE
      00000085H   SFRSYM    DATA     BYTE      DPH1
LX51 LINKER/LOCATER V4.10a                                                            10/17/2007  16:47:04  PAGE 69


      00000082H   SFRSYM    DATA     BYTE      DPL0
      00000084H   SFRSYM    DATA     BYTE      DPL1
      00000088H   SFRSYM    DATA     BIT       SSINT
      000000C0H   SFRSYM    DATA     BIT       PULLUP_RES_STATE
      00000088H.1 SFRSYM    DATA     BIT       USINT
      000000B8H   SFRSYM    DATA     BYTE      IP
      00000098H   SFRSYM    DATA     BIT       RI
      000000D0H.7 SFRSYM    DATA     BIT       CY
      00000098H.1 SFRSYM    DATA     BIT       TI
      000000EAH   SFRSYM    DATA     BYTE      MPTRX
      00000093H   SFRSYM    DATA     BYTE      DPX0
      00000095H   SFRSYM    DATA     BYTE      DPX1
      00000081H   SFRSYM    DATA     BYTE      SP
      000000D0H.2 SFRSYM    DATA     BIT       OV
      000000A1H   SFRSYM    DATA     BYTE      CBSL
      00000080H.5 SFRSYM    DATA     BIT       FSM_RESULT
      00000099H   SFRSYM    DATA     BYTE      SBUF
      00000087H   SFRSYM    DATA     BYTE      PCON
      00000088H.3 SFRSYM    DATA     BIT       MFLT
      00000098H   SFRSYM    DATA     BYTE      SCON
      00000089H   SFRSYM    DATA     BYTE      TMOD
      00000088H   SFRSYM    DATA     BYTE      TCON
      00000088H.1 SFRSYM    DATA     BIT       SINT
      000000E8H   SFRSYM    DATA     BYTE      EPSW
      000000F0H   SFRSYM    DATA     BYTE      B
      000000A2H   SFRSYM    DATA     BYTE      MPTR
      000000E0H   SFRSYM    DATA     BYTE      ACC
      00000088H.5 SFRSYM    DATA     BIT       TF0
      00000088H.7 SFRSYM    DATA     BIT       TF1
      0000008CH   SFRSYM    DATA     BYTE      TH0
      000000B2H   SFRSYM    DATA     BYTE      ISOCON
      0000008DH   SFRSYM    DATA     BYTE      TH1
      000000D8H   SFRSYM    DATA     BYTE      SPSW
      000000D0H   SFRSYM    DATA     BIT       P
      0000008AH   SFRSYM    DATA     BYTE      TL0
      0000008BH   SFRSYM    DATA     BYTE      TL1
      000000C0H   SFRSYM    DATA     BYTE      PROGIO
      000000D0H.3 SFRSYM    DATA     BIT       RS0
      00000088H.4 SFRSYM    DATA     BIT       TR0
      000000D0H.4 SFRSYM    DATA     BIT       RS1
      00000080H.1 SFRSYM    DATA     BIT       FSM_START
      00000088H.6 SFRSYM    DATA     BIT       TR1
      00000083H   SFRSYM    DATA     BYTE      DPH
      000000B4H   SFRSYM    DATA     BYTE      ISOTMR
      00000082H   SFRSYM    DATA     BYTE      DPL
      000000B0H   SFRSYM    DATA     BYTE      SECURITYSTATUS
      00000086H   SFRSYM    DATA     BYTE      DPS
      00000093H   SFRSYM    DATA     BYTE      DPX
      00000080H   SFRSYM    DATA     BYTE      NVFSMCON
      000000F7H   SFRSYM    DATA     BYTE      MFCON
      000000C9H   SFRSYM    DATA     BYTE      NvFsmMode
      000000D0H.5 SFRSYM    DATA     BIT       F0
      000000E8H.1 SFRSYM    DATA     BIT       F1
      000000D0H   SFRSYM    DATA     BYTE      PSW

      01001777H   BLOCK     CODE     ---       LVL=0
      01001777H   LINE      CODE     ---       #59
      01001777H   LINE      CODE     ---       #60
      01001777H   LINE      CODE     ---       #62
      01001785H   LINE      CODE     ---       #65
      0100178AH   LINE      CODE     ---       #66
      0100178AH   LINE      CODE     ---       #67
      0100178FH   LINE      CODE     ---       #68
      01001791H   LINE      CODE     ---       #70
      01001791H   LINE      CODE     ---       #71
LX51 LINKER/LOCATER V4.10a                                                            10/17/2007  16:47:04  PAGE 70


      01001796H   LINE      CODE     ---       #72
      01001796H   LINE      CODE     ---       #74
      0100179DH   LINE      CODE     ---       #76
      ---         BLOCKEND  ---      ---       LVL=0

      ---         MODULE    ---      ---       WRITE_BYTE_UCM_FLASH_MODE
      010014E7H   PUBLIC    CODE     ---       Write_Byte_UCM_Flash_Mode
      000000D0H.6 SFRSYM    DATA     BIT       AC
      00000080H   SFRSYM    DATA     BIT       FSM_FINISH
      00000083H   SFRSYM    DATA     BYTE      DPH0
      000000E8H   SFRSYM    DATA     BIT       AM
      000000A8H   SFRSYM    DATA     BYTE      IE
      00000085H   SFRSYM    DATA     BYTE      DPH1
      00000082H   SFRSYM    DATA     BYTE      DPL0
      00000084H   SFRSYM    DATA     BYTE      DPL1
      00000088H   SFRSYM    DATA     BIT       SSINT
      000000C0H   SFRSYM    DATA     BIT       PULLUP_RES_STATE
      00000088H.1 SFRSYM    DATA     BIT       USINT
      000000B8H   SFRSYM    DATA     BYTE      IP
      00000098H   SFRSYM    DATA     BIT       RI
      000000D0H.7 SFRSYM    DATA     BIT       CY
      00000098H.1 SFRSYM    DATA     BIT       TI
      000000EAH   SFRSYM    DATA     BYTE      MPTRX
      00000093H   SFRSYM    DATA     BYTE      DPX0
      00000095H   SFRSYM    DATA     BYTE      DPX1
      00000081H   SFRSYM    DATA     BYTE      SP
      000000D0H.2 SFRSYM    DATA     BIT       OV
      000000A1H   SFRSYM    DATA     BYTE      CBSL
      00000080H.5 SFRSYM    DATA     BIT       FSM_RESULT
      00000099H   SFRSYM    DATA     BYTE      SBUF
      00000087H   SFRSYM    DATA     BYTE      PCON
      00000088H.3 SFRSYM    DATA     BIT       MFLT
      00000098H   SFRSYM    DATA     BYTE      SCON
      00000089H   SFRSYM    DATA     BYTE      TMOD
      00000088H   SFRSYM    DATA     BYTE      TCON
      00000088H.1 SFRSYM    DATA     BIT       SINT
      000000E8H   SFRSYM    DATA     BYTE      EPSW
      000000F0H   SFRSYM    DATA     BYTE      B
      000000A2H   SFRSYM    DATA     BYTE      MPTR
      000000E0H   SFRSYM    DATA     BYTE      ACC
      00000088H.5 SFRSYM    DATA     BIT       TF0
      00000088H.7 SFRSYM    DATA     BIT       TF1
      0000008CH   SFRSYM    DATA     BYTE      TH0
      000000B2H   SFRSYM    DATA     BYTE      ISOCON
      0000008DH   SFRSYM    DATA     BYTE      TH1
      000000D8H   SFRSYM    DATA     BYTE      SPSW
      000000D0H   SFRSYM    DATA     BIT       P
      0000008AH   SFRSYM    DATA     BYTE      TL0
      0000008BH   SFRSYM    DATA     BYTE      TL1
      000000C0H   SFRSYM    DATA     BYTE      PROGIO
      000000D0H.3 SFRSYM    DATA     BIT       RS0
      00000088H.4 SFRSYM    DATA     BIT       TR0
      000000D0H.4 SFRSYM    DATA     BIT       RS1
      00000080H.1 SFRSYM    DATA     BIT       FSM_START
      00000088H.6 SFRSYM    DATA     BIT       TR1
      00000083H   SFRSYM    DATA     BYTE      DPH
      000000B4H   SFRSYM    DATA     BYTE      ISOTMR
      00000082H   SFRSYM    DATA     BYTE      DPL
      000000B0H   SFRSYM    DATA     BYTE      SECURITYSTATUS
      00000086H   SFRSYM    DATA     BYTE      DPS
      00000093H   SFRSYM    DATA     BYTE      DPX
      00000080H   SFRSYM    DATA     BYTE      NVFSMCON
      000000F7H   SFRSYM    DATA     BYTE      MFCON
      000000C9H   SFRSYM    DATA     BYTE      NvFsmMode
      000000D0H.5 SFRSYM    DATA     BIT       F0
LX51 LINKER/LOCATER V4.10a                                                            10/17/2007  16:47:04  PAGE 71


      000000E8H.1 SFRSYM    DATA     BIT       F1
      000000D0H   SFRSYM    DATA     BYTE      PSW

      010014E7H   BLOCK     CODE     ---       LVL=0
      010014E7H   LINE      CODE     ---       #61
      010014E7H   LINE      CODE     ---       #62
      010014E7H   LINE      CODE     ---       #63
      010014EEH   LINE      CODE     ---       #64
      010014EEH   LINE      CODE     ---       #66
      010014F5H   LINE      CODE     ---       #69
      0100150AH   LINE      CODE     ---       #72
      0100150FH   LINE      CODE     ---       #73
      0100150FH   LINE      CODE     ---       #74
      01001514H   LINE      CODE     ---       #75
      01001516H   LINE      CODE     ---       #77
      01001516H   LINE      CODE     ---       #78
      01001518H   LINE      CODE     ---       #79
      01001518H   LINE      CODE     ---       #80
      0100151AH   LINE      CODE     ---       #83
      0100151AH   LINE      CODE     ---       #84
      01001521H   LINE      CODE     ---       #85
      01001521H   LINE      CODE     ---       #87
      01001528H   LINE      CODE     ---       #89
      ---         BLOCKEND  ---      ---       LVL=0

      ---         MODULE    ---      ---       GET_FIRMWARE_VERSION
      0100186CH   PUBLIC    CODE     ---       Get_Firmware_Version
      000000D0H.6 SFRSYM    DATA     BIT       AC
      00000080H   SFRSYM    DATA     BIT       FSM_FINISH
      00000083H   SFRSYM    DATA     BYTE      DPH0
      000000E8H   SFRSYM    DATA     BIT       AM
      000000A8H   SFRSYM    DATA     BYTE      IE
      00000085H   SFRSYM    DATA     BYTE      DPH1
      00000082H   SFRSYM    DATA     BYTE      DPL0
      00000084H   SFRSYM    DATA     BYTE      DPL1
      00000088H   SFRSYM    DATA     BIT       SSINT
      000000C0H   SFRSYM    DATA     BIT       PULLUP_RES_STATE
      00000088H.1 SFRSYM    DATA     BIT       USINT
      000000B8H   SFRSYM    DATA     BYTE      IP
      00000098H   SFRSYM    DATA     BIT       RI
      000000D0H.7 SFRSYM    DATA     BIT       CY
      00000098H.1 SFRSYM    DATA     BIT       TI
      000000EAH   SFRSYM    DATA     BYTE      MPTRX
      00000093H   SFRSYM    DATA     BYTE      DPX0
      00000095H   SFRSYM    DATA     BYTE      DPX1
      00000081H   SFRSYM    DATA     BYTE      SP
      000000D0H.2 SFRSYM    DATA     BIT       OV
      000000A1H   SFRSYM    DATA     BYTE      CBSL
      00000080H.5 SFRSYM    DATA     BIT       FSM_RESULT
      00000099H   SFRSYM    DATA     BYTE      SBUF
      00000087H   SFRSYM    DATA     BYTE      PCON
      00000088H.3 SFRSYM    DATA     BIT       MFLT
      00000098H   SFRSYM    DATA     BYTE      SCON
      00000089H   SFRSYM    DATA     BYTE      TMOD
      00000088H   SFRSYM    DATA     BYTE      TCON
      00000088H.1 SFRSYM    DATA     BIT       SINT
      000000E8H   SFRSYM    DATA     BYTE      EPSW
      000000F0H   SFRSYM    DATA     BYTE      B
      000000A2H   SFRSYM    DATA     BYTE      MPTR
      000000E0H   SFRSYM    DATA     BYTE      ACC
      00000088H.5 SFRSYM    DATA     BIT       TF0
      00000088H.7 SFRSYM    DATA     BIT       TF1
      0000008CH   SFRSYM    DATA     BYTE      TH0
      000000B2H   SFRSYM    DATA     BYTE      ISOCON
      0000008DH   SFRSYM    DATA     BYTE      TH1
LX51 LINKER/LOCATER V4.10a                                                            10/17/2007  16:47:04  PAGE 72


      000000D8H   SFRSYM    DATA     BYTE      SPSW
      000000D0H   SFRSYM    DATA     BIT       P
      0000008AH   SFRSYM    DATA     BYTE      TL0
      0000008BH   SFRSYM    DATA     BYTE      TL1
      000000C0H   SFRSYM    DATA     BYTE      PROGIO
      000000D0H.3 SFRSYM    DATA     BIT       RS0
      00000088H.4 SFRSYM    DATA     BIT       TR0
      000000D0H.4 SFRSYM    DATA     BIT       RS1
      00000080H.1 SFRSYM    DATA     BIT       FSM_START
      00000088H.6 SFRSYM    DATA     BIT       TR1
      00000083H   SFRSYM    DATA     BYTE      DPH
      000000B4H   SFRSYM    DATA     BYTE      ISOTMR
      00000082H   SFRSYM    DATA     BYTE      DPL
      000000B0H   SFRSYM    DATA     BYTE      SECURITYSTATUS
      00000086H   SFRSYM    DATA     BYTE      DPS
      00000093H   SFRSYM    DATA     BYTE      DPX
      00000080H   SFRSYM    DATA     BYTE      NVFSMCON
      000000F7H   SFRSYM    DATA     BYTE      MFCON
      000000C9H   SFRSYM    DATA     BYTE      NvFsmMode
      000000D0H.5 SFRSYM    DATA     BIT       F0
      000000E8H.1 SFRSYM    DATA     BIT       F1
      000000D0H   SFRSYM    DATA     BYTE      PSW

      0100186CH   BLOCK     CODE     ---       LVL=0
      0100186CH   LINE      CODE     ---       #58
      0100186CH   LINE      CODE     ---       #59
      0100186CH   LINE      CODE     ---       #60
      01001872H   LINE      CODE     ---       #61
      01001872H   LINE      CODE     ---       #63
      01001878H   LINE      CODE     ---       #65
      0100187CH   LINE      CODE     ---       #66
      0100187EH   LINE      CODE     ---       #69
      0100187EH   LINE      CODE     ---       #70
      01001885H   LINE      CODE     ---       #71
      01001885H   LINE      CODE     ---       #73
      0100188CH   LINE      CODE     ---       #75
      ---         BLOCKEND  ---      ---       LVL=0

      ---         MODULE    ---      ---       GET_CHIP_ID
      01001568H   PUBLIC    CODE     ---       Get_Chip_ID
      000000D0H.6 SFRSYM    DATA     BIT       AC
      00000080H   SFRSYM    DATA     BIT       FSM_FINISH
      00000083H   SFRSYM    DATA     BYTE      DPH0
      000000E8H   SFRSYM    DATA     BIT       AM
      000000A8H   SFRSYM    DATA     BYTE      IE
      00000085H   SFRSYM    DATA     BYTE      DPH1
      00000082H   SFRSYM    DATA     BYTE      DPL0
      00000084H   SFRSYM    DATA     BYTE      DPL1
      00000088H   SFRSYM    DATA     BIT       SSINT
      000000C0H   SFRSYM    DATA     BIT       PULLUP_RES_STATE
      00000088H.1 SFRSYM    DATA     BIT       USINT
      000000B8H   SFRSYM    DATA     BYTE      IP
      00000098H   SFRSYM    DATA     BIT       RI
      000000D0H.7 SFRSYM    DATA     BIT       CY
      00000098H.1 SFRSYM    DATA     BIT       TI
      000000EAH   SFRSYM    DATA     BYTE      MPTRX
      00000093H   SFRSYM    DATA     BYTE      DPX0
      00000095H   SFRSYM    DATA     BYTE      DPX1
      00000081H   SFRSYM    DATA     BYTE      SP
      000000D0H.2 SFRSYM    DATA     BIT       OV
      000000A1H   SFRSYM    DATA     BYTE      CBSL
      00000080H.5 SFRSYM    DATA     BIT       FSM_RESULT
      00000099H   SFRSYM    DATA     BYTE      SBUF
      00000087H   SFRSYM    DATA     BYTE      PCON
      00000088H.3 SFRSYM    DATA     BIT       MFLT
LX51 LINKER/LOCATER V4.10a                                                            10/17/2007  16:47:04  PAGE 73


      00000098H   SFRSYM    DATA     BYTE      SCON
      00000089H   SFRSYM    DATA     BYTE      TMOD
      00000088H   SFRSYM    DATA     BYTE      TCON
      00000088H.1 SFRSYM    DATA     BIT       SINT
      000000E8H   SFRSYM    DATA     BYTE      EPSW
      000000F0H   SFRSYM    DATA     BYTE      B
      000000A2H   SFRSYM    DATA     BYTE      MPTR
      000000E0H   SFRSYM    DATA     BYTE      ACC
      00000088H.5 SFRSYM    DATA     BIT       TF0
      00000088H.7 SFRSYM    DATA     BIT       TF1
      0000008CH   SFRSYM    DATA     BYTE      TH0
      000000B2H   SFRSYM    DATA     BYTE      ISOCON
      0000008DH   SFRSYM    DATA     BYTE      TH1
      000000D8H   SFRSYM    DATA     BYTE      SPSW
      000000D0H   SFRSYM    DATA     BIT       P
      0000008AH   SFRSYM    DATA     BYTE      TL0
      0000008BH   SFRSYM    DATA     BYTE      TL1
      000000C0H   SFRSYM    DATA     BYTE      PROGIO
      000000D0H.3 SFRSYM    DATA     BIT       RS0
      00000088H.4 SFRSYM    DATA     BIT       TR0
      000000D0H.4 SFRSYM    DATA     BIT       RS1
      00000080H.1 SFRSYM    DATA     BIT       FSM_START
      00000088H.6 SFRSYM    DATA     BIT       TR1
      00000083H   SFRSYM    DATA     BYTE      DPH
      000000B4H   SFRSYM    DATA     BYTE      ISOTMR
      00000082H   SFRSYM    DATA     BYTE      DPL
      000000B0H   SFRSYM    DATA     BYTE      SECURITYSTATUS
      00000086H   SFRSYM    DATA     BYTE      DPS
      00000093H   SFRSYM    DATA     BYTE      DPX
      00000080H   SFRSYM    DATA     BYTE      NVFSMCON
      000000F7H   SFRSYM    DATA     BYTE      MFCON
      000000C9H   SFRSYM    DATA     BYTE      NvFsmMode
      000000D0H.5 SFRSYM    DATA     BIT       F0
      000000E8H.1 SFRSYM    DATA     BIT       F1
      000000D0H   SFRSYM    DATA     BYTE      PSW

      01001568H   BLOCK     CODE     ---       LVL=0
      01001568H   LINE      CODE     ---       #58
      01001568H   LINE      CODE     ---       #59
      01001568H   LINE      CODE     ---       #60
      0100156FH   LINE      CODE     ---       #61
      0100156FH   LINE      CODE     ---       #62
      0100157BH   LINE      CODE     ---       #63
      0100157BH   LINE      CODE     ---       #64
      01001581H   LINE      CODE     ---       #65
      01001586H   LINE      CODE     ---       #67
      0100158BH   LINE      CODE     ---       #69
      01001592H   LINE      CODE     ---       #71
      01001596H   LINE      CODE     ---       #72
      01001598H   LINE      CODE     ---       #75
      01001598H   LINE      CODE     ---       #76
      0100159FH   LINE      CODE     ---       #77
      0100159FH   LINE      CODE     ---       #79
      010015A6H   LINE      CODE     ---       #81
      ---         BLOCKEND  ---      ---       LVL=0

      ---         MODULE    ---      ---       SET_CLOCK
      010012ECH   PUBLIC    CODE     ---       Set_Clock
      000000D0H.6 SFRSYM    DATA     BIT       AC
      00000080H   SFRSYM    DATA     BIT       FSM_FINISH
      00000083H   SFRSYM    DATA     BYTE      DPH0
      000000E8H   SFRSYM    DATA     BIT       AM
      000000A8H   SFRSYM    DATA     BYTE      IE
      00000085H   SFRSYM    DATA     BYTE      DPH1
      00000082H   SFRSYM    DATA     BYTE      DPL0
LX51 LINKER/LOCATER V4.10a                                                            10/17/2007  16:47:04  PAGE 74


      00000084H   SFRSYM    DATA     BYTE      DPL1
      00000088H   SFRSYM    DATA     BIT       SSINT
      000000C0H   SFRSYM    DATA     BIT       PULLUP_RES_STATE
      00000088H.1 SFRSYM    DATA     BIT       USINT
      000000B8H   SFRSYM    DATA     BYTE      IP
      00000098H   SFRSYM    DATA     BIT       RI
      000000D0H.7 SFRSYM    DATA     BIT       CY
      00000098H.1 SFRSYM    DATA     BIT       TI
      000000EAH   SFRSYM    DATA     BYTE      MPTRX
      00000093H   SFRSYM    DATA     BYTE      DPX0
      00000095H   SFRSYM    DATA     BYTE      DPX1
      00000081H   SFRSYM    DATA     BYTE      SP
      000000D0H.2 SFRSYM    DATA     BIT       OV
      000000A1H   SFRSYM    DATA     BYTE      CBSL
      00000080H.5 SFRSYM    DATA     BIT       FSM_RESULT
      00000099H   SFRSYM    DATA     BYTE      SBUF
      00000087H   SFRSYM    DATA     BYTE      PCON
      00000088H.3 SFRSYM    DATA     BIT       MFLT
      00000098H   SFRSYM    DATA     BYTE      SCON
      00000089H   SFRSYM    DATA     BYTE      TMOD
      00000088H   SFRSYM    DATA     BYTE      TCON
      00000088H.1 SFRSYM    DATA     BIT       SINT
      000000E8H   SFRSYM    DATA     BYTE      EPSW
      000000F0H   SFRSYM    DATA     BYTE      B
      000000A2H   SFRSYM    DATA     BYTE      MPTR
      000000E0H   SFRSYM    DATA     BYTE      ACC
      00000088H.5 SFRSYM    DATA     BIT       TF0
      00000088H.7 SFRSYM    DATA     BIT       TF1
      0000008CH   SFRSYM    DATA     BYTE      TH0
      000000B2H   SFRSYM    DATA     BYTE      ISOCON
      0000008DH   SFRSYM    DATA     BYTE      TH1
      000000D8H   SFRSYM    DATA     BYTE      SPSW
      000000D0H   SFRSYM    DATA     BIT       P
      0000008AH   SFRSYM    DATA     BYTE      TL0
      0000008BH   SFRSYM    DATA     BYTE      TL1
      000000C0H   SFRSYM    DATA     BYTE      PROGIO
      000000D0H.3 SFRSYM    DATA     BIT       RS0
      00000088H.4 SFRSYM    DATA     BIT       TR0
      000000D0H.4 SFRSYM    DATA     BIT       RS1
      00000080H.1 SFRSYM    DATA     BIT       FSM_START
      00000088H.6 SFRSYM    DATA     BIT       TR1
      00000083H   SFRSYM    DATA     BYTE      DPH
      000000B4H   SFRSYM    DATA     BYTE      ISOTMR
      00000082H   SFRSYM    DATA     BYTE      DPL
      000000B0H   SFRSYM    DATA     BYTE      SECURITYSTATUS
      00000086H   SFRSYM    DATA     BYTE      DPS
      00000093H   SFRSYM    DATA     BYTE      DPX
      00000080H   SFRSYM    DATA     BYTE      NVFSMCON
      000000F7H   SFRSYM    DATA     BYTE      MFCON
      000000C9H   SFRSYM    DATA     BYTE      NvFsmMode
      000000D0H.5 SFRSYM    DATA     BIT       F0
      000000E8H.1 SFRSYM    DATA     BIT       F1
      000000D0H   SFRSYM    DATA     BYTE      PSW

      010012ECH   BLOCK     CODE     ---       LVL=0
      010012ECH   LINE      CODE     ---       #63
      010012ECH   LINE      CODE     ---       #64
      010012ECH   LINE      CODE     ---       #65
      010012F3H   LINE      CODE     ---       #66
      010012F3H   LINE      CODE     ---       #67
      010012F7H   LINE      CODE     ---       #68
      010012F9H   LINE      CODE     ---       #70
      010012F9H   LINE      CODE     ---       #72
      01001300H   LINE      CODE     ---       #76
      01001317H   LINE      CODE     ---       #77
LX51 LINKER/LOCATER V4.10a                                                            10/17/2007  16:47:04  PAGE 75


      01001317H   LINE      CODE     ---       #78
      0100131EH   LINE      CODE     ---       #79
      01001320H   LINE      CODE     ---       #81
      01001320H   LINE      CODE     ---       #83
      01001327H   LINE      CODE     ---       #85
      0100132BH   LINE      CODE     ---       #86
      0100132BH   LINE      CODE     ---       #87
      0100132DH   LINE      CODE     ---       #88
      0100132FH   LINE      CODE     ---       #90
      0100132FH   LINE      CODE     ---       #91
      01001334H   LINE      CODE     ---       #92
      01001334H   LINE      CODE     ---       #93
      01001334H   LINE      CODE     ---       #94
      01001334H   LINE      CODE     ---       #96
      0100133BH   LINE      CODE     ---       #98
      ---         BLOCKEND  ---      ---       LVL=0

      ---         MODULE    ---      ---       MASS_ERASE_UCM
      010019FDH   PUBLIC    CODE     ---       Mass_Erase_UCM
      000000D0H.6 SFRSYM    DATA     BIT       AC
      00000080H   SFRSYM    DATA     BIT       FSM_FINISH
      00000083H   SFRSYM    DATA     BYTE      DPH0
      000000E8H   SFRSYM    DATA     BIT       AM
      000000A8H   SFRSYM    DATA     BYTE      IE
      00000085H   SFRSYM    DATA     BYTE      DPH1
      00000082H   SFRSYM    DATA     BYTE      DPL0
      00000084H   SFRSYM    DATA     BYTE      DPL1
      00000088H   SFRSYM    DATA     BIT       SSINT
      000000C0H   SFRSYM    DATA     BIT       PULLUP_RES_STATE
      00000088H.1 SFRSYM    DATA     BIT       USINT
      000000B8H   SFRSYM    DATA     BYTE      IP
      00000098H   SFRSYM    DATA     BIT       RI
      000000D0H.7 SFRSYM    DATA     BIT       CY
      00000098H.1 SFRSYM    DATA     BIT       TI
      000000EAH   SFRSYM    DATA     BYTE      MPTRX
      00000093H   SFRSYM    DATA     BYTE      DPX0
      00000095H   SFRSYM    DATA     BYTE      DPX1
      00000081H   SFRSYM    DATA     BYTE      SP
      000000D0H.2 SFRSYM    DATA     BIT       OV
      000000A1H   SFRSYM    DATA     BYTE      CBSL
      00000080H.5 SFRSYM    DATA     BIT       FSM_RESULT
      00000099H   SFRSYM    DATA     BYTE      SBUF
      00000087H   SFRSYM    DATA     BYTE      PCON
      00000088H.3 SFRSYM    DATA     BIT       MFLT
      00000098H   SFRSYM    DATA     BYTE      SCON
      00000089H   SFRSYM    DATA     BYTE      TMOD
      00000088H   SFRSYM    DATA     BYTE      TCON
      00000088H.1 SFRSYM    DATA     BIT       SINT
      000000E8H   SFRSYM    DATA     BYTE      EPSW
      000000F0H   SFRSYM    DATA     BYTE      B
      000000A2H   SFRSYM    DATA     BYTE      MPTR
      000000E0H   SFRSYM    DATA     BYTE      ACC
      00000088H.5 SFRSYM    DATA     BIT       TF0
      00000088H.7 SFRSYM    DATA     BIT       TF1
      0000008CH   SFRSYM    DATA     BYTE      TH0
      000000B2H   SFRSYM    DATA     BYTE      ISOCON
      0000008DH   SFRSYM    DATA     BYTE      TH1
      000000D8H   SFRSYM    DATA     BYTE      SPSW
      000000D0H   SFRSYM    DATA     BIT       P
      0000008AH   SFRSYM    DATA     BYTE      TL0
      0000008BH   SFRSYM    DATA     BYTE      TL1
      000000C0H   SFRSYM    DATA     BYTE      PROGIO
      000000D0H.3 SFRSYM    DATA     BIT       RS0
      00000088H.4 SFRSYM    DATA     BIT       TR0
      000000D0H.4 SFRSYM    DATA     BIT       RS1
LX51 LINKER/LOCATER V4.10a                                                            10/17/2007  16:47:04  PAGE 76


      00000080H.1 SFRSYM    DATA     BIT       FSM_START
      00000088H.6 SFRSYM    DATA     BIT       TR1
      00000083H   SFRSYM    DATA     BYTE      DPH
      000000B4H   SFRSYM    DATA     BYTE      ISOTMR
      00000082H   SFRSYM    DATA     BYTE      DPL
      000000B0H   SFRSYM    DATA     BYTE      SECURITYSTATUS
      00000086H   SFRSYM    DATA     BYTE      DPS
      00000093H   SFRSYM    DATA     BYTE      DPX
      00000080H   SFRSYM    DATA     BYTE      NVFSMCON
      000000F7H   SFRSYM    DATA     BYTE      MFCON
      000000C9H   SFRSYM    DATA     BYTE      NvFsmMode
      000000D0H.5 SFRSYM    DATA     BIT       F0
      000000E8H.1 SFRSYM    DATA     BIT       F1
      000000D0H   SFRSYM    DATA     BYTE      PSW

      010019FDH   BLOCK     CODE     ---       LVL=0
      010019FDH   LINE      CODE     ---       #57
      010019FDH   LINE      CODE     ---       #58
      010019FDH   LINE      CODE     ---       #59
      01001A00H   LINE      CODE     ---       #61
      01001A04H   LINE      CODE     ---       #63
      ---         BLOCKEND  ---      ---       LVL=0

      ---         MODULE    ---      ---       ERASE_UCM_BLOCKS__R6R7_PASSING
      01001989H   PUBLIC    CODE     ---       Erase_UCM_Blocks__R6R7_Passing
      000000D0H.6 SFRSYM    DATA     BIT       AC
      00000080H   SFRSYM    DATA     BIT       FSM_FINISH
      00000083H   SFRSYM    DATA     BYTE      DPH0
      000000E8H   SFRSYM    DATA     BIT       AM
      000000A8H   SFRSYM    DATA     BYTE      IE
      00000085H   SFRSYM    DATA     BYTE      DPH1
      00000082H   SFRSYM    DATA     BYTE      DPL0
      00000084H   SFRSYM    DATA     BYTE      DPL1
      00000088H   SFRSYM    DATA     BIT       SSINT
      000000C0H   SFRSYM    DATA     BIT       PULLUP_RES_STATE
      00000088H.1 SFRSYM    DATA     BIT       USINT
      000000B8H   SFRSYM    DATA     BYTE      IP
      00000098H   SFRSYM    DATA     BIT       RI
      000000D0H.7 SFRSYM    DATA     BIT       CY
      00000098H.1 SFRSYM    DATA     BIT       TI
      000000EAH   SFRSYM    DATA     BYTE      MPTRX
      00000093H   SFRSYM    DATA     BYTE      DPX0
      00000095H   SFRSYM    DATA     BYTE      DPX1
      00000081H   SFRSYM    DATA     BYTE      SP
      000000D0H.2 SFRSYM    DATA     BIT       OV
      000000A1H   SFRSYM    DATA     BYTE      CBSL
      00000080H.5 SFRSYM    DATA     BIT       FSM_RESULT
      00000099H   SFRSYM    DATA     BYTE      SBUF
      00000087H   SFRSYM    DATA     BYTE      PCON
      00000088H.3 SFRSYM    DATA     BIT       MFLT
      00000098H   SFRSYM    DATA     BYTE      SCON
      00000089H   SFRSYM    DATA     BYTE      TMOD
      00000088H   SFRSYM    DATA     BYTE      TCON
      00000088H.1 SFRSYM    DATA     BIT       SINT
      000000E8H   SFRSYM    DATA     BYTE      EPSW
      000000F0H   SFRSYM    DATA     BYTE      B
      000000A2H   SFRSYM    DATA     BYTE      MPTR
      000000E0H   SFRSYM    DATA     BYTE      ACC
      00000088H.5 SFRSYM    DATA     BIT       TF0
      00000088H.7 SFRSYM    DATA     BIT       TF1
      0000008CH   SFRSYM    DATA     BYTE      TH0
      000000B2H   SFRSYM    DATA     BYTE      ISOCON
      0000008DH   SFRSYM    DATA     BYTE      TH1
      000000D8H   SFRSYM    DATA     BYTE      SPSW
      000000D0H   SFRSYM    DATA     BIT       P
LX51 LINKER/LOCATER V4.10a                                                            10/17/2007  16:47:04  PAGE 77


      0000008AH   SFRSYM    DATA     BYTE      TL0
      0000008BH   SFRSYM    DATA     BYTE      TL1
      000000C0H   SFRSYM    DATA     BYTE      PROGIO
      000000D0H.3 SFRSYM    DATA     BIT       RS0
      00000088H.4 SFRSYM    DATA     BIT       TR0
      000000D0H.4 SFRSYM    DATA     BIT       RS1
      00000080H.1 SFRSYM    DATA     BIT       FSM_START
      00000088H.6 SFRSYM    DATA     BIT       TR1
      00000083H   SFRSYM    DATA     BYTE      DPH
      000000B4H   SFRSYM    DATA     BYTE      ISOTMR
      00000082H   SFRSYM    DATA     BYTE      DPL
      000000B0H   SFRSYM    DATA     BYTE      SECURITYSTATUS
      00000086H   SFRSYM    DATA     BYTE      DPS
      00000093H   SFRSYM    DATA     BYTE      DPX
      00000080H   SFRSYM    DATA     BYTE      NVFSMCON
      000000F7H   SFRSYM    DATA     BYTE      MFCON
      000000C9H   SFRSYM    DATA     BYTE      NvFsmMode
      000000D0H.5 SFRSYM    DATA     BIT       F0
      000000E8H.1 SFRSYM    DATA     BIT       F1
      000000D0H   SFRSYM    DATA     BYTE      PSW

      01001989H   BLOCK     CODE     ---       LVL=0
      01001989H   LINE      CODE     ---       #58
      01001989H   LINE      CODE     ---       #59
      01001989H   LINE      CODE     ---       #61
      01001996H   LINE      CODE     ---       #67
      0100199AH   LINE      CODE     ---       #69
      ---         BLOCKEND  ---      ---       LVL=0

      ---         MODULE    ---      ---       GET_DIAGNOSTIC_DATA
      010015A7H   PUBLIC    CODE     ---       Get_Diagnostic_Data
      000000D0H.6 SFRSYM    DATA     BIT       AC
      00000080H   SFRSYM    DATA     BIT       FSM_FINISH
      00000083H   SFRSYM    DATA     BYTE      DPH0
      000000E8H   SFRSYM    DATA     BIT       AM
      000000A8H   SFRSYM    DATA     BYTE      IE
      00000085H   SFRSYM    DATA     BYTE      DPH1
      00000082H   SFRSYM    DATA     BYTE      DPL0
      00000084H   SFRSYM    DATA     BYTE      DPL1
      00000088H   SFRSYM    DATA     BIT       SSINT
      000000C0H   SFRSYM    DATA     BIT       PULLUP_RES_STATE
      00000088H.1 SFRSYM    DATA     BIT       USINT
      000000B8H   SFRSYM    DATA     BYTE      IP
      00000098H   SFRSYM    DATA     BIT       RI
      000000D0H.7 SFRSYM    DATA     BIT       CY
      00000098H.1 SFRSYM    DATA     BIT       TI
      000000EAH   SFRSYM    DATA     BYTE      MPTRX
      00000093H   SFRSYM    DATA     BYTE      DPX0
      00000095H   SFRSYM    DATA     BYTE      DPX1
      00000081H   SFRSYM    DATA     BYTE      SP
      000000D0H.2 SFRSYM    DATA     BIT       OV
      000000A1H   SFRSYM    DATA     BYTE      CBSL
      00000080H.5 SFRSYM    DATA     BIT       FSM_RESULT
      00000099H   SFRSYM    DATA     BYTE      SBUF
      00000087H   SFRSYM    DATA     BYTE      PCON
      00000088H.3 SFRSYM    DATA     BIT       MFLT
      00000098H   SFRSYM    DATA     BYTE      SCON
      00000089H   SFRSYM    DATA     BYTE      TMOD
      00000088H   SFRSYM    DATA     BYTE      TCON
      00000088H.1 SFRSYM    DATA     BIT       SINT
      000000E8H   SFRSYM    DATA     BYTE      EPSW
      000000F0H   SFRSYM    DATA     BYTE      B
      000000A2H   SFRSYM    DATA     BYTE      MPTR
      000000E0H   SFRSYM    DATA     BYTE      ACC
      00000088H.5 SFRSYM    DATA     BIT       TF0
LX51 LINKER/LOCATER V4.10a                                                            10/17/2007  16:47:04  PAGE 78


      00000088H.7 SFRSYM    DATA     BIT       TF1
      0000008CH   SFRSYM    DATA     BYTE      TH0
      000000B2H   SFRSYM    DATA     BYTE      ISOCON
      0000008DH   SFRSYM    DATA     BYTE      TH1
      000000D8H   SFRSYM    DATA     BYTE      SPSW
      000000D0H   SFRSYM    DATA     BIT       P
      0000008AH   SFRSYM    DATA     BYTE      TL0
      0000008BH   SFRSYM    DATA     BYTE      TL1
      000000C0H   SFRSYM    DATA     BYTE      PROGIO
      000000D0H.3 SFRSYM    DATA     BIT       RS0
      00000088H.4 SFRSYM    DATA     BIT       TR0
      000000D0H.4 SFRSYM    DATA     BIT       RS1
      00000080H.1 SFRSYM    DATA     BIT       FSM_START
      00000088H.6 SFRSYM    DATA     BIT       TR1
      00000083H   SFRSYM    DATA     BYTE      DPH
      000000B4H   SFRSYM    DATA     BYTE      ISOTMR
      00000082H   SFRSYM    DATA     BYTE      DPL
      000000B0H   SFRSYM    DATA     BYTE      SECURITYSTATUS
      00000086H   SFRSYM    DATA     BYTE      DPS
      00000093H   SFRSYM    DATA     BYTE      DPX
      00000080H   SFRSYM    DATA     BYTE      NVFSMCON
      000000F7H   SFRSYM    DATA     BYTE      MFCON
      000000C9H   SFRSYM    DATA     BYTE      NvFsmMode
      000000D0H.5 SFRSYM    DATA     BIT       F0
      000000E8H.1 SFRSYM    DATA     BIT       F1
      000000D0H   SFRSYM    DATA     BYTE      PSW

      010015A7H   BLOCK     CODE     ---       LVL=0
      010015A7H   LINE      CODE     ---       #59
      010015A7H   LINE      CODE     ---       #60
      010015A7H   LINE      CODE     ---       #61
      010015AEH   LINE      CODE     ---       #62
      010015AEH   LINE      CODE     ---       #63
      010015BAH   LINE      CODE     ---       #64
      010015BAH   LINE      CODE     ---       #65
      010015C0H   LINE      CODE     ---       #66
      010015C5H   LINE      CODE     ---       #68
      010015CAH   LINE      CODE     ---       #70
      010015D1H   LINE      CODE     ---       #72
      010015D5H   LINE      CODE     ---       #73
      010015D7H   LINE      CODE     ---       #75
      010015D7H   LINE      CODE     ---       #76
      010015DEH   LINE      CODE     ---       #77
      010015DEH   LINE      CODE     ---       #79
      010015E5H   LINE      CODE     ---       #81
      ---         BLOCKEND  ---      ---       LVL=0

      ---         MODULE    ---      ---       ERASE_256_UCM
      010016ADH   PUBLIC    CODE     ---       Erase_256_UCM
      000000D0H.6 SFRSYM    DATA     BIT       AC
      00000080H   SFRSYM    DATA     BIT       FSM_FINISH
      00000083H   SFRSYM    DATA     BYTE      DPH0
      000000E8H   SFRSYM    DATA     BIT       AM
      000000A8H   SFRSYM    DATA     BYTE      IE
      00000085H   SFRSYM    DATA     BYTE      DPH1
      00000082H   SFRSYM    DATA     BYTE      DPL0
      00000084H   SFRSYM    DATA     BYTE      DPL1
      00000088H   SFRSYM    DATA     BIT       SSINT
      000000C0H   SFRSYM    DATA     BIT       PULLUP_RES_STATE
      00000088H.1 SFRSYM    DATA     BIT       USINT
      000000B8H   SFRSYM    DATA     BYTE      IP
      00000098H   SFRSYM    DATA     BIT       RI
      000000D0H.7 SFRSYM    DATA     BIT       CY
      00000098H.1 SFRSYM    DATA     BIT       TI
      000000EAH   SFRSYM    DATA     BYTE      MPTRX
LX51 LINKER/LOCATER V4.10a                                                            10/17/2007  16:47:04  PAGE 79


      00000093H   SFRSYM    DATA     BYTE      DPX0
      00000095H   SFRSYM    DATA     BYTE      DPX1
      00000081H   SFRSYM    DATA     BYTE      SP
      000000D0H.2 SFRSYM    DATA     BIT       OV
      000000A1H   SFRSYM    DATA     BYTE      CBSL
      00000080H.5 SFRSYM    DATA     BIT       FSM_RESULT
      00000099H   SFRSYM    DATA     BYTE      SBUF
      00000087H   SFRSYM    DATA     BYTE      PCON
      00000088H.3 SFRSYM    DATA     BIT       MFLT
      00000098H   SFRSYM    DATA     BYTE      SCON
      00000089H   SFRSYM    DATA     BYTE      TMOD
      00000088H   SFRSYM    DATA     BYTE      TCON
      00000088H.1 SFRSYM    DATA     BIT       SINT
      000000E8H   SFRSYM    DATA     BYTE      EPSW
      000000F0H   SFRSYM    DATA     BYTE      B
      000000A2H   SFRSYM    DATA     BYTE      MPTR
      000000E0H   SFRSYM    DATA     BYTE      ACC
      00000088H.5 SFRSYM    DATA     BIT       TF0
      00000088H.7 SFRSYM    DATA     BIT       TF1
      0000008CH   SFRSYM    DATA     BYTE      TH0
      000000B2H   SFRSYM    DATA     BYTE      ISOCON
      0000008DH   SFRSYM    DATA     BYTE      TH1
      000000D8H   SFRSYM    DATA     BYTE      SPSW
      000000D0H   SFRSYM    DATA     BIT       P
      0000008AH   SFRSYM    DATA     BYTE      TL0
      0000008BH   SFRSYM    DATA     BYTE      TL1
      000000C0H   SFRSYM    DATA     BYTE      PROGIO
      000000D0H.3 SFRSYM    DATA     BIT       RS0
      00000088H.4 SFRSYM    DATA     BIT       TR0
      000000D0H.4 SFRSYM    DATA     BIT       RS1
      00000080H.1 SFRSYM    DATA     BIT       FSM_START
      00000088H.6 SFRSYM    DATA     BIT       TR1
      00000083H   SFRSYM    DATA     BYTE      DPH
      000000B4H   SFRSYM    DATA     BYTE      ISOTMR
      00000082H   SFRSYM    DATA     BYTE      DPL
      000000B0H   SFRSYM    DATA     BYTE      SECURITYSTATUS
      00000086H   SFRSYM    DATA     BYTE      DPS
      00000093H   SFRSYM    DATA     BYTE      DPX
      00000080H   SFRSYM    DATA     BYTE      NVFSMCON
      000000F7H   SFRSYM    DATA     BYTE      MFCON
      000000C9H   SFRSYM    DATA     BYTE      NvFsmMode
      000000D0H.5 SFRSYM    DATA     BIT       F0
      000000E8H.1 SFRSYM    DATA     BIT       F1
      000000D0H   SFRSYM    DATA     BYTE      PSW

      010016ADH   BLOCK     CODE     ---       LVL=0
      010016ADH   LINE      CODE     ---       #58
      010016ADH   LINE      CODE     ---       #59
      010016ADH   LINE      CODE     ---       #61
      010016BEH   LINE      CODE     ---       #64
      010016C3H   LINE      CODE     ---       #65
      010016C3H   LINE      CODE     ---       #66
      010016C8H   LINE      CODE     ---       #67
      010016CAH   LINE      CODE     ---       #69
      010016CAH   LINE      CODE     ---       #70
      010016CFH   LINE      CODE     ---       #71
      010016CFH   LINE      CODE     ---       #73
      010016D6H   LINE      CODE     ---       #75
      ---         BLOCKEND  ---      ---       LVL=0

      ---         MODULE    ---      ---       ERASE_512_UCM
      010016D7H   PUBLIC    CODE     ---       Erase_512_UCM
      000000D0H.6 SFRSYM    DATA     BIT       AC
      00000080H   SFRSYM    DATA     BIT       FSM_FINISH
      00000083H   SFRSYM    DATA     BYTE      DPH0
LX51 LINKER/LOCATER V4.10a                                                            10/17/2007  16:47:04  PAGE 80


      000000E8H   SFRSYM    DATA     BIT       AM
      000000A8H   SFRSYM    DATA     BYTE      IE
      00000085H   SFRSYM    DATA     BYTE      DPH1
      00000082H   SFRSYM    DATA     BYTE      DPL0
      00000084H   SFRSYM    DATA     BYTE      DPL1
      00000088H   SFRSYM    DATA     BIT       SSINT
      000000C0H   SFRSYM    DATA     BIT       PULLUP_RES_STATE
      00000088H.1 SFRSYM    DATA     BIT       USINT
      000000B8H   SFRSYM    DATA     BYTE      IP
      00000098H   SFRSYM    DATA     BIT       RI
      000000D0H.7 SFRSYM    DATA     BIT       CY
      00000098H.1 SFRSYM    DATA     BIT       TI
      000000EAH   SFRSYM    DATA     BYTE      MPTRX
      00000093H   SFRSYM    DATA     BYTE      DPX0
      00000095H   SFRSYM    DATA     BYTE      DPX1
      00000081H   SFRSYM    DATA     BYTE      SP
      000000D0H.2 SFRSYM    DATA     BIT       OV
      000000A1H   SFRSYM    DATA     BYTE      CBSL
      00000080H.5 SFRSYM    DATA     BIT       FSM_RESULT
      00000099H   SFRSYM    DATA     BYTE      SBUF
      00000087H   SFRSYM    DATA     BYTE      PCON
      00000088H.3 SFRSYM    DATA     BIT       MFLT
      00000098H   SFRSYM    DATA     BYTE      SCON
      00000089H   SFRSYM    DATA     BYTE      TMOD
      00000088H   SFRSYM    DATA     BYTE      TCON
      00000088H.1 SFRSYM    DATA     BIT       SINT
      000000E8H   SFRSYM    DATA     BYTE      EPSW
      000000F0H   SFRSYM    DATA     BYTE      B
      000000A2H   SFRSYM    DATA     BYTE      MPTR
      000000E0H   SFRSYM    DATA     BYTE      ACC
      00000088H.5 SFRSYM    DATA     BIT       TF0
      00000088H.7 SFRSYM    DATA     BIT       TF1
      0000008CH   SFRSYM    DATA     BYTE      TH0
      000000B2H   SFRSYM    DATA     BYTE      ISOCON
      0000008DH   SFRSYM    DATA     BYTE      TH1
      000000D8H   SFRSYM    DATA     BYTE      SPSW
      000000D0H   SFRSYM    DATA     BIT       P
      0000008AH   SFRSYM    DATA     BYTE      TL0
      0000008BH   SFRSYM    DATA     BYTE      TL1
      000000C0H   SFRSYM    DATA     BYTE      PROGIO
      000000D0H.3 SFRSYM    DATA     BIT       RS0
      00000088H.4 SFRSYM    DATA     BIT       TR0
      000000D0H.4 SFRSYM    DATA     BIT       RS1
      00000080H.1 SFRSYM    DATA     BIT       FSM_START
      00000088H.6 SFRSYM    DATA     BIT       TR1
      00000083H   SFRSYM    DATA     BYTE      DPH
      000000B4H   SFRSYM    DATA     BYTE      ISOTMR
      00000082H   SFRSYM    DATA     BYTE      DPL
      000000B0H   SFRSYM    DATA     BYTE      SECURITYSTATUS
      00000086H   SFRSYM    DATA     BYTE      DPS
      00000093H   SFRSYM    DATA     BYTE      DPX
      00000080H   SFRSYM    DATA     BYTE      NVFSMCON
      000000F7H   SFRSYM    DATA     BYTE      MFCON
      000000C9H   SFRSYM    DATA     BYTE      NvFsmMode
      000000D0H.5 SFRSYM    DATA     BIT       F0
      000000E8H.1 SFRSYM    DATA     BIT       F1
      000000D0H   SFRSYM    DATA     BYTE      PSW

      010016D7H   BLOCK     CODE     ---       LVL=0
      010016D7H   LINE      CODE     ---       #58
      010016D7H   LINE      CODE     ---       #59
      010016D7H   LINE      CODE     ---       #61
      010016E8H   LINE      CODE     ---       #64
      010016EDH   LINE      CODE     ---       #65
      010016EDH   LINE      CODE     ---       #66
LX51 LINKER/LOCATER V4.10a                                                            10/17/2007  16:47:04  PAGE 81


      010016F2H   LINE      CODE     ---       #67
      010016F4H   LINE      CODE     ---       #69
      010016F4H   LINE      CODE     ---       #70
      010016F9H   LINE      CODE     ---       #71
      010016F9H   LINE      CODE     ---       #73
      01001700H   LINE      CODE     ---       #75
      ---         BLOCKEND  ---      ---       LVL=0

      ---         MODULE    ---      ---       ?C_INIT
      0100104EH   PUBLIC    CODE     ---       ?C_START

      ---         MODULE    ---      ---       ?C?CLDPTR
      01000E08H   PUBLIC    CODE     ---       ?C?CLDPTR

      ---         MODULE    ---      ---       ?C?UIDIV
      01000E21H   PUBLIC    CODE     ---       ?C?UIDIV

      ---         MODULE    ---      ---       ?C?LADD
      01000E76H   PUBLIC    CODE     ---       ?C?LADD

      ---         MODULE    ---      ---       ?C?LOR
      01000E83H   PUBLIC    CODE     ---       ?C?LOR

      ---         MODULE    ---      ---       ?C?LXOR
      01000E90H   PUBLIC    CODE     ---       ?C?LXOR

      ---         MODULE    ---      ---       ?C?LNOT
      01000E9DH   PUBLIC    CODE     ---       ?C?LNOT

      ---         MODULE    ---      ---       ?C?ULCMP
      01000EAAH   PUBLIC    CODE     ---       ?C?ULCMP

      ---         MODULE    ---      ---       ?C?ULSHR
      01000EBBH   PUBLIC    CODE     ---       ?C?ULSHR

      ---         MODULE    ---      ---       ?C?LSHL
      01000ECEH   PUBLIC    CODE     ---       ?C?LSHL

      ---         MODULE    ---      ---       ?C?LLDIDATA
      01000EE1H   PUBLIC    CODE     ---       ?C?LLDIDATA

      ---         MODULE    ---      ---       ?C?LLDIDATA0
      01000EEDH   PUBLIC    CODE     ---       ?C?LLDIDATA0

      ---         MODULE    ---      ---       ?C?LSTIDATA
      01000EFAH   PUBLIC    CODE     ---       ?C?LSTIDATA

      ---         MODULE    ---      ---       ?C?LSTKIDATA
      01000F06H   PUBLIC    CODE     ---       ?C?LSTKIDATA

      ---         MODULE    ---      ---       ?C?PLDIIDATA
      01000F1FH   PUBLIC    CODE     ---       ?C?PLDIIDATA

      ---         MODULE    ---      ---       ?C?CCASE
      01000F2FH   PUBLIC    CODE     ---       ?C?CCASE

      ---         MODULE    ---      ---       ?C?ICALL
      01000F55H   PUBLIC    CODE     ---       ?C?ICALL
      01000F59H   PUBLIC    CODE     ---       ?C?ICALL2

Program Size: data=180.1 xdata=64 const=768 code=5680
LX51 RUN COMPLETE.  0 WARNING(S),  0 ERROR(S)
