LX51 LINKER/LOCATER V4.10a                                                              10/17/2007  16:48:09  PAGE 1


LX51 LINKER/LOCATER V4.10a, INVOKED BY:
C:\KEIL3\C51\BIN\LX51.EXE TT240_Get_OS_Version.obj, TT240_Send_ATR.obj, TT240_STARTUP.obj, TT240_ISR.obj, TT240_Mass_Era
>> se_UCM_Leaving_Bootloader.obj, TT240_API_JumpTable.obj, TT240_SRAM_Clear.obj, .\Chip_Init.obj, .\Get_Interrupt_Enable
>> .obj, .\Set_Interrupt_Enable.obj, .\Get_Pullup_Resistor.obj, .\Set_Pullup_Resistor.obj, .\Use_Emulator_API.obj, .\Glo
>> bal_Vars.obj, .\IO.obj, .\Main.obj, .\SHA-1.obj, .\Set_Idle_Mode.obj, .\ISO_Select_Speed.obj, .\Change_ISO_Speed.obj,
>>  .\Set_Security_Status.obj, .\Get_Security_Status.obj, .\Get_Response.obj, .\Timer0_Functions.obj, .\Timer1_Functions
>> .obj, .\Write_UCM_Bytes_From_IRAM_Buffer_Extended_Addressing.obj, .\Get_TCON.obj, .\CRC16_Normal.obj, .\CODE_Memory_D
>> ump_Extended_Addressing.obj, .\XDATA_Memory_Dump_Extended_Addressing.obj, .\IDATA_Memory_Dump.obj, .\Conv_Two_Bytes_T
>> o_Int.obj, .\Write_To_IRAM.obj, .\Write_To_XRAM_Extended_Addressing.obj, .\Software_APIs_Extended_Addressing.obj, .\G
>> et_Chip_ID.obj, .\Get_Clock_Source.obj, .\Get_Diagnostic_Data.obj, .\Set_Security_Mask.obj, .\Get_Clock_Control.obj, 
>> .\Set_Security_Action.obj, .\Get_Firmware_Version.obj, .\Load_DPX.obj, .\Set_Clock.obj, .\Erase_256_UCM_Extended_Addr
>> essing.obj, .\Erase_512_UCM_Extended_Addressing.obj, .\Write_Byte_UCM_Extended_Addressing.obj, .\Get_Random_Number.ob
>> j, .\Set_Execute_Only_Status.obj, .\Set_Protection_Status.obj, .\Erase_UCM_Blocks__R6R7_Passing.obj, .\Mass_Erase_UCM
>> .obj, INIT.obj TO Generic_TT240_Example_C_Code CLASSES (XDATA (X:0X3D000-X:0X3E000), HDATA (X:0X3D000-X:0X3E000), COD
>> E (C:0X800-C:0XFFFF), CONST (C:0X800-C:0XFFFF), ECODE (C:0X800-C:0X3BDFF), HCONST (C:0X800-C:0X3BDFF), CONST (C:0X800
>> -C:0XFFFF))


CPU MODE:     DALLAS CONTIGIOUS MODE
MEMORY MODEL: SMALL


INPUT MODULES INCLUDED:
  TT240_Get_OS_Version.obj (TT240_GET_OS_VERSION)
         COMMENT TYPE 0: C51 V8.06
  TT240_Send_ATR.obj (TT240_SEND_ATR)
         COMMENT TYPE 0: C51 V8.06
  TT240_STARTUP.obj (?C_STARTUP)
         COMMENT TYPE 0: AX51 V3.02
  TT240_ISR.obj (TT240_ISR)
         COMMENT TYPE 0: C51 V8.06
  TT240_Mass_Erase_UCM_Leaving_Bootloader.obj (TT240_MASS_ERASE_UCM_LEAVING_BOOTLOADER)
         COMMENT TYPE 0: AX51 V3.02
  TT240_API_JumpTable.obj (TT240_API_JUMPTABLE)
         COMMENT TYPE 0: AX51 V3.02
  TT240_SRAM_Clear.obj (TT240_SRAM_CLEAR)
         COMMENT TYPE 0: C51 V8.06
  .\Chip_Init.obj (CHIP_INIT)
         COMMENT TYPE 0: C51 V8.06
  .\Get_Interrupt_Enable.obj (GET_INTERRUPT_ENABLE)
         COMMENT TYPE 0: C51 V8.06
  .\Set_Interrupt_Enable.obj (SET_INTERRUPT_ENABLE)
         COMMENT TYPE 0: C51 V8.06
  .\Get_Pullup_Resistor.obj (GET_PULLUP_RESISTOR)
         COMMENT TYPE 0: C51 V8.06
  .\Set_Pullup_Resistor.obj (SET_PULLUP_RESISTOR)
         COMMENT TYPE 0: C51 V8.06
  .\Use_Emulator_API.obj (USE_EMULATOR_API)
         COMMENT TYPE 0: C51 V8.06
  .\Global_Vars.obj (GLOBAL_VARS)
         COMMENT TYPE 0: C51 V8.06
  .\IO.obj (IO)
         COMMENT TYPE 0: C51 V8.06
  .\Main.obj (MAIN)
         COMMENT TYPE 0: C51 V8.06
  .\SHA-1.obj (SHA_1)
         COMMENT TYPE 0: C51 V8.06
  .\Set_Idle_Mode.obj (SET_IDLE_MODE)
         COMMENT TYPE 0: C51 V8.06
  .\ISO_Select_Speed.obj (ISO_SELECT_SPEED)
         COMMENT TYPE 0: C51 V8.06
  .\Change_ISO_Speed.obj (CHANGE_ISO_SPEED)
         COMMENT TYPE 0: C51 V8.06
  .\Set_Security_Status.obj (SET_SECURITY_STATUS)
         COMMENT TYPE 0: C51 V8.06
  .\Get_Security_Status.obj (GET_SECURITY_STATUS)
LX51 LINKER/LOCATER V4.10a                                                            10/17/2007  16:48:09  PAGE 2


         COMMENT TYPE 0: C51 V8.06
  .\Get_Response.obj (GET_RESPONSE)
         COMMENT TYPE 0: C51 V8.06
  .\Timer0_Functions.obj (TIMER0_FUNCTIONS)
         COMMENT TYPE 0: C51 V8.06
  .\Timer1_Functions.obj (TIMER1_FUNCTIONS)
         COMMENT TYPE 0: C51 V8.06
  .\Write_UCM_Bytes_From_IRAM_Buffer_Extended_Addressing.obj (WRITE_UCM_BYTES_FROM_IRAM_BUFFER_EXTENDED)
         COMMENT TYPE 0: C51 V8.06
  .\Get_TCON.obj (GET_TCON)
         COMMENT TYPE 0: C51 V8.06
  .\CRC16_Normal.obj (CRC16_NORMAL)
         COMMENT TYPE 0: C51 V8.06
  .\CODE_Memory_Dump_Extended_Addressing.obj (CODE_MEMORY_DUMP_EXTENDED_ADDRESSING)
         COMMENT TYPE 0: C51 V8.06
  .\XDATA_Memory_Dump_Extended_Addressing.obj (XDATA_MEMORY_DUMP_EXTENDED_ADDRESSING)
         COMMENT TYPE 0: C51 V8.06
  .\IDATA_Memory_Dump.obj (IDATA_MEMORY_DUMP)
         COMMENT TYPE 0: C51 V8.06
  .\Conv_Two_Bytes_To_Int.obj (CONV_TWO_BYTES_TO_INT)
         COMMENT TYPE 0: C51 V8.06
  .\Write_To_IRAM.obj (WRITE_TO_IRAM)
         COMMENT TYPE 0: C51 V8.06
  .\Write_To_XRAM_Extended_Addressing.obj (WRITE_TO_XRAM_EXTENDED_ADDRESSING)
         COMMENT TYPE 0: C51 V8.06
  .\Software_APIs_Extended_Addressing.obj (SOFTWARE_APIS_EXTENDED_ADDRESSING)
         COMMENT TYPE 0: AX51 V3.02
  .\Get_Chip_ID.obj (GET_CHIP_ID)
         COMMENT TYPE 0: C51 V8.06
  .\Get_Clock_Source.obj (GET_CLOCK_SOURCE)
         COMMENT TYPE 0: C51 V8.06
  .\Get_Diagnostic_Data.obj (GET_DIAGNOSTIC_DATA)
         COMMENT TYPE 0: C51 V8.06
  .\Set_Security_Mask.obj (SET_SECURITY_MASK)
         COMMENT TYPE 0: C51 V8.06
  .\Get_Clock_Control.obj (GET_CLOCK_CONTROL)
         COMMENT TYPE 0: C51 V8.06
  .\Set_Security_Action.obj (SET_SECURITY_ACTION)
         COMMENT TYPE 0: C51 V8.06
  .\Get_Firmware_Version.obj (GET_FIRMWARE_VERSION)
         COMMENT TYPE 0: C51 V8.06
  .\Load_DPX.obj (LOAD_DPX)
         COMMENT TYPE 0: C51 V8.06
  .\Set_Clock.obj (SET_CLOCK)
         COMMENT TYPE 0: C51 V8.06
  .\Erase_256_UCM_Extended_Addressing.obj (ERASE_256_UCM_EXTENDED_ADDRESSING)
         COMMENT TYPE 0: C51 V8.06
  .\Erase_512_UCM_Extended_Addressing.obj (ERASE_512_UCM_EXTENDED_ADDRESSING)
         COMMENT TYPE 0: C51 V8.06
  .\Write_Byte_UCM_Extended_Addressing.obj (WRITE_BYTE_UCM_EXTENDED_ADDRESSING)
         COMMENT TYPE 0: C51 V8.06
  .\Get_Random_Number.obj (GET_RANDOM_NUMBER)
         COMMENT TYPE 0: C51 V8.06
  .\Set_Execute_Only_Status.obj (SET_EXECUTE_ONLY_STATUS)
         COMMENT TYPE 0: C51 V8.06
  .\Set_Protection_Status.obj (SET_PROTECTION_STATUS)
         COMMENT TYPE 0: C51 V8.06
  .\Erase_UCM_Blocks__R6R7_Passing.obj (ERASE_UCM_BLOCKS__R6R7_PASSING)
         COMMENT TYPE 0: C51 V8.06
  .\Mass_Erase_UCM.obj (MASS_ERASE_UCM)
         COMMENT TYPE 0: C51 V8.06
  INIT.obj (?C_INIT)
         COMMENT TYPE 0: AX51 V3.02
  C:\KEIL3\C51\LIB\CD51S.LIB (?C?CLDPTR)
         COMMENT TYPE 0: AX51 V3.02
LX51 LINKER/LOCATER V4.10a                                                            10/17/2007  16:48:09  PAGE 3


  C:\KEIL3\C51\LIB\CD51S.LIB (?C?CSTPTR)
         COMMENT TYPE 0: AX51 V3.02
  C:\KEIL3\C51\LIB\CD51S.LIB (?C?UIDIV)
         COMMENT TYPE 0: AX51 V3.02
  C:\KEIL3\C51\LIB\CD51S.LIB (?C?LADD)
         COMMENT TYPE 0: AX51 V3.02
  C:\KEIL3\C51\LIB\CD51S.LIB (?C?LOR)
         COMMENT TYPE 0: AX51 V3.02
  C:\KEIL3\C51\LIB\CD51S.LIB (?C?LXOR)
         COMMENT TYPE 0: AX51 V3.02
  C:\KEIL3\C51\LIB\CD51S.LIB (?C?LNOT)
         COMMENT TYPE 0: AX51 V3.02
  C:\KEIL3\C51\LIB\CD51S.LIB (?C?ULCMP)
         COMMENT TYPE 0: AX51 V3.02
  C:\KEIL3\C51\LIB\CD51S.LIB (?C?ULSHR)
         COMMENT TYPE 0: AX51 V3.02
  C:\KEIL3\C51\LIB\CD51S.LIB (?C?LSHL)
         COMMENT TYPE 0: AX51 V3.02
  C:\KEIL3\C51\LIB\CD51S.LIB (?C?LLDIDATA)
         COMMENT TYPE 0: AX51 V3.02
  C:\KEIL3\C51\LIB\CD51S.LIB (?C?LLDIDATA0)
         COMMENT TYPE 0: AX51 V3.02
  C:\KEIL3\C51\LIB\CD51S.LIB (?C?LLDIIDATA)
         COMMENT TYPE 0: AX51 V3.02
  C:\KEIL3\C51\LIB\CD51S.LIB (?C?LSTIDATA)
         COMMENT TYPE 0: AX51 V3.02
  C:\KEIL3\C51\LIB\CD51S.LIB (?C?OFFXADD)
         COMMENT TYPE 0: AX51 V3.02
  C:\KEIL3\C51\LIB\CD51S.LIB (?C?PLDIIDATA)
         COMMENT TYPE 0: AX51 V3.02
  C:\KEIL3\C51\LIB\CD51S.LIB (?C?PLDCODE)
         COMMENT TYPE 0: AX51 V3.02
  C:\KEIL3\C51\LIB\CD51S.LIB (?C?CCASE)
         COMMENT TYPE 0: AX51 V3.02
  C:\KEIL3\C51\LIB\CD51S.LIB (?C?ICALL390)
         COMMENT TYPE 0: AX51 V3.02


ACTIVE MEMORY CLASSES OF MODULE:  Generic_TT240_Example_C_Code (TT240_GET_OS_VERSION)

BASE        START       END         USED      MEMORY CLASS
==========================================================
X:030000H   X:03D000H   X:03E000H   000040H   XDATA
X:000000H   X:03D000H   X:03E000H   000400H   HDATA
C:000000H   C:000800H   C:00FFFFH   000412H   CODE
C:000000H   C:000800H   C:00FFFFH   000380H   CONST
            C:000800H   C:00FFFFH               
C:000000H   C:000800H   C:03BDFFH   001135H   ECODE
C:000000H   C:000800H   C:03BDFFH             HCONST
I:000000H   I:000000H   I:0000FFH   000079H   IDATA
I:000000H   I:000000H   I:00007FH   00004EH   DATA


MEMORY MAP OF MODULE:  Generic_TT240_Example_C_Code (TT240_GET_OS_VERSION)


START     STOP      LENGTH    ALIGN  RELOC    MEMORY CLASS   SEGMENT NAME
=========================================================================

* * * * * * * * * * *   D A T A   M E M O R Y   * * * * * * * * * * * * *
000000H   000007H   000008H   ---    AT..     DATA           "REG BANK 0"
000008H   000042H   00003BH   BYTE   UNIT     DATA           _DATA_GROUP_
000043H   00004AH   000008H   BYTE   UNIT     DATA           ?DT?GLOBAL_VARS
00004BH   00004DH   000003H   BYTE   UNIT     DATA           ?DT?TT240_FSM_INTERFACE_SEGMENT?TT240_API_JUMPTABLE
00004EH   00008DH   000040H   BYTE   UNIT     IDATA          _IDATA_GROUP_
LX51 LINKER/LOCATER V4.10a                                                            10/17/2007  16:48:09  PAGE 4


00008EH   0000ABH   00001EH   BYTE   UNIT     IDATA          ?ID?GLOBAL_VARS
0000ACH   0000B7H   00000CH   BYTE   UNIT     IDATA          ?ID?WRITE_BYTE_UCM_EXTENDED_ADDRESSING
0000B8H   0000C6H   00000FH   BYTE   UNIT     IDATA          ?STACK

* * * * * * * * * * *   C O D E   M E M O R Y   * * * * * * * * * * * * *
0001CDH   000208H   00003CH   ---    OFFS..   CODE           ?CO?TT240_API_JUMPTABLE?1
000209H   0007FFH   0005F7H   ---    ---      **GAP**
000800H   000803H   000004H   ---    OFFS..   CODE           ?CO?TT240_STARTUP?3
000804H   00080AH   000007H   BYTE   UNIT     CODE           ?C_INITSEG
00080BH   00080DH   000003H   BYTE   OFFS..   CODE           ?TT240_ISR?0080B
00080EH   000812H   000005H   BYTE   INSEG    ECODE          ?PR?_CONV_TWO_BYTES_TO_INT?CONV_TWO_BYTES_TO_INT
000813H   000815H   000003H   BYTE   OFFS..   CODE           ?TT240_ISR?00813
000816H   000822H   00000DH   BYTE   INSEG    ECODE          ?PR?SET_IDLE_MODE?SET_IDLE_MODE
000823H   000825H   000003H   BYTE   OFFS..   CODE           ?TT240_ISR?00823
000826H   000826H   000001H   BYTE   INSEG    ECODE          ?PR?SERIAL_ISR?TT240_ISR
000827H   00082AH   000004H   ---    ---      **GAP**
00082BH   00082DH   000003H   BYTE   OFFS..   CODE           ?TT240_ISR?0082B
00082EH   0009BAH   00018DH   BYTE   UNIT     CODE           ?C?LIB_CODE
0009BBH   000A8EH   0000D4H   BYTE   UNIT     CODE           ?C_C51STARTUP
000A8FH   000B5CH   0000CEH   BYTE   UNIT     CODE           ?PR?TT240_FSM_INTERFACE_SEGMENT?TT240_API_JUMPTABLE
000B5DH   000B99H   00003DH   BYTE   UNIT     CODE           ?PR?MASS_ERASE_UCM_LEAVING_BOOTLOADER?TT240_MASS_ERASE_UCM
                                                             -_LEAVING_BOOTLOADER
000B9AH   000BCDH   000034H   BYTE   INPAGE   CODE           ?PR?MASS_ERASE_CODE_TO_GO_INTO_XRAM?TT240_MASS_ERASE_UCM_L
                                                             -EAVING_BOOTLOADER
000BCEH   000BECH   00001FH   BYTE   UNIT     CODE           ?PR?SOFTWARE_APIS_EXTENDED_ADDRESSING?SOFTWARE_APIS_EXTEND
                                                             -ED_ADDRESSING
000BEDH   000DECH   000200H   BYTE   UNIT     CONST          ?CO?CRC16_NORMAL
000DEDH   000F6CH   000180H   BYTE   UNIT     CONST          ?CO?MAIN
000F6DH   0014CEH   000562H   BYTE   INSEG    ECODE          ?PR?_SHA_1_HASH?SHA_1
0014CFH   001652H   000184H   BYTE   INSEG    ECODE          ?PR?_ISO_SELECT_SPEED?ISO_SELECT_SPEED
001653H   0016D3H   000081H   BYTE   INSEG    ECODE          ?PR?CALL_SHA1?SHA_1
0016D4H   00174AH   000077H   BYTE   INSEG    ECODE          ?PR?PROCESS_APDU_COMMAND?MAIN
00174BH   0017AAH   000060H   BYTE   INSEG    ECODE          ?PR?_ENTER_IDLE_MODE?MAIN
0017ABH   0017FEH   000054H   BYTE   INSEG    ECODE          ?PR?_CALCULATECRC?CRC16_NORMAL
0017FFH   001850H   000052H   BYTE   INSEG    ECODE          ?PR?TIMER0_READ?TIMER0_FUNCTIONS
001851H   0018A2H   000052H   BYTE   INSEG    ECODE          ?PR?TIMER1_READ?TIMER1_FUNCTIONS
0018A3H   0018F4H   000052H   BYTE   INSEG    ECODE          ?PR?WRITE_TO_RAM_EXTENDED_ADDRESSING?WRITE_TO_XRAM_EXTENDE
                                                             -D_ADDRESSING
0018F5H   001945H   000051H   BYTE   INSEG    ECODE          ?PR?CODE_MEMORY_DUMP_EXTENDED_ADDRESSING?CODE_MEMORY_DUMP_
                                                             -EXTENDED_ADDRESSING
001946H   001996H   000051H   BYTE   INSEG    ECODE          ?PR?XDATA_MEMORY_DUMP_EXTENDED_ADDRESSING?XDATA_MEMORY_DUM
                                                             -P_EXTENDED_ADDRESSING
001997H   0019E6H   000050H   BYTE   INSEG    ECODE          ?PR?SET_CLOCK?SET_CLOCK
0019E7H   001A35H   00004FH   BYTE   INSEG    ECODE          ?PR?CREATE_CRC16_HASH_OF_XDATA?CRC16_NORMAL
001A36H   001A7EH   000049H   BYTE   INSEG    ECODE          ?PR?SECURITY_FAULT_ISR?TT240_ISR
001A7FH   001AC6H   000048H   BYTE   INSEG    ECODE          ?PR?WRITE_UCM_BYTES_FROM_IRAM_BUFFER_EXTENDED_ADDRESSING?W
                                                             -RITE_UCM_BYTES_FROM_IRAM_BUFFER_EXTENDED
001AC7H   001B08H   000042H   BYTE   INSEG    ECODE          ?PR?GET_RESPONSE?GET_RESPONSE
001B09H   001B4AH   000042H   BYTE   INSEG    ECODE          ?PR?SET_EXECUTE_ONLY_STATUS?SET_EXECUTE_ONLY_STATUS
001B4BH   001B8CH   000042H   BYTE   INSEG    ECODE          ?PR?SET_PROTECTION_STATUS?SET_PROTECTION_STATUS
001B8DH   001BCBH   00003FH   BYTE   INSEG    ECODE          ?PR?GET_CHIP_ID?GET_CHIP_ID
001BCCH   001C0AH   00003FH   BYTE   INSEG    ECODE          ?PR?GET_DIAGNOSTIC_DATA?GET_DIAGNOSTIC_DATA
001C0BH   001C44H   00003AH   BYTE   INSEG    ECODE          ?PR?ERASE_256_UCM_EXTENDED_ADDRESSING?ERASE_256_UCM_EXTEND
                                                             -ED_ADDRESSING
001C45H   001C7EH   00003AH   BYTE   INSEG    ECODE          ?PR?ERASE_512_UCM_EXTENDED_ADDRESSING?ERASE_512_UCM_EXTEND
                                                             -ED_ADDRESSING
001C7FH   001CB7H   000039H   BYTE   INSEG    ECODE          ?PR?MAIN?MAIN
001CB8H   001CE0H   000029H   BYTE   INSEG    ECODE          ?PR?_TIMER1_SETUP?TIMER1_FUNCTIONS
001CE1H   001D08H   000028H   BYTE   INSEG    ECODE          ?PR?SEND_ATR?TT240_SEND_ATR
001D09H   001D2FH   000027H   BYTE   INSEG    ECODE          ?PR?SET_PULLUP_RESISTOR?SET_PULLUP_RESISTOR
001D30H   001D56H   000027H   BYTE   INSEG    ECODE          ?PR?SET_SECURITY_MASK?SET_SECURITY_MASK
001D57H   001D7DH   000027H   BYTE   INSEG    ECODE          ?PR?SET_SECURITY_ACTION?SET_SECURITY_ACTION
001D7EH   001DA3H   000026H   BYTE   INSEG    ECODE          ?PR?_TIMER0_SETUP?TIMER0_FUNCTIONS
001DA4H   001DC6H   000023H   BYTE   INSEG    ECODE          ?PR?GET_PULLUP_RESISTOR?GET_PULLUP_RESISTOR
001DC7H   001DE9H   000023H   BYTE   INSEG    ECODE          ?PR?WRITE_BYTE_UCM_EXTENDED_ADDRESSING?WRITE_BYTE_UCM_EXTE
LX51 LINKER/LOCATER V4.10a                                                            10/17/2007  16:48:09  PAGE 5


                                                             -NDED_ADDRESSING
001DEAH   001E0BH   000022H   BYTE   INSEG    ECODE          ?PR?GET_IDLE_MODE?SET_IDLE_MODE
001E0CH   001E2CH   000021H   BYTE   INSEG    ECODE          ?PR?GET_INTERRUPT_ENABLE?GET_INTERRUPT_ENABLE
001E2DH   001E4DH   000021H   BYTE   INSEG    ECODE          ?PR?GET_CLOCK_SOURCE?GET_CLOCK_SOURCE
001E4EH   001E6EH   000021H   BYTE   INSEG    ECODE          ?PR?GET_CLOCK_CONTROL?GET_CLOCK_CONTROL
001E6FH   001E8FH   000021H   BYTE   INSEG    ECODE          ?PR?GET_FIRMWARE_VERSION?GET_FIRMWARE_VERSION
001E90H   001EAFH   000020H   BYTE   INSEG    ECODE          ?PR?USE_EMULATOR_API?USE_EMULATOR_API
001EB0H   001ECFH   000020H   BYTE   INSEG    ECODE          ?PR?GET_SECURITY_STATUS?GET_SECURITY_STATUS
001ED0H   001EEFH   000020H   BYTE   INSEG    ECODE          ?PR?GET_TCON?GET_TCON
001EF0H   001F0EH   00001FH   BYTE   INSEG    ECODE          ?PR?CHIP_INIT?CHIP_INIT
001F0FH   001F28H   00001AH   BYTE   INSEG    ECODE          ?PR?GET_OS_VERSION?TT240_GET_OS_VERSION
001F29H   001F42H   00001AH   BYTE   INSEG    ECODE          ?PR?IDATA_MEMORY_DUMP?IDATA_MEMORY_DUMP
001F43H   001F5CH   00001AH   BYTE   INSEG    ECODE          ?PR?WRITE_TO_IRAM?WRITE_TO_IRAM
001F5DH   001F73H   000017H   BYTE   INSEG    ECODE          ?PR?TIMER0_START?TIMER0_FUNCTIONS
001F74H   001F8AH   000017H   BYTE   INSEG    ECODE          ?PR?TIMER1_START?TIMER1_FUNCTIONS
001F8BH   001F9EH   000014H   BYTE   INSEG    ECODE          ?PR?_SERIAL_RECEIVE_X_BYTES?IO
001F9FH   001FB2H   000014H   BYTE   INSEG    ECODE          ?PR?_SERIAL_TRANSMIT_X_BYTES?IO
001FB3H   001FC4H   000012H   BYTE   INSEG    ECODE          ?PR?_PUTCHAR?IO
001FC5H   001FD6H   000012H   BYTE   INSEG    ECODE          ?PR?CHANGE_ISO_SPEED?CHANGE_ISO_SPEED
001FD7H   001FE8H   000012H   BYTE   INSEG    ECODE          ?PR?ERASE_UCM_BLOCKS__R6R7_PASSING?ERASE_UCM_BLOCKS__R6R7_
                                                             -PASSING
001FE9H   001FF9H   000011H   BYTE   INSEG    ECODE          ?PR?TIMER0_STOP?TIMER0_FUNCTIONS
001FFAH   00200AH   000011H   BYTE   INSEG    ECODE          ?PR?TIMER1_STOP?TIMER1_FUNCTIONS
00200BH   00201AH   000010H   BYTE   INSEG    ECODE          ?PR?PROCESS_PPS_COMMAND?MAIN
00201BH   00202AH   000010H   BYTE   INSEG    ECODE          ?PR?GET_RANDOM_NUMBER?GET_RANDOM_NUMBER
00202BH   002039H   00000FH   BYTE   INSEG    ECODE          ?PR?TIMER0_ISR?TT240_ISR
00203AH   002048H   00000FH   BYTE   INSEG    ECODE          ?PR?TIMER1_ISR?TT240_ISR
002049H   002054H   00000CH   BYTE   INSEG    ECODE          ?PR?TT240_SRAM_CLEAR?TT240_SRAM_CLEAR
002055H   002060H   00000CH   BYTE   INSEG    ECODE          ?PR?SET_INTERRUPT_ENABLE?SET_INTERRUPT_ENABLE
002061H   00206BH   00000BH   BYTE   INSEG    ECODE          ?PR?LOAD_DPX?LOAD_DPX
00206CH   002075H   00000AH   BYTE   INSEG    ECODE          ?PR?SET_SECURITY_STATUS?SET_SECURITY_STATUS
002076H   00207EH   000009H   BYTE   INSEG    ECODE          ?PR?_WRITECONFIG?WRITE_BYTE_UCM_EXTENDED_ADDRESSING
00207FH   002086H   000008H   BYTE   INSEG    ECODE          ?PR?GETCHAR?IO
002087H   00208EH   000008H   BYTE   INSEG    ECODE          ?PR?MASS_ERASE_UCM?MASS_ERASE_UCM

* * * * * * * * * * *  X D A T A   M E M O R Y  * * * * * * * * * * * * *
012000H   0123FFH   000400H   BYTE   AT..     HDATA          ?FD?WRITE_BYTE_UCM_EXTENDED_ADDRESSING?0
012400H   03CFFFH   02AC00H   ---    ---      **GAP**
03D000H   03D03FH   000040H   BYTE   UNIT     XDATA          ?XD?GLOBAL_VARS



OVERLAY MAP OF MODULE:   Generic_TT240_Example_C_Code (TT240_GET_OS_VERSION)


FUNCTION/MODULE                                BIT_GROUP   DATA_GROUP   IDATA_GROUP
--> CALLED FUNCTION/MODULE                    START  STOP  START  STOP  START  STOP
===================================================================================
?C_C51STARTUP                                 ----- -----  ----- -----  ----- -----
  +--> ?PR?MAIN?MAIN
  +--> ?C_INITSEG

MAIN/MAIN                                     ----- -----  ----- -----  ----- -----
  +--> ?PR?CHIP_INIT?CHIP_INIT
  +--> ?PR?SEND_ATR?TT240_SEND_ATR
  +--> ?PR?_ENTER_IDLE_MODE?MAIN
  +--> ?PR?GETCHAR?IO
  +--> ?PR?PROCESS_PPS_COMMAND?MAIN
  +--> ?PR?_SERIAL_RECEIVE_X_BYTES?IO
  +--> ?PR?PROCESS_APDU_COMMAND?MAIN

CHIP_INIT/CHIP_INIT                           ----- -----  ----- -----  ----- -----
  +--> ?PR?TT240_FSM_INTERFACE_SEGMENT?TT240...
  +--> ?CO?TT240_API_JUMPTABLE?1
  +--> ?PR?_ISO_SELECT_SPEED?ISO_SELECT_SPEED
LX51 LINKER/LOCATER V4.10a                                                            10/17/2007  16:48:09  PAGE 6



TT240_FSM_INTERFACE_SEGMENT/TT240_API...      ----- -----  ----- -----  ----- -----
  +--> ?CO?TT240_API_JUMPTABLE?1

?CO?TT240_API_JUMPTABLE?1                     ----- -----  ----- -----  ----- -----

_ISO_SELECT_SPEED/ISO_SELECT_SPEED            ----- -----  0008H 0008H  004EH 0053H
  +--> ?PR?_SERIAL_TRANSMIT_X_BYTES?IO
  +--> ?PR?_PUTCHAR?IO

_SERIAL_TRANSMIT_X_BYTES/IO                   ----- -----  ----- -----  ----- -----
  +--> ?PR?_PUTCHAR?IO

_PUTCHAR/IO                                   ----- -----  ----- -----  ----- -----

SEND_ATR/TT240_SEND_ATR                       ----- -----  ----- -----  ----- -----
  +--> ?PR?_PUTCHAR?IO
  +--> ?CO?TT240_API_JUMPTABLE?1

_ENTER_IDLE_MODE/MAIN                         ----- -----  ----- -----  ----- -----
  +--> ?CO?TT240_API_JUMPTABLE?1

GETCHAR/IO                                    ----- -----  ----- -----  ----- -----

PROCESS_PPS_COMMAND/MAIN                      ----- -----  ----- -----  ----- -----
  +--> ?PR?_SERIAL_RECEIVE_X_BYTES?IO
  +--> ?PR?_ISO_SELECT_SPEED?ISO_SELECT_SPEED

_SERIAL_RECEIVE_X_BYTES/IO                    ----- -----  ----- -----  ----- -----
  +--> ?PR?GETCHAR?IO

PROCESS_APDU_COMMAND/MAIN                     ----- -----  ----- -----  ----- -----
  +--> ?CO?MAIN
  +--> ?PR?_PUTCHAR?IO
  +--> ?PR?_SERIAL_TRANSMIT_X_BYTES?IO

?CO?MAIN                                      ----- -----  ----- -----  ----- -----
  +--> ?PR?GET_CHIP_ID?GET_CHIP_ID
  +--> ?PR?GET_CLOCK_SOURCE?GET_CLOCK_SOURCE
  +--> ?PR?GET_CLOCK_CONTROL?GET_CLOCK_CONTROL
  +--> ?PR?SET_PROTECTION_STATUS?SET_PROTECT...
  +--> ?PR?SET_EXECUTE_ONLY_STATUS?SET_EXECU...
  +--> ?PR?SET_SECURITY_ACTION?SET_SECURITY_...
  +--> ?PR?SET_SECURITY_MASK?SET_SECURITY_MASK
  +--> ?PR?SET_CLOCK?SET_CLOCK
  +--> ?PR?SET_INTERRUPT_ENABLE?SET_INTERRUP...
  +--> ?PR?GET_INTERRUPT_ENABLE?GET_INTERRUP...
  +--> ?PR?GET_FIRMWARE_VERSION?GET_FIRMWARE...
  +--> ?PR?MASS_ERASE_UCM_LEAVING_BOOTLOADER...
  +--> ?PR?MASS_ERASE_UCM?MASS_ERASE_UCM
  +--> ?PR?GET_RANDOM_NUMBER?GET_RANDOM_NUMBER
  +--> ?PR?CHANGE_ISO_SPEED?CHANGE_ISO_SPEED
  +--> ?PR?SET_SECURITY_STATUS?SET_SECURITY_...
  +--> ?PR?GET_SECURITY_STATUS?GET_SECURITY_...
  +--> ?PR?TIMER0_START?TIMER0_FUNCTIONS
  +--> ?PR?TIMER1_START?TIMER1_FUNCTIONS
  +--> ?PR?TIMER0_STOP?TIMER0_FUNCTIONS
  +--> ?PR?TIMER1_STOP?TIMER1_FUNCTIONS
  +--> ?PR?ERASE_UCM_BLOCKS__R6R7_PASSING?ER...
  +--> ?PR?GET_DIAGNOSTIC_DATA?GET_DIAGNOSTI...
  +--> ?PR?SET_IDLE_MODE?SET_IDLE_MODE
  +--> ?PR?TIMER0_READ?TIMER0_FUNCTIONS
  +--> ?PR?TIMER1_READ?TIMER1_FUNCTIONS
  +--> ?PR?CALL_SHA1?SHA_1
  +--> ?PR?CODE_MEMORY_DUMP_EXTENDED_ADDRESS...
LX51 LINKER/LOCATER V4.10a                                                            10/17/2007  16:48:09  PAGE 7


  +--> ?PR?IDATA_MEMORY_DUMP?IDATA_MEMORY_DUMP
  +--> ?PR?XDATA_MEMORY_DUMP_EXTENDED_ADDRES...
  +--> ?PR?CREATE_CRC16_HASH_OF_XDATA?CRC16_...
  +--> ?PR?WRITE_TO_IRAM?WRITE_TO_IRAM
  +--> ?PR?GET_OS_VERSION?TT240_GET_OS_VERSION
  +--> ?PR?TT240_SRAM_CLEAR?TT240_SRAM_CLEAR
  +--> ?PR?WRITE_BYTE_UCM_EXTENDED_ADDRESSIN...
  +--> ?PR?USE_EMULATOR_API?USE_EMULATOR_API
  +--> ?PR?ERASE_256_UCM_EXTENDED_ADDRESSING...
  +--> ?PR?ERASE_512_UCM_EXTENDED_ADDRESSING...
  +--> ?PR?LOAD_DPX?LOAD_DPX
  +--> ?PR?WRITE_TO_RAM_EXTENDED_ADDRESSING?...
  +--> ?PR?GET_RESPONSE?GET_RESPONSE
  +--> ?PR?GET_TCON?GET_TCON
  +--> ?PR?WRITE_UCM_BYTES_FROM_IRAM_BUFFER_...
  +--> ?PR?GET_IDLE_MODE?SET_IDLE_MODE
  +--> ?PR?SET_PULLUP_RESISTOR?SET_PULLUP_RE...
  +--> ?PR?GET_PULLUP_RESISTOR?GET_PULLUP_RE...

GET_CHIP_ID/GET_CHIP_ID                       ----- -----  ----- -----  ----- -----
  +--> ?CO?TT240_API_JUMPTABLE?1
  +--> ?PR?_SERIAL_TRANSMIT_X_BYTES?IO

GET_CLOCK_SOURCE/GET_CLOCK_SOURCE             ----- -----  ----- -----  ----- -----
  +--> ?CO?TT240_API_JUMPTABLE?1
  +--> ?PR?_PUTCHAR?IO

GET_CLOCK_CONTROL/GET_CLOCK_CONTROL           ----- -----  ----- -----  ----- -----
  +--> ?CO?TT240_API_JUMPTABLE?1
  +--> ?PR?_PUTCHAR?IO

SET_PROTECTION_STATUS/SET_PROTECTION_...      ----- -----  ----- -----  ----- -----
  +--> ?PR?_SERIAL_RECEIVE_X_BYTES?IO
  +--> ?PR?_CONV_TWO_BYTES_TO_INT?CONV_TWO_B...
  +--> ?CO?TT240_API_JUMPTABLE?1

_CONV_TWO_BYTES_TO_INT/CONV_TWO_BYTES...      ----- -----  ----- -----  ----- -----

SET_EXECUTE_ONLY_STATUS/SET_EXECUTE_O...      ----- -----  ----- -----  ----- -----
  +--> ?PR?_SERIAL_RECEIVE_X_BYTES?IO
  +--> ?PR?_CONV_TWO_BYTES_TO_INT?CONV_TWO_B...
  +--> ?CO?TT240_API_JUMPTABLE?1

SET_SECURITY_ACTION/SET_SECURITY_ACTION       ----- -----  ----- -----  ----- -----
  +--> ?CO?TT240_API_JUMPTABLE?1

SET_SECURITY_MASK/SET_SECURITY_MASK           ----- -----  ----- -----  ----- -----
  +--> ?CO?TT240_API_JUMPTABLE?1

SET_CLOCK/SET_CLOCK                           ----- -----  ----- -----  ----- -----
  +--> ?PR?_SERIAL_RECEIVE_X_BYTES?IO
  +--> ?CO?TT240_API_JUMPTABLE?1

SET_INTERRUPT_ENABLE/SET_INTERRUPT_EN...      ----- -----  ----- -----  ----- -----
  +--> ?PR?TT240_FSM_INTERFACE_SEGMENT?TT240...

GET_INTERRUPT_ENABLE/GET_INTERRUPT_EN...      ----- -----  ----- -----  ----- -----
  +--> ?PR?TT240_FSM_INTERFACE_SEGMENT?TT240...
  +--> ?PR?_PUTCHAR?IO

GET_FIRMWARE_VERSION/GET_FIRMWARE_VER...      ----- -----  ----- -----  ----- -----
  +--> ?CO?TT240_API_JUMPTABLE?1
  +--> ?PR?_PUTCHAR?IO

MASS_ERASE_UCM_LEAVING_BOOTLOADER/TT2...      ----- -----  ----- -----  ----- -----
LX51 LINKER/LOCATER V4.10a                                                            10/17/2007  16:48:09  PAGE 8


  +--> ?PR?MASS_ERASE_CODE_TO_GO_INTO_XRAM?T...
  +--> ?PR?TT240_FSM_INTERFACE_SEGMENT?TT240...

MASS_ERASE_CODE_TO_GO_INTO_XRAM/TT240...      ----- -----  ----- -----  ----- -----
  +--> ?CO?TT240_API_JUMPTABLE?1

MASS_ERASE_UCM/MASS_ERASE_UCM                 ----- -----  ----- -----  ----- -----
  +--> ?PR?TT240_FSM_INTERFACE_SEGMENT?TT240...

GET_RANDOM_NUMBER/GET_RANDOM_NUMBER           ----- -----  ----- -----  ----- -----
  +--> ?CO?TT240_API_JUMPTABLE?1
  +--> ?PR?_PUTCHAR?IO

CHANGE_ISO_SPEED/CHANGE_ISO_SPEED             ----- -----  ----- -----  ----- -----
  +--> ?PR?_ISO_SELECT_SPEED?ISO_SELECT_SPEED

SET_SECURITY_STATUS/SET_SECURITY_STATUS       ----- -----  ----- -----  ----- -----

GET_SECURITY_STATUS/GET_SECURITY_STATUS       ----- -----  ----- -----  ----- -----
  +--> ?PR?_PUTCHAR?IO

TIMER0_START/TIMER0_FUNCTIONS                 ----- -----  ----- -----  ----- -----
  +--> ?PR?GETCHAR?IO
  +--> ?PR?_TIMER0_SETUP?TIMER0_FUNCTIONS

_TIMER0_SETUP/TIMER0_FUNCTIONS                ----- -----  0008H 000AH  ----- -----
  +--> ?PR?TT240_FSM_INTERFACE_SEGMENT?TT240...

TIMER1_START/TIMER1_FUNCTIONS                 ----- -----  ----- -----  ----- -----
  +--> ?PR?GETCHAR?IO
  +--> ?PR?_TIMER1_SETUP?TIMER1_FUNCTIONS

_TIMER1_SETUP/TIMER1_FUNCTIONS                ----- -----  0008H 000AH  ----- -----
  +--> ?PR?TT240_FSM_INTERFACE_SEGMENT?TT240...

TIMER0_STOP/TIMER0_FUNCTIONS                  ----- -----  ----- -----  ----- -----
  +--> ?PR?TT240_FSM_INTERFACE_SEGMENT?TT240...

TIMER1_STOP/TIMER1_FUNCTIONS                  ----- -----  ----- -----  ----- -----
  +--> ?PR?TT240_FSM_INTERFACE_SEGMENT?TT240...

ERASE_UCM_BLOCKS__R6R7_PASSING/ERASE_...      ----- -----  ----- -----  ----- -----
  +--> ?PR?_CONV_TWO_BYTES_TO_INT?CONV_TWO_B...
  +--> ?CO?TT240_API_JUMPTABLE?1

GET_DIAGNOSTIC_DATA/GET_DIAGNOSTIC_DATA       ----- -----  ----- -----  ----- -----
  +--> ?CO?TT240_API_JUMPTABLE?1
  +--> ?PR?_SERIAL_TRANSMIT_X_BYTES?IO

SET_IDLE_MODE/SET_IDLE_MODE                   ----- -----  ----- -----  ----- -----

TIMER0_READ/TIMER0_FUNCTIONS                  ----- -----  ----- -----  ----- -----
  +--> ?PR?_PUTCHAR?IO

TIMER1_READ/TIMER1_FUNCTIONS                  ----- -----  ----- -----  ----- -----
  +--> ?PR?_PUTCHAR?IO

CALL_SHA1/SHA_1                               ----- -----  0008H 000CH  ----- -----
  +--> ?PR?_SHA_1_HASH?SHA_1
  +--> ?PR?_PUTCHAR?IO

_SHA_1_HASH/SHA_1                             ----- -----  000DH 0042H  004EH 008DH

CODE_MEMORY_DUMP_EXTENDED_ADDRESSING/...      ----- -----  ----- -----  ----- -----
  +--> ?PR?_PUTCHAR?IO
LX51 LINKER/LOCATER V4.10a                                                            10/17/2007  16:48:09  PAGE 9



IDATA_MEMORY_DUMP/IDATA_MEMORY_DUMP           ----- -----  ----- -----  ----- -----
  +--> ?PR?_PUTCHAR?IO

XDATA_MEMORY_DUMP_EXTENDED_ADDRESSING...      ----- -----  ----- -----  ----- -----
  +--> ?PR?_PUTCHAR?IO

CREATE_CRC16_HASH_OF_XDATA/CRC16_NORMAL       ----- -----  0008H 0009H  ----- -----
  +--> ?PR?_CALCULATECRC?CRC16_NORMAL
  +--> ?PR?_PUTCHAR?IO

_CALCULATECRC/CRC16_NORMAL                    ----- -----  000AH 000DH  ----- -----
  +--> ?CO?CRC16_NORMAL

?CO?CRC16_NORMAL                              ----- -----  ----- -----  ----- -----

WRITE_TO_IRAM/WRITE_TO_IRAM                   ----- -----  ----- -----  ----- -----
  +--> ?PR?GETCHAR?IO

GET_OS_VERSION/TT240_GET_OS_VERSION           ----- -----  ----- -----  ----- -----
  +--> ?PR?_PUTCHAR?IO

TT240_SRAM_CLEAR/TT240_SRAM_CLEAR             ----- -----  ----- -----  ----- -----
  +--> ?CO?TT240_API_JUMPTABLE?1

WRITE_BYTE_UCM_EXTENDED_ADDRESSING/WR...      ----- -----  ----- -----  ----- -----
  +--> ?PR?_WRITECONFIG?WRITE_BYTE_UCM_EXTEN...

_WRITECONFIG/WRITE_BYTE_UCM_EXTENDED_...      ----- -----  0008H 000EH  ----- -----

USE_EMULATOR_API/USE_EMULATOR_API             ----- -----  ----- -----  ----- -----
  +--> ?PR?TT240_FSM_INTERFACE_SEGMENT?TT240...

ERASE_256_UCM_EXTENDED_ADDRESSING/ERA...      ----- -----  ----- -----  ----- -----
  +--> ?PR?_SERIAL_RECEIVE_X_BYTES?IO
  +--> ?PR?TT240_FSM_INTERFACE_SEGMENT?TT240...

ERASE_512_UCM_EXTENDED_ADDRESSING/ERA...      ----- -----  ----- -----  ----- -----
  +--> ?PR?_SERIAL_RECEIVE_X_BYTES?IO
  +--> ?PR?TT240_FSM_INTERFACE_SEGMENT?TT240...

LOAD_DPX/LOAD_DPX                             ----- -----  ----- -----  ----- -----

WRITE_TO_RAM_EXTENDED_ADDRESSING/WRIT...      ----- -----  ----- -----  ----- -----
  +--> ?PR?GETCHAR?IO

GET_RESPONSE/GET_RESPONSE                     ----- -----  ----- -----  ----- -----
  +--> ?PR?_PUTCHAR?IO

GET_TCON/GET_TCON                             ----- -----  ----- -----  ----- -----
  +--> ?PR?_PUTCHAR?IO

WRITE_UCM_BYTES_FROM_IRAM_BUFFER_EXTE...      ----- -----  ----- -----  ----- -----
  +--> ?PR?_SERIAL_RECEIVE_X_BYTES?IO
  +--> ?PR?SOFTWARE_APIS_EXTENDED_ADDRESSING...

SOFTWARE_APIS_EXTENDED_ADDRESSING/SOF...      ----- -----  ----- -----  ----- -----
  +--> ?PR?TT240_FSM_INTERFACE_SEGMENT?TT240...

GET_IDLE_MODE/SET_IDLE_MODE                   ----- -----  ----- -----  ----- -----
  +--> ?PR?_PUTCHAR?IO

SET_PULLUP_RESISTOR/SET_PULLUP_RESISTOR       ----- -----  ----- -----  ----- -----
  +--> ?CO?TT240_API_JUMPTABLE?1

LX51 LINKER/LOCATER V4.10a                                                            10/17/2007  16:48:09  PAGE 10


GET_PULLUP_RESISTOR/GET_PULLUP_RESISTOR       ----- -----  ----- -----  ----- -----
  +--> ?PR?_PUTCHAR?IO

?C_INITSEG                                    ----- -----  ----- -----  ----- -----

*** NEW ROOT ********************************

TIMER0_ISR/TT240_ISR                          ----- -----  ----- -----  ----- -----

*** NEW ROOT ********************************

TIMER1_ISR/TT240_ISR                          ----- -----  ----- -----  ----- -----

*** NEW ROOT ********************************

SERIAL_ISR/TT240_ISR                          ----- -----  ----- -----  ----- -----

*** NEW ROOT ********************************

SECURITY_FAULT_ISR/TT240_ISR                  ----- -----  ----- -----  ----- -----
  +--> ?PR?_PUTCHAR?IO



PUBLIC SYMBOLS OF MODULE:  Generic_TT240_Example_C_Code (TT240_GET_OS_VERSION)


      VALUE       CLASS    TYPE      PUBLIC SYMBOL NAME
      =================================================
      00000008H   DATA     BYTE      ?_WriteConfig?BYTE
      01000986H   CODE     NEAR LAB  ?C?CCASE
      0100082EH   CODE     NEAR LAB  ?C?CLDPTR
      00000081H   NUMBER   ---       ?C?CODEMTYPE
      00000000H   NUMBER   ---       ?C?CODESEG
      01000844H   CODE     NEAR LAB  ?C?CSTPTR
      010009AEH   CODE     NEAR LAB  ?C?ICALL390
      010009B4H   CODE     NEAR LAB  ?C?ICALLX2
      010008AEH   CODE     NEAR LAB  ?C?LADD
      01000919H   CODE     NEAR LAB  ?C?LLDIDATA
      01000925H   CODE     NEAR LAB  ?C?LLDIDATA0
      0100093BH   CODE     NEAR LAB  ?C?LLDIIDATA
      01000932H   CODE     NEAR LAB  ?C?LLDIIDATA1
      01000934H   CODE     NEAR LAB  ?C?LLDIIDATA8
      010008D5H   CODE     NEAR LAB  ?C?LNOT
      010008BBH   CODE     NEAR LAB  ?C?LOR
      01000906H   CODE     NEAR LAB  ?C?LSHL
      01000952H   CODE     NEAR LAB  ?C?LSTIDATA
      010008C8H   CODE     NEAR LAB  ?C?LXOR
      0100095EH   CODE     NEAR LAB  ?C?OFFXADD
      0100097AH   CODE     NEAR LAB  ?C?PLDCODE
      0100096AH   CODE     NEAR LAB  ?C?PLDIIDATA
      01000858H   CODE     NEAR LAB  ?C?UIDIV
      010008E2H   CODE     NEAR LAB  ?C?ULCMP
      010008F3H   CODE     NEAR LAB  ?C?ULSHR
      00000004H   NUMBER   ---       ?C?XDATAMTYPE
      00000003H   NUMBER   ---       ?C?XDATASEG
      01000A01H   CODE     NEAR LAB  ?C_START
      01000800H   CODE     NEAR LAB  ?C_STARTUP
      010017ABH   ECODE    ---       _CalculateCRC
      0100080EH   ECODE    ---       _Conv_Two_Bytes_To_Int
      0100174BH   ECODE    ---       _Enter_Idle_Mode
      01000AACH   CODE     NEAR LAB  _FIRMWARE_ERASEPAGEUCM
      01000AACH   CODE     NEAR LAB  _FIRMWARE_ERASEUCM256BYTES
      01000AC0H   CODE     NEAR LAB  _FIRMWARE_ERASEUCM512BYTES
      010001D0H   CODE     NEAR LAB  _FIRMWARE_ERASEUCMBLOCK
LX51 LINKER/LOCATER V4.10a                                                            10/17/2007  16:48:09  PAGE 11


      010001DFH   CODE     NEAR LAB  _FIRMWARE_GETCHIPID
      010001EBH   CODE     NEAR LAB  _FIRMWARE_GETCLOCKCONTROLSFR
      010001E8H   CODE     NEAR LAB  _FIRMWARE_GETCLOCKSOURCESELECTSFR
      010001EEH   CODE     NEAR LAB  _FIRMWARE_GETDIAGNOSTICDATA
      010001E2H   CODE     NEAR LAB  _FIRMWARE_GETFIRMWAREVERSION
      010001F1H   CODE     NEAR LAB  _FIRMWARE_GETRANDOMNUMBER
      01000B10H   CODE     NEAR LAB  _FIRMWARE_MASSERASEUCM
      010001F7H   CODE     NEAR LAB  _FIRMWARE_SET_IO_PULLUP
      010001E5H   CODE     NEAR LAB  _FIRMWARE_SETCLOCK
      010001CDH   CODE     NEAR LAB  _FIRMWARE_SETCLOCKTRIM
      010001D9H   CODE     NEAR LAB  _FIRMWARE_SETEXECUTEONLYSTATUS
      01000B47H   CODE     NEAR LAB  _FIRMWARE_SETINTERRUPTENABLE
      010001DCH   CODE     NEAR LAB  _FIRMWARE_SETPROTECTSTATUS
      010001D3H   CODE     NEAR LAB  _FIRMWARE_SETSECURITYACTION
      010001D6H   CODE     NEAR LAB  _FIRMWARE_SETSECURITYMASK
      010001F4H   CODE     NEAR LAB  _FIRMWARE_SRAM_CLEAR
      01000A93H   CODE     NEAR LAB  _FIRMWARE_USE_EMULATOR_API
      01000B22H   CODE     NEAR LAB  _FIRMWARE_WRITEBYTEUCM
      01000BCEH   CODE     NEAR LAB  _FIRMWARE_WRITEEE
      01000BCEH   CODE     NEAR LAB  _Firmware_WriteUCM
      010014CFH   ECODE    ---       _ISO_Select_Speed
      01000B5DH   CODE     NEAR LAB  _MASS_ERASE_UCM_LEAVING_BOOTLOADER
      01001FB3H   ECODE    ---       _PutChar
      01001F8BH   ECODE    ---       _Serial_Receive_X_Bytes
      01001F9FH   ECODE    ---       _Serial_Transmit_X_Bytes
      01000F6DH   ECODE    ---       _SHA_1_Hash
      01001D7EH   ECODE    ---       _Timer0_Setup
      01001CB8H   ECODE    ---       _Timer1_Setup
      01002076H   ECODE    ---       _WriteConfig
*SFR* 000000D0H.6 DATA     BIT       AC
*SFR* 000000E0H   DATA     BYTE      ACC
*SFR* 000000E8H   DATA     BIT       AM
      0000009DH   IDATA    ---       APDU_CMD
*SFR* 000000F0H   DATA     BYTE      B
      01001653H   ECODE    ---       Call_SHA1
*SFR* 000000A1H   DATA     BYTE      CBSL
      01001FC5H   ECODE    ---       Change_ISO_Speed
      01001EF0H   ECODE    ---       Chip_Init
      010018F5H   ECODE    ---       CODE_Memory_Dump_Extended_Addressing
      00000049H   DATA     ---       CODE_PTR
      000000ACH   IDATA    ---       ConfigWriteBuff
      01000BEDH   CONST    ---       CRC16_LookUp_Table
      010019E7H   ECODE    ---       Create_CRC16_Hash_Of_XDATA
      000000ABH   IDATA    CHAR      cRet_Val_Char
*SFR* 000000D0H.7 DATA     BIT       CY
*SFR* 00000083H   DATA     BYTE      DPH
*SFR* 00000083H   DATA     BYTE      DPH0
*SFR* 00000085H   DATA     BYTE      DPH1
*SFR* 00000082H   DATA     BYTE      DPL
*SFR* 00000082H   DATA     BYTE      DPL0
*SFR* 00000084H   DATA     BYTE      DPL1
*SFR* 00000086H   DATA     BYTE      DPS
*SFR* 00000093H   DATA     BYTE      DPX
*SFR* 00000093H   DATA     BYTE      DPX0
*SFR* 00000095H   DATA     BYTE      DPX1
      0000009CH   IDATA    BYTE      DPX_Addr
*SFR* 000000E8H   DATA     BYTE      EPSW
      01001C0BH   ECODE    ---       Erase_256_UCM_Extended_Addressing
      01001C45H   ECODE    ---       Erase_512_UCM_Extended_Addressing
      01001FD7H   ECODE    ---       Erase_UCM_Blocks__R6R7_Passing
*SFR* 000000D0H.5 DATA     BIT       F0
*SFR* 000000E8H.1 DATA     BIT       F1
      01000AACH   CODE     NEAR LAB  FIRMWARE_ERASEPAGEUCM
      01000AACH   CODE     NEAR LAB  FIRMWARE_ERASEUCM256BYTES
      01000AC0H   CODE     NEAR LAB  FIRMWARE_ERASEUCM512BYTES
LX51 LINKER/LOCATER V4.10a                                                            10/17/2007  16:48:09  PAGE 12


      010001D0H   CODE     NEAR LAB  FIRMWARE_ERASEUCMBLOCK
      010001DFH   CODE     NEAR LAB  FIRMWARE_GETCHIPID
      010001EBH   CODE     NEAR LAB  FIRMWARE_GETCLOCKCONTROLSFR
      010001E8H   CODE     NEAR LAB  FIRMWARE_GETCLOCKSOURCESELECTSFR
      010001EEH   CODE     NEAR LAB  FIRMWARE_GETDIAGNOSTICDATA
      010001E2H   CODE     NEAR LAB  Firmware_GetFirmwareVersion
      01000B52H   CODE     NEAR LAB  FIRMWARE_GETINTERRUPTENABLE
      010001F1H   CODE     NEAR LAB  FIRMWARE_GETRANDOMNUMBER
      01000A8FH   CODE     NEAR LAB  FIRMWARE_INIT
      01000B10H   CODE     NEAR LAB  FIRMWARE_MASSERASEUCM
      010001F7H   CODE     NEAR LAB  FIRMWARE_SET_IO_PULLUP
      010001E5H   CODE     NEAR LAB  FIRMWARE_SETCLOCK
      010001CDH   CODE     NEAR LAB  FIRMWARE_SETCLOCKTRIM
      010001D9H   CODE     NEAR LAB  FIRMWARE_SETEXECUTEONLYSTATUS
      010001DCH   CODE     NEAR LAB  FIRMWARE_SETPROTECTSTATUS
      010001D3H   CODE     NEAR LAB  FIRMWARE_SETSECURITYACTION
      010001D6H   CODE     NEAR LAB  FIRMWARE_SETSECURITYMASK
      010001F4H   CODE     NEAR LAB  FIRMWARE_SRAM_CLEAR
      01000B22H   CODE     NEAR LAB  FIRMWARE_WRITEBYTEUCM
      01000BCEH   CODE     NEAR LAB  FIRMWARE_WRITEEE
      01000BCEH   CODE     NEAR LAB  FIRMWARE_WRITEUCM
*SFR* 00000080H   DATA     BIT       FSM_FINISH
*SFR* 00000080H.5 DATA     BIT       FSM_RESULT
*SFR* 00000080H.1 DATA     BIT       FSM_START
      02012000H   HDATA    ---       gCONFIGP1
      01001B8DH   ECODE    ---       Get_Chip_ID
      01001E4EH   ECODE    ---       Get_Clock_Control
      01001E2DH   ECODE    ---       Get_Clock_Source
      01001BCCH   ECODE    ---       Get_Diagnostic_Data
      01001E6FH   ECODE    ---       Get_Firmware_Version
      01001DEAH   ECODE    ---       Get_Idle_Mode
      01001E0CH   ECODE    ---       Get_Interrupt_Enable
      01001F0FH   ECODE    ---       Get_OS_Version
      01001DA4H   ECODE    ---       Get_Pullup_Resistor
      0100201BH   ECODE    ---       Get_Random_Number
      01001AC7H   ECODE    ---       Get_Response
      01001EB0H   ECODE    ---       Get_Security_Status
      01001ED0H   ECODE    ---       Get_TCON
      0100207FH   ECODE    ---       GetChar
      01001F29H   ECODE    ---       IDATA_Memory_Dump
      00000043H   DATA     ---       IDATA_PTR
      00000095H   IDATA    BYTE      IDLE_MODE
*SFR* 000000A8H   DATA     BYTE      IE
      01000DEDH   CONST    ---       INS_FPTR
      0203D000H   XDATA    ---       IO_Buffer
*SFR* 000000B8H   DATA     BYTE      IP
      00000096H   IDATA    INT       iRet_Val_Int
*SFR* 000000B2H   DATA     BYTE      ISOCON
*SFR* 000000B4H   DATA     BYTE      ISOTMR
      01002061H   ECODE    ---       Load_DPX
      01001C7FH   ECODE    ---       main
      01002087H   ECODE    ---       Mass_Erase_UCM
      01000B5DH   CODE     NEAR LAB  MASS_ERASE_UCM_LEAVING_BOOTLOADER
*SFR* 000000F7H   DATA     BYTE      MFCON
*SFR* 00000088H.3 DATA     BIT       MFLT
*SFR* 000000A2H   DATA     BYTE      MPTR
*SFR* 000000EAH   DATA     BYTE      MPTRX
*SFR* 00000080H   DATA     BYTE      NVFSMCON
*SFR* 000000C9H   DATA     BYTE      NvFsmMode
*SFR* 000000D0H.2 DATA     BIT       OV
*SFR* 000000D0H   DATA     BIT       P
*SFR* 00000087H   DATA     BYTE      PCON
      010016D4H   ECODE    ---       Process_APDU_Command
      0100200BH   ECODE    ---       Process_PPS_Command
*SFR* 000000C0H   DATA     BYTE      PROGIO
LX51 LINKER/LOCATER V4.10a                                                            10/17/2007  16:48:09  PAGE 13


*SFR* 000000D0H   DATA     BYTE      PSW
*SFR* 000000C0H   DATA     BIT       PULLUP_RES_STATE
*SFR* 00000098H   DATA     BIT       RI
*SFR* 000000D0H.3 DATA     BIT       RS0
*SFR* 000000D0H.4 DATA     BIT       RS1
*SFR* 00000099H   DATA     BYTE      SBUF
*SFR* 00000098H   DATA     BYTE      SCON
      01001A36H   ECODE    ---       Security_Fault_ISR
*SFR* 000000B0H   DATA     BYTE      SECURITYSTATUS
      01001CE1H   ECODE    ---       Send_ATR
      01000826H   ECODE    ---       Serial_ISR
      01001997H   ECODE    ---       Set_Clock
      01001B09H   ECODE    ---       Set_Execute_Only_Status
      01000816H   ECODE    ---       Set_Idle_Mode
      01002055H   ECODE    ---       Set_Interrupt_Enable
      01001B4BH   ECODE    ---       Set_Protection_Status
      01001D09H   ECODE    ---       Set_Pullup_Resistor
      01001D57H   ECODE    ---       Set_Security_Action
      01001D30H   ECODE    ---       Set_Security_Mask
      0100206CH   ECODE    ---       Set_Security_Status
*SFR* 00000088H.1 DATA     BIT       SINT
*SFR* 00000081H   DATA     BYTE      SP
*SFR* 000000D8H   DATA     BYTE      SPSW
*SFR* 00000088H   DATA     BIT       SSINT
      0000009AH   IDATA    WORD      SW1SW2
*SFR* 00000088H   DATA     BYTE      TCON
      000000A3H   IDATA    ---       TEMP_BUF
*SFR* 00000088H.5 DATA     BIT       TF0
*SFR* 00000088H.7 DATA     BIT       TF1
*SFR* 0000008CH   DATA     BYTE      TH0
*SFR* 0000008DH   DATA     BYTE      TH1
*SFR* 00000098H.1 DATA     BIT       TI
      00000098H   IDATA    BYTE      Timer0_Int_Count
      0100202BH   ECODE    ---       Timer0_ISR
      010017FFH   ECODE    ---       Timer0_Read
      01001F5DH   ECODE    ---       Timer0_Start
      01001FE9H   ECODE    ---       Timer0_Stop
      00000099H   IDATA    BYTE      Timer1_Int_Count
      0100203AH   ECODE    ---       Timer1_ISR
      01001851H   ECODE    ---       Timer1_Read
      01001F74H   ECODE    ---       Timer1_Start
      01001FFAH   ECODE    ---       Timer1_Stop
*SFR* 0000008AH   DATA     BYTE      TL0
*SFR* 0000008BH   DATA     BYTE      TL1
*SFR* 00000089H   DATA     BYTE      TMOD
*SFR* 00000088H.4 DATA     BIT       TR0
*SFR* 00000088H.6 DATA     BIT       TR1
      01002049H   ECODE    ---       TT240_SRAM_Clear
      00000046H   DATA     ---       uc_Fptr
      0000008EH   IDATA    BYTE      ucByte_To_Write
      000000A2H   IDATA    BYTE      ucCount
      00000093H   IDATA    WORD      uiTemp_Address
      0000008FH   IDATA    DWORD     ulTemp_Var
      01001E90H   ECODE    ---       Use_Emulator_API
*SFR* 00000088H.1 DATA     BIT       USINT
      01001DC7H   ECODE    ---       Write_Byte_UCM_Extended_Addressing
      01001F43H   ECODE    ---       Write_To_IRAM
      010018A3H   ECODE    ---       Write_To_RAM_Extended_Addressing
      01001A7FH   ECODE    ---       Write_UCM_Bytes_From_IRAM_Buffer_Extended_Addressing
      01001946H   ECODE    ---       XDATA_Memory_Dump_Extended_Addressing
      00000044H   DATA     ---       XDATA_PTR



SYMBOL TABLE OF MODULE:  Generic_TT240_Example_C_Code (TT240_GET_OS_VERSION)
LX51 LINKER/LOCATER V4.10a                                                            10/17/2007  16:48:09  PAGE 14



      VALUE       REP       CLASS    TYPE      SYMBOL NAME
      ====================================================
      ---         MODULE    ---      ---       TT240_GET_OS_VERSION
      01001F0FH   PUBLIC    ECODE    ---       Get_OS_Version
      000000D0H.6 SFRSYM    DATA     BIT       AC
      00000080H   SFRSYM    DATA     BIT       FSM_FINISH
      00000083H   SFRSYM    DATA     BYTE      DPH0
      000000E8H   SFRSYM    DATA     BIT       AM
      000000A8H   SFRSYM    DATA     BYTE      IE
      00000085H   SFRSYM    DATA     BYTE      DPH1
      00000082H   SFRSYM    DATA     BYTE      DPL0
      00000084H   SFRSYM    DATA     BYTE      DPL1
      00000088H   SFRSYM    DATA     BIT       SSINT
      000000C0H   SFRSYM    DATA     BIT       PULLUP_RES_STATE
      00000088H.1 SFRSYM    DATA     BIT       USINT
      000000B8H   SFRSYM    DATA     BYTE      IP
      00000098H   SFRSYM    DATA     BIT       RI
      000000D0H.7 SFRSYM    DATA     BIT       CY
      00000098H.1 SFRSYM    DATA     BIT       TI
      000000EAH   SFRSYM    DATA     BYTE      MPTRX
      00000093H   SFRSYM    DATA     BYTE      DPX0
      00000095H   SFRSYM    DATA     BYTE      DPX1
      00000081H   SFRSYM    DATA     BYTE      SP
      000000D0H.2 SFRSYM    DATA     BIT       OV
      000000A1H   SFRSYM    DATA     BYTE      CBSL
      00000080H.5 SFRSYM    DATA     BIT       FSM_RESULT
      00000099H   SFRSYM    DATA     BYTE      SBUF
      00000087H   SFRSYM    DATA     BYTE      PCON
      00000088H.3 SFRSYM    DATA     BIT       MFLT
      00000098H   SFRSYM    DATA     BYTE      SCON
      00000089H   SFRSYM    DATA     BYTE      TMOD
      00000088H   SFRSYM    DATA     BYTE      TCON
      00000088H.1 SFRSYM    DATA     BIT       SINT
      000000E8H   SFRSYM    DATA     BYTE      EPSW
      000000F0H   SFRSYM    DATA     BYTE      B
      000000A2H   SFRSYM    DATA     BYTE      MPTR
      000000E0H   SFRSYM    DATA     BYTE      ACC
      00000088H.5 SFRSYM    DATA     BIT       TF0
      00000088H.7 SFRSYM    DATA     BIT       TF1
      0000008CH   SFRSYM    DATA     BYTE      TH0
      000000B2H   SFRSYM    DATA     BYTE      ISOCON
      0000008DH   SFRSYM    DATA     BYTE      TH1
      000000D8H   SFRSYM    DATA     BYTE      SPSW
      000000D0H   SFRSYM    DATA     BIT       P
      0000008AH   SFRSYM    DATA     BYTE      TL0
      0000008BH   SFRSYM    DATA     BYTE      TL1
      000000C0H   SFRSYM    DATA     BYTE      PROGIO
      000000D0H.3 SFRSYM    DATA     BIT       RS0
      00000088H.4 SFRSYM    DATA     BIT       TR0
      000000D0H.4 SFRSYM    DATA     BIT       RS1
      00000080H.1 SFRSYM    DATA     BIT       FSM_START
      00000088H.6 SFRSYM    DATA     BIT       TR1
      00000083H   SFRSYM    DATA     BYTE      DPH
      000000B4H   SFRSYM    DATA     BYTE      ISOTMR
      00000082H   SFRSYM    DATA     BYTE      DPL
      000000B0H   SFRSYM    DATA     BYTE      SECURITYSTATUS
      00000086H   SFRSYM    DATA     BYTE      DPS
      00000093H   SFRSYM    DATA     BYTE      DPX
      00000080H   SFRSYM    DATA     BYTE      NVFSMCON
      000000F7H   SFRSYM    DATA     BYTE      MFCON
      000000C9H   SFRSYM    DATA     BYTE      NvFsmMode
      000000D0H.5 SFRSYM    DATA     BIT       F0
      000000E8H.1 SFRSYM    DATA     BIT       F1
      000000D0H   SFRSYM    DATA     BYTE      PSW
LX51 LINKER/LOCATER V4.10a                                                            10/17/2007  16:48:09  PAGE 15



      01001F0FH   BLOCK     ECODE    ---       LVL=0
      01001F0FH   LINE      ECODE    ---       #58
      01001F0FH   LINE      ECODE    ---       #59
      01001F0FH   LINE      ECODE    ---       #60
      01001F15H   LINE      ECODE    ---       #61
      01001F15H   LINE      ECODE    ---       #62
      01001F1AH   LINE      ECODE    ---       #63
      01001F1FH   LINE      ECODE    ---       #65
      01001F24H   LINE      ECODE    ---       #66
      01001F24H   LINE      ECODE    ---       #69
      01001F24H   LINE      ECODE    ---       #70
      01001F28H   LINE      ECODE    ---       #71
      01001F28H   LINE      ECODE    ---       #74
      ---         BLOCKEND  ---      ---       LVL=0

      ---         MODULE    ---      ---       TT240_SEND_ATR
      01001CE1H   PUBLIC    ECODE    ---       Send_ATR
      000000D0H.6 SFRSYM    DATA     BIT       AC
      00000080H   SFRSYM    DATA     BIT       FSM_FINISH
      00000083H   SFRSYM    DATA     BYTE      DPH0
      000000E8H   SFRSYM    DATA     BIT       AM
      000000A8H   SFRSYM    DATA     BYTE      IE
      00000085H   SFRSYM    DATA     BYTE      DPH1
      00000082H   SFRSYM    DATA     BYTE      DPL0
      00000084H   SFRSYM    DATA     BYTE      DPL1
      00000088H   SFRSYM    DATA     BIT       SSINT
      000000C0H   SFRSYM    DATA     BIT       PULLUP_RES_STATE
      00000088H.1 SFRSYM    DATA     BIT       USINT
      000000B8H   SFRSYM    DATA     BYTE      IP
      00000098H   SFRSYM    DATA     BIT       RI
      000000D0H.7 SFRSYM    DATA     BIT       CY
      00000098H.1 SFRSYM    DATA     BIT       TI
      000000EAH   SFRSYM    DATA     BYTE      MPTRX
      00000093H   SFRSYM    DATA     BYTE      DPX0
      00000095H   SFRSYM    DATA     BYTE      DPX1
      00000081H   SFRSYM    DATA     BYTE      SP
      000000D0H.2 SFRSYM    DATA     BIT       OV
      000000A1H   SFRSYM    DATA     BYTE      CBSL
      00000080H.5 SFRSYM    DATA     BIT       FSM_RESULT
      00000099H   SFRSYM    DATA     BYTE      SBUF
      00000087H   SFRSYM    DATA     BYTE      PCON
      00000088H.3 SFRSYM    DATA     BIT       MFLT
      00000098H   SFRSYM    DATA     BYTE      SCON
      00000089H   SFRSYM    DATA     BYTE      TMOD
      00000088H   SFRSYM    DATA     BYTE      TCON
      00000088H.1 SFRSYM    DATA     BIT       SINT
      000000E8H   SFRSYM    DATA     BYTE      EPSW
      000000F0H   SFRSYM    DATA     BYTE      B
      000000A2H   SFRSYM    DATA     BYTE      MPTR
      000000E0H   SFRSYM    DATA     BYTE      ACC
      00000088H.5 SFRSYM    DATA     BIT       TF0
      00000088H.7 SFRSYM    DATA     BIT       TF1
      0000008CH   SFRSYM    DATA     BYTE      TH0
      000000B2H   SFRSYM    DATA     BYTE      ISOCON
      0000008DH   SFRSYM    DATA     BYTE      TH1
      000000D8H   SFRSYM    DATA     BYTE      SPSW
      000000D0H   SFRSYM    DATA     BIT       P
      0000008AH   SFRSYM    DATA     BYTE      TL0
      0000008BH   SFRSYM    DATA     BYTE      TL1
      000000C0H   SFRSYM    DATA     BYTE      PROGIO
      000000D0H.3 SFRSYM    DATA     BIT       RS0
      00000088H.4 SFRSYM    DATA     BIT       TR0
      000000D0H.4 SFRSYM    DATA     BIT       RS1
      00000080H.1 SFRSYM    DATA     BIT       FSM_START
LX51 LINKER/LOCATER V4.10a                                                            10/17/2007  16:48:09  PAGE 16


      00000088H.6 SFRSYM    DATA     BIT       TR1
      00000083H   SFRSYM    DATA     BYTE      DPH
      000000B4H   SFRSYM    DATA     BYTE      ISOTMR
      00000082H   SFRSYM    DATA     BYTE      DPL
      000000B0H   SFRSYM    DATA     BYTE      SECURITYSTATUS
      00000086H   SFRSYM    DATA     BYTE      DPS
      00000093H   SFRSYM    DATA     BYTE      DPX
      00000080H   SFRSYM    DATA     BYTE      NVFSMCON
      000000F7H   SFRSYM    DATA     BYTE      MFCON
      000000C9H   SFRSYM    DATA     BYTE      NvFsmMode
      000000D0H.5 SFRSYM    DATA     BIT       F0
      000000E8H.1 SFRSYM    DATA     BIT       F1
      000000D0H   SFRSYM    DATA     BYTE      PSW

      01001CE1H   BLOCK     ECODE    ---       LVL=0
      01001CE1H   LINE      ECODE    ---       #47
      01001CE1H   LINE      ECODE    ---       #48
      01001CE1H   LINE      ECODE    ---       #49
      01001CE6H   LINE      ECODE    ---       #51
      01001CEBH   LINE      ECODE    ---       #53
      01001CF0H   LINE      ECODE    ---       #55
      01001CF5H   LINE      ECODE    ---       #57
      01001CFAH   LINE      ECODE    ---       #59
      01001CFFH   LINE      ECODE    ---       #61
      01001D06H   LINE      ECODE    ---       #63
      ---         BLOCKEND  ---      ---       LVL=0

      ---         MODULE    ---      ---       ?C_STARTUP
      01000800H   PUBLIC    CODE     NEAR LAB  ?C_STARTUP
      000000D0H.6 SFRSYM    DATA     BIT       AC
      000000E0H   SFRSYM    DATA     BYTE      ACC
      000000E8H   SFRSYM    DATA     BIT       AM
      000000F0H   SFRSYM    DATA     BYTE      B
      000000A1H   SFRSYM    DATA     BYTE      CBSL
      000000D0H.7 SFRSYM    DATA     BIT       CY
      00000083H   SFRSYM    DATA     BYTE      DPH
      00000083H   SFRSYM    DATA     BYTE      DPH0
      00000085H   SFRSYM    DATA     BYTE      DPH1
      00000082H   SFRSYM    DATA     BYTE      DPL
      00000082H   SFRSYM    DATA     BYTE      DPL0
      00000084H   SFRSYM    DATA     BYTE      DPL1
      00000086H   SFRSYM    DATA     BYTE      DPS
      00000093H   SFRSYM    DATA     BYTE      DPX
      00000093H   SFRSYM    DATA     BYTE      DPX0
      00000095H   SFRSYM    DATA     BYTE      DPX1
      000000E8H   SFRSYM    DATA     BYTE      EPSW
      000000D0H.5 SFRSYM    DATA     BIT       F0
      000000E8H.1 SFRSYM    DATA     BIT       F1
      00000080H   SFRSYM    DATA     BIT       FSM_FINISH
      00000080H.5 SFRSYM    DATA     BIT       FSM_RESULT
      00000080H.1 SFRSYM    DATA     BIT       FSM_START
      000000A8H   SFRSYM    DATA     BYTE      IE
      000000B8H   SFRSYM    DATA     BYTE      IP
      000000B2H   SFRSYM    DATA     BYTE      ISOCON
      000000B4H   SFRSYM    DATA     BYTE      ISOTMR
      000000F7H   SFRSYM    DATA     BYTE      MFCON
      00000088H.3 SFRSYM    DATA     BIT       MFLT
      000000A2H   SFRSYM    DATA     BYTE      MPTR
      000000EAH   SFRSYM    DATA     BYTE      MPTRX
      00000080H   SFRSYM    DATA     BYTE      NVFSMCON
      000000C9H   SFRSYM    DATA     BYTE      NVFSMMODE
      000000D0H.2 SFRSYM    DATA     BIT       OV
      000000D0H   SFRSYM    DATA     BIT       P
      00000087H   SFRSYM    DATA     BYTE      PCON
      000000C0H   SFRSYM    DATA     BYTE      PROGIO
LX51 LINKER/LOCATER V4.10a                                                            10/17/2007  16:48:09  PAGE 17


      000000D0H   SFRSYM    DATA     BYTE      PSW
      000000C0H   SFRSYM    DATA     BIT       PULLUP_RES_STATE
      00000098H   SFRSYM    DATA     BIT       RI
      000000D0H.3 SFRSYM    DATA     BIT       RS0
      000000D0H.4 SFRSYM    DATA     BIT       RS1
      00000099H   SFRSYM    DATA     BYTE      SBUF
      00000098H   SFRSYM    DATA     BYTE      SCON
      000000B0H   SFRSYM    DATA     BYTE      SECURITYSTATUS
      00000088H.1 SFRSYM    DATA     BIT       SINT
      00000081H   SFRSYM    DATA     BYTE      SP
      000000D8H   SFRSYM    DATA     BYTE      SPSW
      00000088H   SFRSYM    DATA     BIT       SSINT
      00000088H   SFRSYM    DATA     BYTE      TCON
      00000088H.5 SFRSYM    DATA     BIT       TF0
      00000088H.7 SFRSYM    DATA     BIT       TF1
      0000008CH   SFRSYM    DATA     BYTE      TH0
      0000008DH   SFRSYM    DATA     BYTE      TH1
      00000098H.1 SFRSYM    DATA     BIT       TI
      0000008AH   SFRSYM    DATA     BYTE      TL0
      0000008BH   SFRSYM    DATA     BYTE      TL1
      00000089H   SFRSYM    DATA     BYTE      TMOD
      00000088H.4 SFRSYM    DATA     BIT       TR0
      00000088H.6 SFRSYM    DATA     BIT       TR1
      00000088H.1 SFRSYM    DATA     BIT       USINT
      00000004H   SYMBOL    NUMBER   ---       APDU_JUMPTABLE_SIZE
      00000000H   SYMBOL    NUMBER   ---       IBPSTACK
      00000100H   SYMBOL    NUMBER   ---       IBPSTACKTOP
      00000100H   SYMBOL    NUMBER   ---       IDATALEN
      010009BEH   SYMBOL    CODE     NEAR LAB  IDATALOOP
      00000000H   SYMBOL    NUMBER   ---       PBPSTACK
      00010000H   SYMBOL    NUMBER   ---       PBPSTACKTOP
      00000000H   SYMBOL    NUMBER   ---       PDATALEN
      00000000H   SYMBOL    NUMBER   ---       PDATASTART
      00000000H   SYMBOL    NUMBER   ---       PPAGE
      00000000H   SYMBOL    NUMBER   ---       PPAGEENABLE
      010009BBH   SYMBOL    CODE     NEAR LAB  STARTUP1
      00000000H   SYMBOL    NUMBER   ---       XBPSTACK
      00010000H   SYMBOL    NUMBER   ---       XBPSTACKTOP
      00001000H   SYMBOL    NUMBER   ---       XDATALEN
      010009CAH   SYMBOL    CODE     NEAR LAB  XDATALOOP
      0003D000H   SYMBOL    NUMBER   ---       XDATASTART
      0003D000H   SYMBOL    NUMBER   ---       XRAM_START_ADDRESS

      01000800H   BLOCK     CODE     NEAR LAB  LVL=0
      01000800H   LINE      CODE     ---       #93
      ---         BLOCKEND  ---      ---       LVL=0

      010009BBH   BLOCK     CODE     NEAR LAB  LVL=0
      010009BBH   LINE      CODE     ---       #101
      010009BDH   LINE      CODE     ---       #102
      010009BEH   LINE      CODE     ---       #103
      010009BFH   LINE      CODE     ---       #104
      010009C1H   LINE      CODE     ---       #109
      010009C5H   LINE      CODE     ---       #110
      010009C7H   LINE      CODE     ---       #116
      010009C9H   LINE      CODE     ---       #119
      010009CAH   LINE      CODE     ---       #120
      010009CBH   LINE      CODE     ---       #121
      010009CCH   LINE      CODE     ---       #122
      010009CEH   LINE      CODE     ---       #123
      010009D0H   LINE      CODE     ---       #163
      010009D3H   LINE      CODE     ---       #164
      ---         BLOCKEND  ---      ---       LVL=0

      ---         MODULE    ---      ---       TT240_ISR
LX51 LINKER/LOCATER V4.10a                                                            10/17/2007  16:48:09  PAGE 18


      01001A36H   PUBLIC    ECODE    ---       Security_Fault_ISR
      01000826H   PUBLIC    ECODE    ---       Serial_ISR
      0100203AH   PUBLIC    ECODE    ---       Timer1_ISR
      0100202BH   PUBLIC    ECODE    ---       Timer0_ISR
      000000D0H.6 SFRSYM    DATA     BIT       AC
      00000080H   SFRSYM    DATA     BIT       FSM_FINISH
      00000083H   SFRSYM    DATA     BYTE      DPH0
      000000E8H   SFRSYM    DATA     BIT       AM
      000000A8H   SFRSYM    DATA     BYTE      IE
      00000085H   SFRSYM    DATA     BYTE      DPH1
      00000082H   SFRSYM    DATA     BYTE      DPL0
      00000084H   SFRSYM    DATA     BYTE      DPL1
      00000088H   SFRSYM    DATA     BIT       SSINT
      000000C0H   SFRSYM    DATA     BIT       PULLUP_RES_STATE
      00000088H.1 SFRSYM    DATA     BIT       USINT
      000000B8H   SFRSYM    DATA     BYTE      IP
      00000098H   SFRSYM    DATA     BIT       RI
      000000D0H.7 SFRSYM    DATA     BIT       CY
      00000098H.1 SFRSYM    DATA     BIT       TI
      000000EAH   SFRSYM    DATA     BYTE      MPTRX
      00000093H   SFRSYM    DATA     BYTE      DPX0
      00000095H   SFRSYM    DATA     BYTE      DPX1
      00000081H   SFRSYM    DATA     BYTE      SP
      000000D0H.2 SFRSYM    DATA     BIT       OV
      000000A1H   SFRSYM    DATA     BYTE      CBSL
      00000080H.5 SFRSYM    DATA     BIT       FSM_RESULT
      00000099H   SFRSYM    DATA     BYTE      SBUF
      00000087H   SFRSYM    DATA     BYTE      PCON
      00000088H.3 SFRSYM    DATA     BIT       MFLT
      00000098H   SFRSYM    DATA     BYTE      SCON
      00000089H   SFRSYM    DATA     BYTE      TMOD
      00000088H   SFRSYM    DATA     BYTE      TCON
      00000088H.1 SFRSYM    DATA     BIT       SINT
      000000E8H   SFRSYM    DATA     BYTE      EPSW
      000000F0H   SFRSYM    DATA     BYTE      B
      000000A2H   SFRSYM    DATA     BYTE      MPTR
      000000E0H   SFRSYM    DATA     BYTE      ACC
      00000088H.5 SFRSYM    DATA     BIT       TF0
      00000088H.7 SFRSYM    DATA     BIT       TF1
      0000008CH   SFRSYM    DATA     BYTE      TH0
      000000B2H   SFRSYM    DATA     BYTE      ISOCON
      0000008DH   SFRSYM    DATA     BYTE      TH1
      000000D8H   SFRSYM    DATA     BYTE      SPSW
      000000D0H   SFRSYM    DATA     BIT       P
      0000008AH   SFRSYM    DATA     BYTE      TL0
      0000008BH   SFRSYM    DATA     BYTE      TL1
      000000C0H   SFRSYM    DATA     BYTE      PROGIO
      000000D0H.3 SFRSYM    DATA     BIT       RS0
      00000088H.4 SFRSYM    DATA     BIT       TR0
      000000D0H.4 SFRSYM    DATA     BIT       RS1
      00000080H.1 SFRSYM    DATA     BIT       FSM_START
      00000088H.6 SFRSYM    DATA     BIT       TR1
      00000083H   SFRSYM    DATA     BYTE      DPH
      000000B4H   SFRSYM    DATA     BYTE      ISOTMR
      00000082H   SFRSYM    DATA     BYTE      DPL
      000000B0H   SFRSYM    DATA     BYTE      SECURITYSTATUS
      00000086H   SFRSYM    DATA     BYTE      DPS
      00000093H   SFRSYM    DATA     BYTE      DPX
      00000080H   SFRSYM    DATA     BYTE      NVFSMCON
      000000F7H   SFRSYM    DATA     BYTE      MFCON
      000000C9H   SFRSYM    DATA     BYTE      NvFsmMode
      000000D0H.5 SFRSYM    DATA     BIT       F0
      000000E8H.1 SFRSYM    DATA     BIT       F1
      000000D0H   SFRSYM    DATA     BYTE      PSW

LX51 LINKER/LOCATER V4.10a                                                            10/17/2007  16:48:09  PAGE 19


      0100202BH   BLOCK     ECODE    ---       LVL=0
      0100202BH   LINE      ECODE    ---       #66
      01002032H   LINE      ECODE    ---       #68
      01002035H   LINE      ECODE    ---       #69
      ---         BLOCKEND  ---      ---       LVL=0

      0100203AH   BLOCK     ECODE    ---       LVL=0
      0100203AH   LINE      ECODE    ---       #80
      01002041H   LINE      ECODE    ---       #82
      01002044H   LINE      ECODE    ---       #83
      ---         BLOCKEND  ---      ---       LVL=0

      01000826H   BLOCK     ECODE    ---       LVL=0
      01000826H   LINE      ECODE    ---       #94
      01000826H   LINE      ECODE    ---       #97
      ---         BLOCKEND  ---      ---       LVL=0

      01001A36H   BLOCK     ECODE    ---       LVL=0
      01001A36H   LINE      ECODE    ---       #108
      01001A55H   LINE      ECODE    ---       #112
      01001A5AH   LINE      ECODE    ---       #114
      01001A5FH   LINE      ECODE    ---       #116
      01001A62H   LINE      ECODE    ---       #130
      ---         BLOCKEND  ---      ---       LVL=0

      ---         MODULE    ---      ---       TT240_MASS_ERASE_UCM_LEAVING_BOOTLOADER
      01000B5DH   PUBLIC    CODE     NEAR LAB  _MASS_ERASE_UCM_LEAVING_BOOTLOADER
      01000B5DH   PUBLIC    CODE     NEAR LAB  MASS_ERASE_UCM_LEAVING_BOOTLOADER
      000000D0H.6 SFRSYM    DATA     BIT       AC
      000000E0H   SFRSYM    DATA     BYTE      ACC
      000000E8H   SFRSYM    DATA     BIT       AM
      000000F0H   SFRSYM    DATA     BYTE      B
      000000A1H   SFRSYM    DATA     BYTE      CBSL
      000000D0H.7 SFRSYM    DATA     BIT       CY
      00000083H   SFRSYM    DATA     BYTE      DPH
      00000083H   SFRSYM    DATA     BYTE      DPH0
      00000085H   SFRSYM    DATA     BYTE      DPH1
      00000082H   SFRSYM    DATA     BYTE      DPL
      00000082H   SFRSYM    DATA     BYTE      DPL0
      00000084H   SFRSYM    DATA     BYTE      DPL1
      00000086H   SFRSYM    DATA     BYTE      DPS
      00000093H   SFRSYM    DATA     BYTE      DPX
      00000093H   SFRSYM    DATA     BYTE      DPX0
      00000095H   SFRSYM    DATA     BYTE      DPX1
      000000E8H   SFRSYM    DATA     BYTE      EPSW
      000000D0H.5 SFRSYM    DATA     BIT       F0
      000000E8H.1 SFRSYM    DATA     BIT       F1
      00000080H   SFRSYM    DATA     BIT       FSM_FINISH
      00000080H.5 SFRSYM    DATA     BIT       FSM_RESULT
      00000080H.1 SFRSYM    DATA     BIT       FSM_START
      000000A8H   SFRSYM    DATA     BYTE      IE
      000000B8H   SFRSYM    DATA     BYTE      IP
      000000B2H   SFRSYM    DATA     BYTE      ISOCON
      000000B4H   SFRSYM    DATA     BYTE      ISOTMR
      000000F7H   SFRSYM    DATA     BYTE      MFCON
      00000088H.3 SFRSYM    DATA     BIT       MFLT
      000000A2H   SFRSYM    DATA     BYTE      MPTR
      000000EAH   SFRSYM    DATA     BYTE      MPTRX
      00000080H   SFRSYM    DATA     BYTE      NVFSMCON
      000000C9H   SFRSYM    DATA     BYTE      NVFSMMODE
      000000D0H.2 SFRSYM    DATA     BIT       OV
      000000D0H   SFRSYM    DATA     BIT       P
      00000087H   SFRSYM    DATA     BYTE      PCON
      000000C0H   SFRSYM    DATA     BYTE      PROGIO
      000000D0H   SFRSYM    DATA     BYTE      PSW
LX51 LINKER/LOCATER V4.10a                                                            10/17/2007  16:48:09  PAGE 20


      000000C0H   SFRSYM    DATA     BIT       PULLUP_RES_STATE
      00000098H   SFRSYM    DATA     BIT       RI
      000000D0H.3 SFRSYM    DATA     BIT       RS0
      000000D0H.4 SFRSYM    DATA     BIT       RS1
      00000099H   SFRSYM    DATA     BYTE      SBUF
      00000098H   SFRSYM    DATA     BYTE      SCON
      000000B0H   SFRSYM    DATA     BYTE      SECURITYSTATUS
      00000088H.1 SFRSYM    DATA     BIT       SINT
      00000081H   SFRSYM    DATA     BYTE      SP
      000000D8H   SFRSYM    DATA     BYTE      SPSW
      00000088H   SFRSYM    DATA     BIT       SSINT
      00000088H   SFRSYM    DATA     BYTE      TCON
      00000088H.5 SFRSYM    DATA     BIT       TF0
      00000088H.7 SFRSYM    DATA     BIT       TF1
      0000008CH   SFRSYM    DATA     BYTE      TH0
      0000008DH   SFRSYM    DATA     BYTE      TH1
      00000098H.1 SFRSYM    DATA     BIT       TI
      0000008AH   SFRSYM    DATA     BYTE      TL0
      0000008BH   SFRSYM    DATA     BYTE      TL1
      00000089H   SFRSYM    DATA     BYTE      TMOD
      00000088H.4 SFRSYM    DATA     BIT       TR0
      00000088H.6 SFRSYM    DATA     BIT       TR1
      00000088H.1 SFRSYM    DATA     BIT       USINT
      00000004H   SYMBOL    NUMBER   ---       APDU_JUMPTABLE_SIZE
      01000B66H   SYMBOL    CODE     NEAR LAB  COPY_CODE_AND_JUMP_FOREVER_LOOP_TO_XRAM_AND_JUMP_TO_IT
      01000B6DH   SYMBOL    CODE     NEAR LAB  COPY_XRAM_CODE_LOOP
      01000BCEH   SYMBOL    CODE     NEAR LAB  END_MASS_ERASE_CODE_TO_GO_INTO_XRAM
      01000B9AH   SYMBOL    CODE     NEAR LAB  MASS_ERASE_CODE_TO_GO_INTO_XRAM
      01000BA8H   SYMBOL    CODE     NEAR LAB  MASS_ERASE_UCM__BOOTLOADER_SAFE__LOOP
      0003D000H   SYMBOL    NUMBER   ---       XRAM_CODE_LOCATION
      0003D100H   SYMBOL    NUMBER   ---       XRAM_LOOP_FOREVER_ADDR
      0003D000H   SYMBOL    NUMBER   ---       XRAM_START_ADDRESS

      01000B5DH   BLOCK     CODE     NEAR LAB  LVL=0
      01000B5DH   LINE      CODE     ---       #59
      01000B5FH   LINE      CODE     ---       #61
      01000B62H   LINE      CODE     ---       #62
      01000B66H   LINE      CODE     ---       #65
      01000B69H   LINE      CODE     ---       #66
      01000B6DH   LINE      CODE     ---       #69
      01000B70H   LINE      CODE     ---       #70
      01000B71H   LINE      CODE     ---       #71
      01000B72H   LINE      CODE     ---       #72
      01000B73H   LINE      CODE     ---       #74
      01000B76H   LINE      CODE     ---       #75
      01000B77H   LINE      CODE     ---       #76
      01000B78H   LINE      CODE     ---       #77
      01000B7AH   LINE      CODE     ---       #80
      01000B7EH   LINE      CODE     ---       #81
      01000B80H   LINE      CODE     ---       #82
      01000B81H   LINE      CODE     ---       #83
      01000B82H   LINE      CODE     ---       #84
      01000B84H   LINE      CODE     ---       #85
      01000B85H   LINE      CODE     ---       #86
      01000B86H   LINE      CODE     ---       #87
      01000B88H   LINE      CODE     ---       #88
      01000B89H   LINE      CODE     ---       #89
      01000B8AH   LINE      CODE     ---       #90
      01000B8CH   LINE      CODE     ---       #91
      01000B8DH   LINE      CODE     ---       #93
      01000B90H   LINE      CODE     ---       #96
      01000B92H   LINE      CODE     ---       #97
      01000B96H   LINE      CODE     ---       #100
      ---         BLOCKEND  ---      ---       LVL=0

LX51 LINKER/LOCATER V4.10a                                                            10/17/2007  16:48:09  PAGE 21


      01000B9AH   BLOCK     CODE     NEAR LAB  LVL=0
      01000B9AH   LINE      CODE     ---       #113
      01000B9CH   LINE      CODE     ---       #114
      01000B9EH   LINE      CODE     ---       #115
      01000BA2H   LINE      CODE     ---       #118
      01000BA6H   LINE      CODE     ---       #119
      01000BA8H   LINE      CODE     ---       #123
      01000BABH   LINE      CODE     ---       #124
      01000BACH   LINE      CODE     ---       #125
      01000BAFH   LINE      CODE     ---       #126
      01000BB2H   LINE      CODE     ---       #128
      01000BB4H   LINE      CODE     ---       #130
      01000BB6H   LINE      CODE     ---       #131
      01000BB8H   LINE      CODE     ---       #133
      01000BBAH   LINE      CODE     ---       #135
      01000BBDH   LINE      CODE     ---       #136
      01000BC0H   LINE      CODE     ---       #137
      01000BC2H   LINE      CODE     ---       #139
      01000BC5H   LINE      CODE     ---       #140
      01000BC8H   LINE      CODE     ---       #141
      01000BCAH   LINE      CODE     ---       #143
      ---         BLOCKEND  ---      ---       LVL=0

      ---         MODULE    ---      ---       TT240_API_JUMPTABLE
      01000AACH   PUBLIC    CODE     NEAR LAB  _FIRMWARE_ERASEPAGEUCM
      01000AACH   PUBLIC    CODE     NEAR LAB  _FIRMWARE_ERASEUCM256BYTES
      01000AC0H   PUBLIC    CODE     NEAR LAB  _FIRMWARE_ERASEUCM512BYTES
      010001D0H   PUBLIC    CODE     NEAR LAB  _FIRMWARE_ERASEUCMBLOCK
      010001DFH   PUBLIC    CODE     NEAR LAB  _FIRMWARE_GETCHIPID
      010001EBH   PUBLIC    CODE     NEAR LAB  _FIRMWARE_GETCLOCKCONTROLSFR
      010001E8H   PUBLIC    CODE     NEAR LAB  _FIRMWARE_GETCLOCKSOURCESELECTSFR
      010001EEH   PUBLIC    CODE     NEAR LAB  _FIRMWARE_GETDIAGNOSTICDATA
      010001E2H   PUBLIC    CODE     NEAR LAB  _FIRMWARE_GETFIRMWAREVERSION
      010001F1H   PUBLIC    CODE     NEAR LAB  _FIRMWARE_GETRANDOMNUMBER
      01000B10H   PUBLIC    CODE     NEAR LAB  _FIRMWARE_MASSERASEUCM
      010001F7H   PUBLIC    CODE     NEAR LAB  _FIRMWARE_SET_IO_PULLUP
      010001E5H   PUBLIC    CODE     NEAR LAB  _FIRMWARE_SETCLOCK
      010001CDH   PUBLIC    CODE     NEAR LAB  _FIRMWARE_SETCLOCKTRIM
      010001D9H   PUBLIC    CODE     NEAR LAB  _FIRMWARE_SETEXECUTEONLYSTATUS
      01000B47H   PUBLIC    CODE     NEAR LAB  _FIRMWARE_SETINTERRUPTENABLE
      010001DCH   PUBLIC    CODE     NEAR LAB  _FIRMWARE_SETPROTECTSTATUS
      010001D3H   PUBLIC    CODE     NEAR LAB  _FIRMWARE_SETSECURITYACTION
      010001D6H   PUBLIC    CODE     NEAR LAB  _FIRMWARE_SETSECURITYMASK
      010001F4H   PUBLIC    CODE     NEAR LAB  _FIRMWARE_SRAM_CLEAR
      01000A93H   PUBLIC    CODE     NEAR LAB  _FIRMWARE_USE_EMULATOR_API
      01000B22H   PUBLIC    CODE     NEAR LAB  _FIRMWARE_WRITEBYTEUCM
      01000AACH   PUBLIC    CODE     NEAR LAB  FIRMWARE_ERASEPAGEUCM
      01000AACH   PUBLIC    CODE     NEAR LAB  FIRMWARE_ERASEUCM256BYTES
      01000AC0H   PUBLIC    CODE     NEAR LAB  FIRMWARE_ERASEUCM512BYTES
      010001D0H   PUBLIC    CODE     NEAR LAB  FIRMWARE_ERASEUCMBLOCK
      010001DFH   PUBLIC    CODE     NEAR LAB  FIRMWARE_GETCHIPID
      010001EBH   PUBLIC    CODE     NEAR LAB  FIRMWARE_GETCLOCKCONTROLSFR
      010001E8H   PUBLIC    CODE     NEAR LAB  FIRMWARE_GETCLOCKSOURCESELECTSFR
      010001EEH   PUBLIC    CODE     NEAR LAB  FIRMWARE_GETDIAGNOSTICDATA
      010001E2H   PUBLIC    CODE     NEAR LAB  FIRMWARE_GETFIRMWAREVERSION
      01000B52H   PUBLIC    CODE     NEAR LAB  FIRMWARE_GETINTERRUPTENABLE
      010001F1H   PUBLIC    CODE     NEAR LAB  FIRMWARE_GETRANDOMNUMBER
      01000A8FH   PUBLIC    CODE     NEAR LAB  FIRMWARE_INIT
      01000B10H   PUBLIC    CODE     NEAR LAB  FIRMWARE_MASSERASEUCM
      010001F7H   PUBLIC    CODE     NEAR LAB  FIRMWARE_SET_IO_PULLUP
      010001E5H   PUBLIC    CODE     NEAR LAB  FIRMWARE_SETCLOCK
      010001CDH   PUBLIC    CODE     NEAR LAB  FIRMWARE_SETCLOCKTRIM
      010001D9H   PUBLIC    CODE     NEAR LAB  FIRMWARE_SETEXECUTEONLYSTATUS
      010001DCH   PUBLIC    CODE     NEAR LAB  FIRMWARE_SETPROTECTSTATUS
      010001D3H   PUBLIC    CODE     NEAR LAB  FIRMWARE_SETSECURITYACTION
LX51 LINKER/LOCATER V4.10a                                                            10/17/2007  16:48:09  PAGE 22


      010001D6H   PUBLIC    CODE     NEAR LAB  FIRMWARE_SETSECURITYMASK
      010001F4H   PUBLIC    CODE     NEAR LAB  FIRMWARE_SRAM_CLEAR
      01000B22H   PUBLIC    CODE     NEAR LAB  FIRMWARE_WRITEBYTEUCM
      000000D0H.6 SFRSYM    DATA     BIT       AC
      000000E0H   SFRSYM    DATA     BYTE      ACC
      000000E8H   SFRSYM    DATA     BIT       AM
      000000F0H   SFRSYM    DATA     BYTE      B
      000000A1H   SFRSYM    DATA     BYTE      CBSL
      000000D0H.7 SFRSYM    DATA     BIT       CY
      00000083H   SFRSYM    DATA     BYTE      DPH
      00000083H   SFRSYM    DATA     BYTE      DPH0
      00000085H   SFRSYM    DATA     BYTE      DPH1
      00000082H   SFRSYM    DATA     BYTE      DPL
      00000082H   SFRSYM    DATA     BYTE      DPL0
      00000084H   SFRSYM    DATA     BYTE      DPL1
      00000086H   SFRSYM    DATA     BYTE      DPS
      00000093H   SFRSYM    DATA     BYTE      DPX
      00000093H   SFRSYM    DATA     BYTE      DPX0
      00000095H   SFRSYM    DATA     BYTE      DPX1
      000000E8H   SFRSYM    DATA     BYTE      EPSW
      000000D0H.5 SFRSYM    DATA     BIT       F0
      000000E8H.1 SFRSYM    DATA     BIT       F1
      00000080H   SFRSYM    DATA     BIT       FSM_FINISH
      00000080H.5 SFRSYM    DATA     BIT       FSM_RESULT
      00000080H.1 SFRSYM    DATA     BIT       FSM_START
      000000A8H   SFRSYM    DATA     BYTE      IE
      000000B8H   SFRSYM    DATA     BYTE      IP
      000000B2H   SFRSYM    DATA     BYTE      ISOCON
      000000B4H   SFRSYM    DATA     BYTE      ISOTMR
      000000F7H   SFRSYM    DATA     BYTE      MFCON
      00000088H.3 SFRSYM    DATA     BIT       MFLT
      000000A2H   SFRSYM    DATA     BYTE      MPTR
      000000EAH   SFRSYM    DATA     BYTE      MPTRX
      00000080H   SFRSYM    DATA     BYTE      NVFSMCON
      000000C9H   SFRSYM    DATA     BYTE      NVFSMMODE
      000000D0H.2 SFRSYM    DATA     BIT       OV
      000000D0H   SFRSYM    DATA     BIT       P
      00000087H   SFRSYM    DATA     BYTE      PCON
      000000C0H   SFRSYM    DATA     BYTE      PROGIO
      000000D0H   SFRSYM    DATA     BYTE      PSW
      000000C0H   SFRSYM    DATA     BIT       PULLUP_RES_STATE
      00000098H   SFRSYM    DATA     BIT       RI
      000000D0H.3 SFRSYM    DATA     BIT       RS0
      000000D0H.4 SFRSYM    DATA     BIT       RS1
      00000099H   SFRSYM    DATA     BYTE      SBUF
      00000098H   SFRSYM    DATA     BYTE      SCON
      000000B0H   SFRSYM    DATA     BYTE      SECURITYSTATUS
      00000088H.1 SFRSYM    DATA     BIT       SINT
      00000081H   SFRSYM    DATA     BYTE      SP
      000000D8H   SFRSYM    DATA     BYTE      SPSW
      00000088H   SFRSYM    DATA     BIT       SSINT
      00000088H   SFRSYM    DATA     BYTE      TCON
      00000088H.5 SFRSYM    DATA     BIT       TF0
      00000088H.7 SFRSYM    DATA     BIT       TF1
      0000008CH   SFRSYM    DATA     BYTE      TH0
      0000008DH   SFRSYM    DATA     BYTE      TH1
      00000098H.1 SFRSYM    DATA     BIT       TI
      0000008AH   SFRSYM    DATA     BYTE      TL0
      0000008BH   SFRSYM    DATA     BYTE      TL1
      00000089H   SFRSYM    DATA     BYTE      TMOD
      00000088H.4 SFRSYM    DATA     BIT       TR0
      00000088H.6 SFRSYM    DATA     BIT       TR1
      00000088H.1 SFRSYM    DATA     BIT       USINT
      01000200H   SYMBOL    CODE     NEAR LAB  _FIRMWARE_API_ERASEPAGEUCM
      01000206H   SYMBOL    CODE     NEAR LAB  _FIRMWARE_API_GETINTERRUPTENABLE
LX51 LINKER/LOCATER V4.10a                                                            10/17/2007  16:48:09  PAGE 23


      010001FDH   SYMBOL    CODE     NEAR LAB  _FIRMWARE_API_MASSERASEUCM
      01000203H   SYMBOL    CODE     NEAR LAB  _FIRMWARE_API_SETINTERRUPTENABLE
      010001FAH   SYMBOL    CODE     NEAR LAB  _FIRMWARE_API_WRITEBYTEUCM
      01000AA9H   SYMBOL    CODE     NEAR LAB  _FIRMWARE_USE_EMULATOR_API_FAIL
      01000AA6H   SYMBOL    CODE     NEAR LAB  _FIRMWARE_USE_EMULATOR_API_SUCCESS
      01000B0DH   SYMBOL    CODE     NEAR LAB  ADDRESS_ERROR
      01000B08H   SYMBOL    CODE     NEAR LAB  ADDRESS_VALID
      01000AFCH   SYMBOL    CODE     NEAR LAB  CHECK_HIGH_ADDRESS_BOUNDARY
      01000ABCH   SYMBOL    CODE     NEAR LAB  ERASEPAGEUCM_EMULATOR
      01000AD0H   SYMBOL    CODE     NEAR LAB  ERASEUCM512BYTES_EMULATOR
      01000200H   SYMBOL    CODE     NEAR LAB  FIRMWARE_API_ERASEPAGEUCM
      01000206H   SYMBOL    CODE     NEAR LAB  FIRMWARE_API_GETINTERRUPTENABLE
      010001FDH   SYMBOL    CODE     NEAR LAB  FIRMWARE_API_MASSERASEUCM
      01000B37H   SYMBOL    CODE     NEAR LAB  FIRMWARE_API_RUN_STATE_MACHINE
      01000B46H   SYMBOL    CODE     NEAR LAB  FIRMWARE_API_RUN_STATE_MACHINE__RETURN
      01000203H   SYMBOL    CODE     NEAR LAB  FIRMWARE_API_SETINTERRUPTENABLE
      010001FAH   SYMBOL    CODE     NEAR LAB  FIRMWARE_API_WRITEBYTEUCM
      01000B59H   SYMBOL    CODE     NEAR LAB  GETINTERRUPTENABLE_EMULATOR
      01000AE9H   SYMBOL    CODE     NEAR LAB  LOAD_DPTR
      01000B1EH   SYMBOL    CODE     NEAR LAB  MASSERASEUCM_EMULATOR
      01000B0AH   SYMBOL    CODE     NEAR LAB  RETURN_ERROR
      01000B4EH   SYMBOL    CODE     NEAR LAB  SETINTERRUPTENABLE_EMULATOR
      0000004BH   SYMBOL    DATA     BYTE      TEMP_ADDR_DPX
      0000004CH   SYMBOL    DATA     BYTE      TEMP_ADDR_HI
      0000004DH   SYMBOL    DATA     BYTE      USE_EMULATOR_API
      01000B33H   SYMBOL    CODE     NEAR LAB  WRITEBYTEUCM_EMULATOR

      01000A8FH   BLOCK     CODE     NEAR LAB  LVL=0
      01000A8FH   LINE      CODE     ---       #166
      01000A92H   LINE      CODE     ---       #168
      01000A93H   LINE      CODE     ---       #206
      01000A94H   LINE      CODE     ---       #207
      01000A97H   LINE      CODE     ---       #208
      01000A99H   LINE      CODE     ---       #210
      01000A9DH   LINE      CODE     ---       #211
      01000A9EH   LINE      CODE     ---       #212
      01000A9FH   LINE      CODE     ---       #213
      01000AA1H   LINE      CODE     ---       #214
      01000AA3H   LINE      CODE     ---       #216
      01000AA6H   LINE      CODE     ---       #221
      01000AA8H   LINE      CODE     ---       #222
      01000AA9H   LINE      CODE     ---       #225
      01000AABH   LINE      CODE     ---       #226
      01000AACH   LINE      CODE     ---       #236
      01000AAFH   LINE      CODE     ---       #239
      01000AB1H   LINE      CODE     ---       #243
      01000AB3H   LINE      CODE     ---       #244
      01000AB5H   LINE      CODE     ---       #246
      01000AB8H   LINE      CODE     ---       #247
      01000AB9H   LINE      CODE     ---       #248
      01000ABCH   LINE      CODE     ---       #252
      01000AC0H   LINE      CODE     ---       #258
      01000AC3H   LINE      CODE     ---       #261
      01000AC5H   LINE      CODE     ---       #265
      01000AC7H   LINE      CODE     ---       #266
      01000AC9H   LINE      CODE     ---       #268
      01000ACCH   LINE      CODE     ---       #269
      01000ACDH   LINE      CODE     ---       #270
      01000AD0H   LINE      CODE     ---       #275
      01000AD1H   LINE      CODE     ---       #276
      01000AD3H   LINE      CODE     ---       #277
      01000AD4H   LINE      CODE     ---       #278
      01000AD6H   LINE      CODE     ---       #279
      01000AD8H   LINE      CODE     ---       #281
      01000ADAH   LINE      CODE     ---       #282
LX51 LINKER/LOCATER V4.10a                                                            10/17/2007  16:48:09  PAGE 24


      01000ADEH   LINE      CODE     ---       #284
      01000AE0H   LINE      CODE     ---       #285
      01000AE2H   LINE      CODE     ---       #286
      01000AE3H   LINE      CODE     ---       #287
      01000AE5H   LINE      CODE     ---       #288
      01000AE9H   LINE      CODE     ---       #293
      01000AEBH   LINE      CODE     ---       #294
      01000AEDH   LINE      CODE     ---       #295
      01000AEFH   LINE      CODE     ---       #300
      01000AF0H   LINE      CODE     ---       #301
      01000AF2H   LINE      CODE     ---       #302
      01000AF4H   LINE      CODE     ---       #304
      01000AF6H   LINE      CODE     ---       #305
      01000AF8H   LINE      CODE     ---       #306
      01000AFAH   LINE      CODE     ---       #308
      01000AFBH   LINE      CODE     ---       #310
      01000AFCH   LINE      CODE     ---       #313
      01000AFEH   LINE      CODE     ---       #314
      01000B00H   LINE      CODE     ---       #315
      01000B02H   LINE      CODE     ---       #317
      01000B04H   LINE      CODE     ---       #318
      01000B06H   LINE      CODE     ---       #319
      01000B08H   LINE      CODE     ---       #322
      01000B09H   LINE      CODE     ---       #324
      01000B0AH   LINE      CODE     ---       #327
      01000B0CH   LINE      CODE     ---       #329
      01000B0DH   LINE      CODE     ---       #334
      01000B0FH   LINE      CODE     ---       #336
      01000B10H   LINE      CODE     ---       #345
      01000B12H   LINE      CODE     ---       #346
      01000B14H   LINE      CODE     ---       #352
      01000B17H   LINE      CODE     ---       #353
      01000B1AH   LINE      CODE     ---       #354
      01000B1DH   LINE      CODE     ---       #356
      01000B1EH   LINE      CODE     ---       #359
      01000B22H   LINE      CODE     ---       #365
      01000B25H   LINE      CODE     ---       #368
      01000B27H   LINE      CODE     ---       #372
      01000B29H   LINE      CODE     ---       #373
      01000B2BH   LINE      CODE     ---       #375
      01000B2CH   LINE      CODE     ---       #377
      01000B2FH   LINE      CODE     ---       #378
      01000B30H   LINE      CODE     ---       #379
      01000B33H   LINE      CODE     ---       #382
      01000B37H   LINE      CODE     ---       #389
      01000B3AH   LINE      CODE     ---       #390
      01000B3DH   LINE      CODE     ---       #393
      01000B3FH   LINE      CODE     ---       #398
      01000B41H   LINE      CODE     ---       #399
      01000B44H   LINE      CODE     ---       #400
      01000B46H   LINE      CODE     ---       #404
      01000B47H   LINE      CODE     ---       #411
      01000B49H   LINE      CODE     ---       #412
      01000B4BH   LINE      CODE     ---       #415
      01000B4DH   LINE      CODE     ---       #416
      01000B4EH   LINE      CODE     ---       #419
      01000B52H   LINE      CODE     ---       #428
      01000B54H   LINE      CODE     ---       #429
      01000B56H   LINE      CODE     ---       #432
      01000B58H   LINE      CODE     ---       #433
      01000B59H   LINE      CODE     ---       #436
      ---         BLOCKEND  ---      ---       LVL=0

      ---         MODULE    ---      ---       TT240_SRAM_CLEAR
      01002049H   PUBLIC    ECODE    ---       TT240_SRAM_Clear
LX51 LINKER/LOCATER V4.10a                                                            10/17/2007  16:48:09  PAGE 25


      000000D0H.6 SFRSYM    DATA     BIT       AC
      00000080H   SFRSYM    DATA     BIT       FSM_FINISH
      00000083H   SFRSYM    DATA     BYTE      DPH0
      000000E8H   SFRSYM    DATA     BIT       AM
      000000A8H   SFRSYM    DATA     BYTE      IE
      00000085H   SFRSYM    DATA     BYTE      DPH1
      00000082H   SFRSYM    DATA     BYTE      DPL0
      00000084H   SFRSYM    DATA     BYTE      DPL1
      00000088H   SFRSYM    DATA     BIT       SSINT
      000000C0H   SFRSYM    DATA     BIT       PULLUP_RES_STATE
      00000088H.1 SFRSYM    DATA     BIT       USINT
      000000B8H   SFRSYM    DATA     BYTE      IP
      00000098H   SFRSYM    DATA     BIT       RI
      000000D0H.7 SFRSYM    DATA     BIT       CY
      00000098H.1 SFRSYM    DATA     BIT       TI
      000000EAH   SFRSYM    DATA     BYTE      MPTRX
      00000093H   SFRSYM    DATA     BYTE      DPX0
      00000095H   SFRSYM    DATA     BYTE      DPX1
      00000081H   SFRSYM    DATA     BYTE      SP
      000000D0H.2 SFRSYM    DATA     BIT       OV
      000000A1H   SFRSYM    DATA     BYTE      CBSL
      00000080H.5 SFRSYM    DATA     BIT       FSM_RESULT
      00000099H   SFRSYM    DATA     BYTE      SBUF
      00000087H   SFRSYM    DATA     BYTE      PCON
      00000088H.3 SFRSYM    DATA     BIT       MFLT
      00000098H   SFRSYM    DATA     BYTE      SCON
      00000089H   SFRSYM    DATA     BYTE      TMOD
      00000088H   SFRSYM    DATA     BYTE      TCON
      00000088H.1 SFRSYM    DATA     BIT       SINT
      000000E8H   SFRSYM    DATA     BYTE      EPSW
      000000F0H   SFRSYM    DATA     BYTE      B
      000000A2H   SFRSYM    DATA     BYTE      MPTR
      000000E0H   SFRSYM    DATA     BYTE      ACC
      00000088H.5 SFRSYM    DATA     BIT       TF0
      00000088H.7 SFRSYM    DATA     BIT       TF1
      0000008CH   SFRSYM    DATA     BYTE      TH0
      000000B2H   SFRSYM    DATA     BYTE      ISOCON
      0000008DH   SFRSYM    DATA     BYTE      TH1
      000000D8H   SFRSYM    DATA     BYTE      SPSW
      000000D0H   SFRSYM    DATA     BIT       P
      0000008AH   SFRSYM    DATA     BYTE      TL0
      0000008BH   SFRSYM    DATA     BYTE      TL1
      000000C0H   SFRSYM    DATA     BYTE      PROGIO
      000000D0H.3 SFRSYM    DATA     BIT       RS0
      00000088H.4 SFRSYM    DATA     BIT       TR0
      000000D0H.4 SFRSYM    DATA     BIT       RS1
      00000080H.1 SFRSYM    DATA     BIT       FSM_START
      00000088H.6 SFRSYM    DATA     BIT       TR1
      00000083H   SFRSYM    DATA     BYTE      DPH
      000000B4H   SFRSYM    DATA     BYTE      ISOTMR
      00000082H   SFRSYM    DATA     BYTE      DPL
      000000B0H   SFRSYM    DATA     BYTE      SECURITYSTATUS
      00000086H   SFRSYM    DATA     BYTE      DPS
      00000093H   SFRSYM    DATA     BYTE      DPX
      00000080H   SFRSYM    DATA     BYTE      NVFSMCON
      000000F7H   SFRSYM    DATA     BYTE      MFCON
      000000C9H   SFRSYM    DATA     BYTE      NvFsmMode
      000000D0H.5 SFRSYM    DATA     BIT       F0
      000000E8H.1 SFRSYM    DATA     BIT       F1
      000000D0H   SFRSYM    DATA     BYTE      PSW

      01002049H   BLOCK     ECODE    ---       LVL=0
      01002049H   LINE      ECODE    ---       #57
      01002049H   LINE      ECODE    ---       #58
      01002049H   LINE      ECODE    ---       #59
LX51 LINKER/LOCATER V4.10a                                                            10/17/2007  16:48:09  PAGE 26


      01002050H   LINE      ECODE    ---       #61
      01002054H   LINE      ECODE    ---       #63
      ---         BLOCKEND  ---      ---       LVL=0

      ---         MODULE    ---      ---       CHIP_INIT
      01001EF0H   PUBLIC    ECODE    ---       Chip_Init
      000000D0H.6 SFRSYM    DATA     BIT       AC
      00000080H   SFRSYM    DATA     BIT       FSM_FINISH
      00000083H   SFRSYM    DATA     BYTE      DPH0
      000000E8H   SFRSYM    DATA     BIT       AM
      000000A8H   SFRSYM    DATA     BYTE      IE
      00000085H   SFRSYM    DATA     BYTE      DPH1
      00000082H   SFRSYM    DATA     BYTE      DPL0
      00000084H   SFRSYM    DATA     BYTE      DPL1
      00000088H   SFRSYM    DATA     BIT       SSINT
      000000C0H   SFRSYM    DATA     BIT       PULLUP_RES_STATE
      00000088H.1 SFRSYM    DATA     BIT       USINT
      000000B8H   SFRSYM    DATA     BYTE      IP
      00000098H   SFRSYM    DATA     BIT       RI
      000000D0H.7 SFRSYM    DATA     BIT       CY
      00000098H.1 SFRSYM    DATA     BIT       TI
      000000EAH   SFRSYM    DATA     BYTE      MPTRX
      00000093H   SFRSYM    DATA     BYTE      DPX0
      00000095H   SFRSYM    DATA     BYTE      DPX1
      00000081H   SFRSYM    DATA     BYTE      SP
      000000D0H.2 SFRSYM    DATA     BIT       OV
      000000A1H   SFRSYM    DATA     BYTE      CBSL
      00000080H.5 SFRSYM    DATA     BIT       FSM_RESULT
      00000099H   SFRSYM    DATA     BYTE      SBUF
      00000087H   SFRSYM    DATA     BYTE      PCON
      00000088H.3 SFRSYM    DATA     BIT       MFLT
      00000098H   SFRSYM    DATA     BYTE      SCON
      00000089H   SFRSYM    DATA     BYTE      TMOD
      00000088H   SFRSYM    DATA     BYTE      TCON
      00000088H.1 SFRSYM    DATA     BIT       SINT
      000000E8H   SFRSYM    DATA     BYTE      EPSW
      000000F0H   SFRSYM    DATA     BYTE      B
      000000A2H   SFRSYM    DATA     BYTE      MPTR
      000000E0H   SFRSYM    DATA     BYTE      ACC
      00000088H.5 SFRSYM    DATA     BIT       TF0
      00000088H.7 SFRSYM    DATA     BIT       TF1
      0000008CH   SFRSYM    DATA     BYTE      TH0
      000000B2H   SFRSYM    DATA     BYTE      ISOCON
      0000008DH   SFRSYM    DATA     BYTE      TH1
      000000D8H   SFRSYM    DATA     BYTE      SPSW
      000000D0H   SFRSYM    DATA     BIT       P
      0000008AH   SFRSYM    DATA     BYTE      TL0
      0000008BH   SFRSYM    DATA     BYTE      TL1
      000000C0H   SFRSYM    DATA     BYTE      PROGIO
      000000D0H.3 SFRSYM    DATA     BIT       RS0
      00000088H.4 SFRSYM    DATA     BIT       TR0
      000000D0H.4 SFRSYM    DATA     BIT       RS1
      00000080H.1 SFRSYM    DATA     BIT       FSM_START
      00000088H.6 SFRSYM    DATA     BIT       TR1
      00000083H   SFRSYM    DATA     BYTE      DPH
      000000B4H   SFRSYM    DATA     BYTE      ISOTMR
      00000082H   SFRSYM    DATA     BYTE      DPL
      000000B0H   SFRSYM    DATA     BYTE      SECURITYSTATUS
      00000086H   SFRSYM    DATA     BYTE      DPS
      00000093H   SFRSYM    DATA     BYTE      DPX
      00000080H   SFRSYM    DATA     BYTE      NVFSMCON
      000000F7H   SFRSYM    DATA     BYTE      MFCON
      000000C9H   SFRSYM    DATA     BYTE      NvFsmMode
      000000D0H.5 SFRSYM    DATA     BIT       F0
      000000E8H.1 SFRSYM    DATA     BIT       F1
LX51 LINKER/LOCATER V4.10a                                                            10/17/2007  16:48:09  PAGE 27


      000000D0H   SFRSYM    DATA     BYTE      PSW

      01001EF0H   BLOCK     ECODE    ---       LVL=0
      01001EF0H   LINE      ECODE    ---       #54
      01001EF0H   LINE      ECODE    ---       #55
      01001EF0H   LINE      ECODE    ---       #57
      01001EF3H   LINE      ECODE    ---       #61
      01001EFBH   LINE      ECODE    ---       #64
      01001F00H   LINE      ECODE    ---       #67
      01001F03H   LINE      ECODE    ---       #70
      01001F0AH   LINE      ECODE    ---       #73
      01001F0EH   LINE      ECODE    ---       #75
      ---         BLOCKEND  ---      ---       LVL=0

      ---         MODULE    ---      ---       GET_INTERRUPT_ENABLE
      01001E0CH   PUBLIC    ECODE    ---       Get_Interrupt_Enable
      000000D0H.6 SFRSYM    DATA     BIT       AC
      00000080H   SFRSYM    DATA     BIT       FSM_FINISH
      00000083H   SFRSYM    DATA     BYTE      DPH0
      000000E8H   SFRSYM    DATA     BIT       AM
      000000A8H   SFRSYM    DATA     BYTE      IE
      00000085H   SFRSYM    DATA     BYTE      DPH1
      00000082H   SFRSYM    DATA     BYTE      DPL0
      00000084H   SFRSYM    DATA     BYTE      DPL1
      00000088H   SFRSYM    DATA     BIT       SSINT
      000000C0H   SFRSYM    DATA     BIT       PULLUP_RES_STATE
      00000088H.1 SFRSYM    DATA     BIT       USINT
      000000B8H   SFRSYM    DATA     BYTE      IP
      00000098H   SFRSYM    DATA     BIT       RI
      000000D0H.7 SFRSYM    DATA     BIT       CY
      00000098H.1 SFRSYM    DATA     BIT       TI
      000000EAH   SFRSYM    DATA     BYTE      MPTRX
      00000093H   SFRSYM    DATA     BYTE      DPX0
      00000095H   SFRSYM    DATA     BYTE      DPX1
      00000081H   SFRSYM    DATA     BYTE      SP
      000000D0H.2 SFRSYM    DATA     BIT       OV
      000000A1H   SFRSYM    DATA     BYTE      CBSL
      00000080H.5 SFRSYM    DATA     BIT       FSM_RESULT
      00000099H   SFRSYM    DATA     BYTE      SBUF
      00000087H   SFRSYM    DATA     BYTE      PCON
      00000088H.3 SFRSYM    DATA     BIT       MFLT
      00000098H   SFRSYM    DATA     BYTE      SCON
      00000089H   SFRSYM    DATA     BYTE      TMOD
      00000088H   SFRSYM    DATA     BYTE      TCON
      00000088H.1 SFRSYM    DATA     BIT       SINT
      000000E8H   SFRSYM    DATA     BYTE      EPSW
      000000F0H   SFRSYM    DATA     BYTE      B
      000000A2H   SFRSYM    DATA     BYTE      MPTR
      000000E0H   SFRSYM    DATA     BYTE      ACC
      00000088H.5 SFRSYM    DATA     BIT       TF0
      00000088H.7 SFRSYM    DATA     BIT       TF1
      0000008CH   SFRSYM    DATA     BYTE      TH0
      000000B2H   SFRSYM    DATA     BYTE      ISOCON
      0000008DH   SFRSYM    DATA     BYTE      TH1
      000000D8H   SFRSYM    DATA     BYTE      SPSW
      000000D0H   SFRSYM    DATA     BIT       P
      0000008AH   SFRSYM    DATA     BYTE      TL0
      0000008BH   SFRSYM    DATA     BYTE      TL1
      000000C0H   SFRSYM    DATA     BYTE      PROGIO
      000000D0H.3 SFRSYM    DATA     BIT       RS0
      00000088H.4 SFRSYM    DATA     BIT       TR0
      000000D0H.4 SFRSYM    DATA     BIT       RS1
      00000080H.1 SFRSYM    DATA     BIT       FSM_START
      00000088H.6 SFRSYM    DATA     BIT       TR1
      00000083H   SFRSYM    DATA     BYTE      DPH
LX51 LINKER/LOCATER V4.10a                                                            10/17/2007  16:48:09  PAGE 28


      000000B4H   SFRSYM    DATA     BYTE      ISOTMR
      00000082H   SFRSYM    DATA     BYTE      DPL
      000000B0H   SFRSYM    DATA     BYTE      SECURITYSTATUS
      00000086H   SFRSYM    DATA     BYTE      DPS
      00000093H   SFRSYM    DATA     BYTE      DPX
      00000080H   SFRSYM    DATA     BYTE      NVFSMCON
      000000F7H   SFRSYM    DATA     BYTE      MFCON
      000000C9H   SFRSYM    DATA     BYTE      NvFsmMode
      000000D0H.5 SFRSYM    DATA     BIT       F0
      000000E8H.1 SFRSYM    DATA     BIT       F1
      000000D0H   SFRSYM    DATA     BYTE      PSW

      01001E0CH   BLOCK     ECODE    ---       LVL=0
      01001E0CH   LINE      ECODE    ---       #58
      01001E0CH   LINE      ECODE    ---       #59
      01001E0CH   LINE      ECODE    ---       #60
      01001E12H   LINE      ECODE    ---       #61
      01001E12H   LINE      ECODE    ---       #62
      01001E18H   LINE      ECODE    ---       #64
      01001E1CH   LINE      ECODE    ---       #65
      01001E1EH   LINE      ECODE    ---       #67
      01001E1EH   LINE      ECODE    ---       #68
      01001E25H   LINE      ECODE    ---       #69
      01001E25H   LINE      ECODE    ---       #71
      01001E2CH   LINE      ECODE    ---       #73
      ---         BLOCKEND  ---      ---       LVL=0

      ---         MODULE    ---      ---       SET_INTERRUPT_ENABLE
      01002055H   PUBLIC    ECODE    ---       Set_Interrupt_Enable
      000000D0H.6 SFRSYM    DATA     BIT       AC
      00000080H   SFRSYM    DATA     BIT       FSM_FINISH
      00000083H   SFRSYM    DATA     BYTE      DPH0
      000000E8H   SFRSYM    DATA     BIT       AM
      000000A8H   SFRSYM    DATA     BYTE      IE
      00000085H   SFRSYM    DATA     BYTE      DPH1
      00000082H   SFRSYM    DATA     BYTE      DPL0
      00000084H   SFRSYM    DATA     BYTE      DPL1
      00000088H   SFRSYM    DATA     BIT       SSINT
      000000C0H   SFRSYM    DATA     BIT       PULLUP_RES_STATE
      00000088H.1 SFRSYM    DATA     BIT       USINT
      000000B8H   SFRSYM    DATA     BYTE      IP
      00000098H   SFRSYM    DATA     BIT       RI
      000000D0H.7 SFRSYM    DATA     BIT       CY
      00000098H.1 SFRSYM    DATA     BIT       TI
      000000EAH   SFRSYM    DATA     BYTE      MPTRX
      00000093H   SFRSYM    DATA     BYTE      DPX0
      00000095H   SFRSYM    DATA     BYTE      DPX1
      00000081H   SFRSYM    DATA     BYTE      SP
      000000D0H.2 SFRSYM    DATA     BIT       OV
      000000A1H   SFRSYM    DATA     BYTE      CBSL
      00000080H.5 SFRSYM    DATA     BIT       FSM_RESULT
      00000099H   SFRSYM    DATA     BYTE      SBUF
      00000087H   SFRSYM    DATA     BYTE      PCON
      00000088H.3 SFRSYM    DATA     BIT       MFLT
      00000098H   SFRSYM    DATA     BYTE      SCON
      00000089H   SFRSYM    DATA     BYTE      TMOD
      00000088H   SFRSYM    DATA     BYTE      TCON
      00000088H.1 SFRSYM    DATA     BIT       SINT
      000000E8H   SFRSYM    DATA     BYTE      EPSW
      000000F0H   SFRSYM    DATA     BYTE      B
      000000A2H   SFRSYM    DATA     BYTE      MPTR
      000000E0H   SFRSYM    DATA     BYTE      ACC
      00000088H.5 SFRSYM    DATA     BIT       TF0
      00000088H.7 SFRSYM    DATA     BIT       TF1
      0000008CH   SFRSYM    DATA     BYTE      TH0
LX51 LINKER/LOCATER V4.10a                                                            10/17/2007  16:48:09  PAGE 29


      000000B2H   SFRSYM    DATA     BYTE      ISOCON
      0000008DH   SFRSYM    DATA     BYTE      TH1
      000000D8H   SFRSYM    DATA     BYTE      SPSW
      000000D0H   SFRSYM    DATA     BIT       P
      0000008AH   SFRSYM    DATA     BYTE      TL0
      0000008BH   SFRSYM    DATA     BYTE      TL1
      000000C0H   SFRSYM    DATA     BYTE      PROGIO
      000000D0H.3 SFRSYM    DATA     BIT       RS0
      00000088H.4 SFRSYM    DATA     BIT       TR0
      000000D0H.4 SFRSYM    DATA     BIT       RS1
      00000080H.1 SFRSYM    DATA     BIT       FSM_START
      00000088H.6 SFRSYM    DATA     BIT       TR1
      00000083H   SFRSYM    DATA     BYTE      DPH
      000000B4H   SFRSYM    DATA     BYTE      ISOTMR
      00000082H   SFRSYM    DATA     BYTE      DPL
      000000B0H   SFRSYM    DATA     BYTE      SECURITYSTATUS
      00000086H   SFRSYM    DATA     BYTE      DPS
      00000093H   SFRSYM    DATA     BYTE      DPX
      00000080H   SFRSYM    DATA     BYTE      NVFSMCON
      000000F7H   SFRSYM    DATA     BYTE      MFCON
      000000C9H   SFRSYM    DATA     BYTE      NvFsmMode
      000000D0H.5 SFRSYM    DATA     BIT       F0
      000000E8H.1 SFRSYM    DATA     BIT       F1
      000000D0H   SFRSYM    DATA     BYTE      PSW

      01002055H   BLOCK     ECODE    ---       LVL=0
      01002055H   LINE      ECODE    ---       #56
      01002055H   LINE      ECODE    ---       #57
      01002055H   LINE      ECODE    ---       #58
      0100205CH   LINE      ECODE    ---       #60
      01002060H   LINE      ECODE    ---       #62
      ---         BLOCKEND  ---      ---       LVL=0

      ---         MODULE    ---      ---       GET_PULLUP_RESISTOR
      01001DA4H   PUBLIC    ECODE    ---       Get_Pullup_Resistor
      000000D0H.6 SFRSYM    DATA     BIT       AC
      00000080H   SFRSYM    DATA     BIT       FSM_FINISH
      00000083H   SFRSYM    DATA     BYTE      DPH0
      000000E8H   SFRSYM    DATA     BIT       AM
      000000A8H   SFRSYM    DATA     BYTE      IE
      00000085H   SFRSYM    DATA     BYTE      DPH1
      00000082H   SFRSYM    DATA     BYTE      DPL0
      00000084H   SFRSYM    DATA     BYTE      DPL1
      00000088H   SFRSYM    DATA     BIT       SSINT
      000000C0H   SFRSYM    DATA     BIT       PULLUP_RES_STATE
      00000088H.1 SFRSYM    DATA     BIT       USINT
      000000B8H   SFRSYM    DATA     BYTE      IP
      00000098H   SFRSYM    DATA     BIT       RI
      000000D0H.7 SFRSYM    DATA     BIT       CY
      00000098H.1 SFRSYM    DATA     BIT       TI
      000000EAH   SFRSYM    DATA     BYTE      MPTRX
      00000093H   SFRSYM    DATA     BYTE      DPX0
      00000095H   SFRSYM    DATA     BYTE      DPX1
      00000081H   SFRSYM    DATA     BYTE      SP
      000000D0H.2 SFRSYM    DATA     BIT       OV
      000000A1H   SFRSYM    DATA     BYTE      CBSL
      00000080H.5 SFRSYM    DATA     BIT       FSM_RESULT
      00000099H   SFRSYM    DATA     BYTE      SBUF
      00000087H   SFRSYM    DATA     BYTE      PCON
      00000088H.3 SFRSYM    DATA     BIT       MFLT
      00000098H   SFRSYM    DATA     BYTE      SCON
      00000089H   SFRSYM    DATA     BYTE      TMOD
      00000088H   SFRSYM    DATA     BYTE      TCON
      00000088H.1 SFRSYM    DATA     BIT       SINT
      000000E8H   SFRSYM    DATA     BYTE      EPSW
LX51 LINKER/LOCATER V4.10a                                                            10/17/2007  16:48:09  PAGE 30


      000000F0H   SFRSYM    DATA     BYTE      B
      000000A2H   SFRSYM    DATA     BYTE      MPTR
      000000E0H   SFRSYM    DATA     BYTE      ACC
      00000088H.5 SFRSYM    DATA     BIT       TF0
      00000088H.7 SFRSYM    DATA     BIT       TF1
      0000008CH   SFRSYM    DATA     BYTE      TH0
      000000B2H   SFRSYM    DATA     BYTE      ISOCON
      0000008DH   SFRSYM    DATA     BYTE      TH1
      000000D8H   SFRSYM    DATA     BYTE      SPSW
      000000D0H   SFRSYM    DATA     BIT       P
      0000008AH   SFRSYM    DATA     BYTE      TL0
      0000008BH   SFRSYM    DATA     BYTE      TL1
      000000C0H   SFRSYM    DATA     BYTE      PROGIO
      000000D0H.3 SFRSYM    DATA     BIT       RS0
      00000088H.4 SFRSYM    DATA     BIT       TR0
      000000D0H.4 SFRSYM    DATA     BIT       RS1
      00000080H.1 SFRSYM    DATA     BIT       FSM_START
      00000088H.6 SFRSYM    DATA     BIT       TR1
      00000083H   SFRSYM    DATA     BYTE      DPH
      000000B4H   SFRSYM    DATA     BYTE      ISOTMR
      00000082H   SFRSYM    DATA     BYTE      DPL
      000000B0H   SFRSYM    DATA     BYTE      SECURITYSTATUS
      00000086H   SFRSYM    DATA     BYTE      DPS
      00000093H   SFRSYM    DATA     BYTE      DPX
      00000080H   SFRSYM    DATA     BYTE      NVFSMCON
      000000F7H   SFRSYM    DATA     BYTE      MFCON
      000000C9H   SFRSYM    DATA     BYTE      NvFsmMode
      000000D0H.5 SFRSYM    DATA     BIT       F0
      000000E8H.1 SFRSYM    DATA     BIT       F1
      000000D0H   SFRSYM    DATA     BYTE      PSW

      01001DA4H   BLOCK     ECODE    ---       LVL=0
      01001DA4H   LINE      ECODE    ---       #58
      01001DA4H   LINE      ECODE    ---       #59
      01001DA4H   LINE      ECODE    ---       #60
      01001DAAH   LINE      ECODE    ---       #61
      01001DAAH   LINE      ECODE    ---       #63
      01001DB2H   LINE      ECODE    ---       #65
      01001DB6H   LINE      ECODE    ---       #66
      01001DB8H   LINE      ECODE    ---       #68
      01001DB8H   LINE      ECODE    ---       #69
      01001DBFH   LINE      ECODE    ---       #70
      01001DBFH   LINE      ECODE    ---       #72
      01001DC6H   LINE      ECODE    ---       #74
      ---         BLOCKEND  ---      ---       LVL=0

      ---         MODULE    ---      ---       SET_PULLUP_RESISTOR
      01001D09H   PUBLIC    ECODE    ---       Set_Pullup_Resistor
      000000D0H.6 SFRSYM    DATA     BIT       AC
      00000080H   SFRSYM    DATA     BIT       FSM_FINISH
      00000083H   SFRSYM    DATA     BYTE      DPH0
      000000E8H   SFRSYM    DATA     BIT       AM
      000000A8H   SFRSYM    DATA     BYTE      IE
      00000085H   SFRSYM    DATA     BYTE      DPH1
      00000082H   SFRSYM    DATA     BYTE      DPL0
      00000084H   SFRSYM    DATA     BYTE      DPL1
      00000088H   SFRSYM    DATA     BIT       SSINT
      000000C0H   SFRSYM    DATA     BIT       PULLUP_RES_STATE
      00000088H.1 SFRSYM    DATA     BIT       USINT
      000000B8H   SFRSYM    DATA     BYTE      IP
      00000098H   SFRSYM    DATA     BIT       RI
      000000D0H.7 SFRSYM    DATA     BIT       CY
      00000098H.1 SFRSYM    DATA     BIT       TI
      000000EAH   SFRSYM    DATA     BYTE      MPTRX
      00000093H   SFRSYM    DATA     BYTE      DPX0
LX51 LINKER/LOCATER V4.10a                                                            10/17/2007  16:48:09  PAGE 31


      00000095H   SFRSYM    DATA     BYTE      DPX1
      00000081H   SFRSYM    DATA     BYTE      SP
      000000D0H.2 SFRSYM    DATA     BIT       OV
      000000A1H   SFRSYM    DATA     BYTE      CBSL
      00000080H.5 SFRSYM    DATA     BIT       FSM_RESULT
      00000099H   SFRSYM    DATA     BYTE      SBUF
      00000087H   SFRSYM    DATA     BYTE      PCON
      00000088H.3 SFRSYM    DATA     BIT       MFLT
      00000098H   SFRSYM    DATA     BYTE      SCON
      00000089H   SFRSYM    DATA     BYTE      TMOD
      00000088H   SFRSYM    DATA     BYTE      TCON
      00000088H.1 SFRSYM    DATA     BIT       SINT
      000000E8H   SFRSYM    DATA     BYTE      EPSW
      000000F0H   SFRSYM    DATA     BYTE      B
      000000A2H   SFRSYM    DATA     BYTE      MPTR
      000000E0H   SFRSYM    DATA     BYTE      ACC
      00000088H.5 SFRSYM    DATA     BIT       TF0
      00000088H.7 SFRSYM    DATA     BIT       TF1
      0000008CH   SFRSYM    DATA     BYTE      TH0
      000000B2H   SFRSYM    DATA     BYTE      ISOCON
      0000008DH   SFRSYM    DATA     BYTE      TH1
      000000D8H   SFRSYM    DATA     BYTE      SPSW
      000000D0H   SFRSYM    DATA     BIT       P
      0000008AH   SFRSYM    DATA     BYTE      TL0
      0000008BH   SFRSYM    DATA     BYTE      TL1
      000000C0H   SFRSYM    DATA     BYTE      PROGIO
      000000D0H.3 SFRSYM    DATA     BIT       RS0
      00000088H.4 SFRSYM    DATA     BIT       TR0
      000000D0H.4 SFRSYM    DATA     BIT       RS1
      00000080H.1 SFRSYM    DATA     BIT       FSM_START
      00000088H.6 SFRSYM    DATA     BIT       TR1
      00000083H   SFRSYM    DATA     BYTE      DPH
      000000B4H   SFRSYM    DATA     BYTE      ISOTMR
      00000082H   SFRSYM    DATA     BYTE      DPL
      000000B0H   SFRSYM    DATA     BYTE      SECURITYSTATUS
      00000086H   SFRSYM    DATA     BYTE      DPS
      00000093H   SFRSYM    DATA     BYTE      DPX
      00000080H   SFRSYM    DATA     BYTE      NVFSMCON
      000000F7H   SFRSYM    DATA     BYTE      MFCON
      000000C9H   SFRSYM    DATA     BYTE      NvFsmMode
      000000D0H.5 SFRSYM    DATA     BIT       F0
      000000E8H.1 SFRSYM    DATA     BIT       F1
      000000D0H   SFRSYM    DATA     BYTE      PSW

      01001D09H   BLOCK     ECODE    ---       LVL=0
      01001D09H   LINE      ECODE    ---       #58
      01001D09H   LINE      ECODE    ---       #59
      01001D09H   LINE      ECODE    ---       #61
      01001D17H   LINE      ECODE    ---       #64
      01001D1CH   LINE      ECODE    ---       #65
      01001D1CH   LINE      ECODE    ---       #66
      01001D21H   LINE      ECODE    ---       #67
      01001D23H   LINE      ECODE    ---       #69
      01001D23H   LINE      ECODE    ---       #70
      01001D28H   LINE      ECODE    ---       #71
      01001D28H   LINE      ECODE    ---       #73
      01001D2FH   LINE      ECODE    ---       #75
      ---         BLOCKEND  ---      ---       LVL=0

      ---         MODULE    ---      ---       USE_EMULATOR_API
      01001E90H   PUBLIC    ECODE    ---       Use_Emulator_API
      000000D0H.6 SFRSYM    DATA     BIT       AC
      00000080H   SFRSYM    DATA     BIT       FSM_FINISH
      00000083H   SFRSYM    DATA     BYTE      DPH0
      000000E8H   SFRSYM    DATA     BIT       AM
LX51 LINKER/LOCATER V4.10a                                                            10/17/2007  16:48:09  PAGE 32


      000000A8H   SFRSYM    DATA     BYTE      IE
      00000085H   SFRSYM    DATA     BYTE      DPH1
      00000082H   SFRSYM    DATA     BYTE      DPL0
      00000084H   SFRSYM    DATA     BYTE      DPL1
      00000088H   SFRSYM    DATA     BIT       SSINT
      000000C0H   SFRSYM    DATA     BIT       PULLUP_RES_STATE
      00000088H.1 SFRSYM    DATA     BIT       USINT
      000000B8H   SFRSYM    DATA     BYTE      IP
      00000098H   SFRSYM    DATA     BIT       RI
      000000D0H.7 SFRSYM    DATA     BIT       CY
      00000098H.1 SFRSYM    DATA     BIT       TI
      000000EAH   SFRSYM    DATA     BYTE      MPTRX
      00000093H   SFRSYM    DATA     BYTE      DPX0
      00000095H   SFRSYM    DATA     BYTE      DPX1
      00000081H   SFRSYM    DATA     BYTE      SP
      000000D0H.2 SFRSYM    DATA     BIT       OV
      000000A1H   SFRSYM    DATA     BYTE      CBSL
      00000080H.5 SFRSYM    DATA     BIT       FSM_RESULT
      00000099H   SFRSYM    DATA     BYTE      SBUF
      00000087H   SFRSYM    DATA     BYTE      PCON
      00000088H.3 SFRSYM    DATA     BIT       MFLT
      00000098H   SFRSYM    DATA     BYTE      SCON
      00000089H   SFRSYM    DATA     BYTE      TMOD
      00000088H   SFRSYM    DATA     BYTE      TCON
      00000088H.1 SFRSYM    DATA     BIT       SINT
      000000E8H   SFRSYM    DATA     BYTE      EPSW
      000000F0H   SFRSYM    DATA     BYTE      B
      000000A2H   SFRSYM    DATA     BYTE      MPTR
      000000E0H   SFRSYM    DATA     BYTE      ACC
      00000088H.5 SFRSYM    DATA     BIT       TF0
      00000088H.7 SFRSYM    DATA     BIT       TF1
      0000008CH   SFRSYM    DATA     BYTE      TH0
      000000B2H   SFRSYM    DATA     BYTE      ISOCON
      0000008DH   SFRSYM    DATA     BYTE      TH1
      000000D8H   SFRSYM    DATA     BYTE      SPSW
      000000D0H   SFRSYM    DATA     BIT       P
      0000008AH   SFRSYM    DATA     BYTE      TL0
      0000008BH   SFRSYM    DATA     BYTE      TL1
      000000C0H   SFRSYM    DATA     BYTE      PROGIO
      000000D0H.3 SFRSYM    DATA     BIT       RS0
      00000088H.4 SFRSYM    DATA     BIT       TR0
      000000D0H.4 SFRSYM    DATA     BIT       RS1
      00000080H.1 SFRSYM    DATA     BIT       FSM_START
      00000088H.6 SFRSYM    DATA     BIT       TR1
      00000083H   SFRSYM    DATA     BYTE      DPH
      000000B4H   SFRSYM    DATA     BYTE      ISOTMR
      00000082H   SFRSYM    DATA     BYTE      DPL
      000000B0H   SFRSYM    DATA     BYTE      SECURITYSTATUS
      00000086H   SFRSYM    DATA     BYTE      DPS
      00000093H   SFRSYM    DATA     BYTE      DPX
      00000080H   SFRSYM    DATA     BYTE      NVFSMCON
      000000F7H   SFRSYM    DATA     BYTE      MFCON
      000000C9H   SFRSYM    DATA     BYTE      NvFsmMode
      000000D0H.5 SFRSYM    DATA     BIT       F0
      000000E8H.1 SFRSYM    DATA     BIT       F1
      000000D0H   SFRSYM    DATA     BYTE      PSW

      01001E90H   BLOCK     ECODE    ---       LVL=0
      01001E90H   LINE      ECODE    ---       #59
      01001E90H   LINE      ECODE    ---       #60
      01001E90H   LINE      ECODE    ---       #62
      01001E9BH   LINE      ECODE    ---       #65
      01001E9FH   LINE      ECODE    ---       #66
      01001E9FH   LINE      ECODE    ---       #67
      01001EA1H   LINE      ECODE    ---       #68
LX51 LINKER/LOCATER V4.10a                                                            10/17/2007  16:48:09  PAGE 33


      01001EA3H   LINE      ECODE    ---       #70
      01001EA3H   LINE      ECODE    ---       #71
      01001EA8H   LINE      ECODE    ---       #72
      01001EA8H   LINE      ECODE    ---       #74
      01001EAFH   LINE      ECODE    ---       #76
      ---         BLOCKEND  ---      ---       LVL=0

      ---         MODULE    ---      ---       GLOBAL_VARS
      000000ABH   PUBLIC    IDATA    CHAR      cRet_Val_Char
      000000A3H   PUBLIC    IDATA    ---       TEMP_BUF
      00000049H   PUBLIC    DATA     ---       CODE_PTR
      000000A2H   PUBLIC    IDATA    BYTE      ucCount
      0000009DH   PUBLIC    IDATA    ---       APDU_CMD
      00000046H   PUBLIC    DATA     ---       uc_Fptr
      0203D000H   PUBLIC    XDATA    ---       IO_Buffer
      00000044H   PUBLIC    DATA     ---       XDATA_PTR
      0000009CH   PUBLIC    IDATA    BYTE      DPX_Addr
      00000043H   PUBLIC    DATA     ---       IDATA_PTR
      0000009AH   PUBLIC    IDATA    WORD      SW1SW2
      00000099H   PUBLIC    IDATA    BYTE      Timer1_Int_Count
      00000098H   PUBLIC    IDATA    BYTE      Timer0_Int_Count
      00000096H   PUBLIC    IDATA    INT       iRet_Val_Int
      00000095H   PUBLIC    IDATA    BYTE      IDLE_MODE
      00000093H   PUBLIC    IDATA    WORD      uiTemp_Address
      0000008FH   PUBLIC    IDATA    DWORD     ulTemp_Var
      0000008EH   PUBLIC    IDATA    BYTE      ucByte_To_Write

      ---         MODULE    ---      ---       IO
      01001F9FH   PUBLIC    ECODE    ---       _Serial_Transmit_X_Bytes
      01001F8BH   PUBLIC    ECODE    ---       _Serial_Receive_X_Bytes
      0100207FH   PUBLIC    ECODE    ---       GetChar
      01001FB3H   PUBLIC    ECODE    ---       _PutChar
      000000D0H.6 SFRSYM    DATA     BIT       AC
      00000080H   SFRSYM    DATA     BIT       FSM_FINISH
      00000083H   SFRSYM    DATA     BYTE      DPH0
      000000E8H   SFRSYM    DATA     BIT       AM
      000000A8H   SFRSYM    DATA     BYTE      IE
      00000085H   SFRSYM    DATA     BYTE      DPH1
      00000082H   SFRSYM    DATA     BYTE      DPL0
      00000084H   SFRSYM    DATA     BYTE      DPL1
      00000088H   SFRSYM    DATA     BIT       SSINT
      000000C0H   SFRSYM    DATA     BIT       PULLUP_RES_STATE
      00000088H.1 SFRSYM    DATA     BIT       USINT
      000000B8H   SFRSYM    DATA     BYTE      IP
      00000098H   SFRSYM    DATA     BIT       RI
      000000D0H.7 SFRSYM    DATA     BIT       CY
      00000098H.1 SFRSYM    DATA     BIT       TI
      000000EAH   SFRSYM    DATA     BYTE      MPTRX
      00000093H   SFRSYM    DATA     BYTE      DPX0
      00000095H   SFRSYM    DATA     BYTE      DPX1
      00000081H   SFRSYM    DATA     BYTE      SP
      000000D0H.2 SFRSYM    DATA     BIT       OV
      000000A1H   SFRSYM    DATA     BYTE      CBSL
      00000080H.5 SFRSYM    DATA     BIT       FSM_RESULT
      00000099H   SFRSYM    DATA     BYTE      SBUF
      00000087H   SFRSYM    DATA     BYTE      PCON
      00000088H.3 SFRSYM    DATA     BIT       MFLT
      00000098H   SFRSYM    DATA     BYTE      SCON
      00000089H   SFRSYM    DATA     BYTE      TMOD
      00000088H   SFRSYM    DATA     BYTE      TCON
      00000088H.1 SFRSYM    DATA     BIT       SINT
      000000E8H   SFRSYM    DATA     BYTE      EPSW
      000000F0H   SFRSYM    DATA     BYTE      B
      000000A2H   SFRSYM    DATA     BYTE      MPTR
      000000E0H   SFRSYM    DATA     BYTE      ACC
LX51 LINKER/LOCATER V4.10a                                                            10/17/2007  16:48:09  PAGE 34


      00000088H.5 SFRSYM    DATA     BIT       TF0
      00000088H.7 SFRSYM    DATA     BIT       TF1
      0000008CH   SFRSYM    DATA     BYTE      TH0
      000000B2H   SFRSYM    DATA     BYTE      ISOCON
      0000008DH   SFRSYM    DATA     BYTE      TH1
      000000D8H   SFRSYM    DATA     BYTE      SPSW
      000000D0H   SFRSYM    DATA     BIT       P
      0000008AH   SFRSYM    DATA     BYTE      TL0
      0000008BH   SFRSYM    DATA     BYTE      TL1
      000000C0H   SFRSYM    DATA     BYTE      PROGIO
      000000D0H.3 SFRSYM    DATA     BIT       RS0
      00000088H.4 SFRSYM    DATA     BIT       TR0
      000000D0H.4 SFRSYM    DATA     BIT       RS1
      00000080H.1 SFRSYM    DATA     BIT       FSM_START
      00000088H.6 SFRSYM    DATA     BIT       TR1
      00000083H   SFRSYM    DATA     BYTE      DPH
      000000B4H   SFRSYM    DATA     BYTE      ISOTMR
      00000082H   SFRSYM    DATA     BYTE      DPL
      000000B0H   SFRSYM    DATA     BYTE      SECURITYSTATUS
      00000086H   SFRSYM    DATA     BYTE      DPS
      00000093H   SFRSYM    DATA     BYTE      DPX
      00000080H   SFRSYM    DATA     BYTE      NVFSMCON
      000000F7H   SFRSYM    DATA     BYTE      MFCON
      000000C9H   SFRSYM    DATA     BYTE      NvFsmMode
      000000D0H.5 SFRSYM    DATA     BIT       F0
      000000E8H.1 SFRSYM    DATA     BIT       F1
      000000D0H   SFRSYM    DATA     BYTE      PSW

      01001FB3H   BLOCK     ECODE    ---       LVL=0
      00000007H   SYMBOL    DATA     BYTE      ByteToTx
      01001FB3H   LINE      ECODE    ---       #52
      01001FB3H   LINE      ECODE    ---       #53
      01001FB3H   LINE      ECODE    ---       #54
      01001FB3H   LINE      ECODE    ---       #55
      01001FB3H   LINE      ECODE    ---       #56
      01001FB5H   LINE      ECODE    ---       #58
      01001FB8H   LINE      ECODE    ---       #60
      01001FBAH   LINE      ECODE    ---       #62
      01001FBFH   LINE      ECODE    ---       #63
      01001FBFH   LINE      ECODE    ---       #64
      01001FBFH   LINE      ECODE    ---       #65
      01001FBFH   LINE      ECODE    ---       #67
      01001FC2H   LINE      ECODE    ---       #68
      01001FC4H   LINE      ECODE    ---       #70
      ---         BLOCKEND  ---      ---       LVL=0

      0100207FH   BLOCK     ECODE    ---       LVL=0
      0100207FH   LINE      ECODE    ---       #84
      0100207FH   LINE      ECODE    ---       #85
      0100207FH   LINE      ECODE    ---       #86
      01002082H   LINE      ECODE    ---       #88
      01002084H   LINE      ECODE    ---       #90
      01002086H   LINE      ECODE    ---       #92
      ---         BLOCKEND  ---      ---       LVL=0

      01001F8BH   BLOCK     ECODE    ---       LVL=0
      00000006H   SYMBOL    DATA     BYTE      Num_of_Bytes_To_RX
      00000000H   SYMBOL    DATA     ---       Buffer_to_Fill
      01001F8BH   LINE      ECODE    ---       #104
      01001F8FH   LINE      ECODE    ---       #105
      01001F8FH   LINE      ECODE    ---       #106
      01001F95H   LINE      ECODE    ---       #107
      01001F95H   LINE      ECODE    ---       #108
      01001F9AH   LINE      ECODE    ---       #110
      01001F9BH   LINE      ECODE    ---       #112
LX51 LINKER/LOCATER V4.10a                                                            10/17/2007  16:48:09  PAGE 35


      01001F9CH   LINE      ECODE    ---       #113
      01001F9EH   LINE      ECODE    ---       #115
      ---         BLOCKEND  ---      ---       LVL=0

      01001F9FH   BLOCK     ECODE    ---       LVL=0
      00000006H   SYMBOL    DATA     BYTE      Num_of_Bytes_To_TX
      00000000H   SYMBOL    DATA     ---       Buffer_to_Send
      01001F9FH   LINE      ECODE    ---       #127
      01001FA3H   LINE      ECODE    ---       #128
      01001FA3H   LINE      ECODE    ---       #129
      01001FA9H   LINE      ECODE    ---       #130
      01001FA9H   LINE      ECODE    ---       #131
      01001FAEH   LINE      ECODE    ---       #133
      01001FAFH   LINE      ECODE    ---       #135
      01001FB0H   LINE      ECODE    ---       #136
      01001FB2H   LINE      ECODE    ---       #138
      ---         BLOCKEND  ---      ---       LVL=0

      ---         MODULE    ---      ---       MAIN
      01000DEDH   PUBLIC    CONST    ---       INS_FPTR
      010016D4H   PUBLIC    ECODE    ---       Process_APDU_Command
      0100174BH   PUBLIC    ECODE    ---       _Enter_Idle_Mode
      0100200BH   PUBLIC    ECODE    ---       Process_PPS_Command
      01001C7FH   PUBLIC    ECODE    ---       main
      000000D0H.6 SFRSYM    DATA     BIT       AC
      00000080H   SFRSYM    DATA     BIT       FSM_FINISH
      00000083H   SFRSYM    DATA     BYTE      DPH0
      000000E8H   SFRSYM    DATA     BIT       AM
      000000A8H   SFRSYM    DATA     BYTE      IE
      00000085H   SFRSYM    DATA     BYTE      DPH1
      00000082H   SFRSYM    DATA     BYTE      DPL0
      00000084H   SFRSYM    DATA     BYTE      DPL1
      00000088H   SFRSYM    DATA     BIT       SSINT
      000000C0H   SFRSYM    DATA     BIT       PULLUP_RES_STATE
      00000088H.1 SFRSYM    DATA     BIT       USINT
      000000B8H   SFRSYM    DATA     BYTE      IP
      00000098H   SFRSYM    DATA     BIT       RI
      000000D0H.7 SFRSYM    DATA     BIT       CY
      00000098H.1 SFRSYM    DATA     BIT       TI
      000000EAH   SFRSYM    DATA     BYTE      MPTRX
      00000093H   SFRSYM    DATA     BYTE      DPX0
      00000095H   SFRSYM    DATA     BYTE      DPX1
      00000081H   SFRSYM    DATA     BYTE      SP
      000000D0H.2 SFRSYM    DATA     BIT       OV
      000000A1H   SFRSYM    DATA     BYTE      CBSL
      00000080H.5 SFRSYM    DATA     BIT       FSM_RESULT
      00000099H   SFRSYM    DATA     BYTE      SBUF
      00000087H   SFRSYM    DATA     BYTE      PCON
      00000088H.3 SFRSYM    DATA     BIT       MFLT
      00000098H   SFRSYM    DATA     BYTE      SCON
      00000089H   SFRSYM    DATA     BYTE      TMOD
      00000088H   SFRSYM    DATA     BYTE      TCON
      00000088H.1 SFRSYM    DATA     BIT       SINT
      000000E8H   SFRSYM    DATA     BYTE      EPSW
      000000F0H   SFRSYM    DATA     BYTE      B
      000000A2H   SFRSYM    DATA     BYTE      MPTR
      000000E0H   SFRSYM    DATA     BYTE      ACC
      00000088H.5 SFRSYM    DATA     BIT       TF0
      00000088H.7 SFRSYM    DATA     BIT       TF1
      0000008CH   SFRSYM    DATA     BYTE      TH0
      000000B2H   SFRSYM    DATA     BYTE      ISOCON
      0000008DH   SFRSYM    DATA     BYTE      TH1
      000000D8H   SFRSYM    DATA     BYTE      SPSW
      000000D0H   SFRSYM    DATA     BIT       P
      0000008AH   SFRSYM    DATA     BYTE      TL0
LX51 LINKER/LOCATER V4.10a                                                            10/17/2007  16:48:09  PAGE 36


      0000008BH   SFRSYM    DATA     BYTE      TL1
      000000C0H   SFRSYM    DATA     BYTE      PROGIO
      000000D0H.3 SFRSYM    DATA     BIT       RS0
      00000088H.4 SFRSYM    DATA     BIT       TR0
      000000D0H.4 SFRSYM    DATA     BIT       RS1
      00000080H.1 SFRSYM    DATA     BIT       FSM_START
      00000088H.6 SFRSYM    DATA     BIT       TR1
      00000083H   SFRSYM    DATA     BYTE      DPH
      000000B4H   SFRSYM    DATA     BYTE      ISOTMR
      00000082H   SFRSYM    DATA     BYTE      DPL
      000000B0H   SFRSYM    DATA     BYTE      SECURITYSTATUS
      00000086H   SFRSYM    DATA     BYTE      DPS
      00000093H   SFRSYM    DATA     BYTE      DPX
      00000080H   SFRSYM    DATA     BYTE      NVFSMCON
      000000F7H   SFRSYM    DATA     BYTE      MFCON
      000000C9H   SFRSYM    DATA     BYTE      NvFsmMode
      000000D0H.5 SFRSYM    DATA     BIT       F0
      000000E8H.1 SFRSYM    DATA     BIT       F1
      000000D0H   SFRSYM    DATA     BYTE      PSW

      01001C7FH   BLOCK     ECODE    ---       LVL=0
      01001C7FH   LINE      ECODE    ---       #60
      01001C7FH   LINE      ECODE    ---       #61
      01001C7FH   LINE      ECODE    ---       #62
      01001C82H   LINE      ECODE    ---       #64
      01001C85H   LINE      ECODE    ---       #66
      01001C8CH   LINE      ECODE    ---       #74
      01001C93H   LINE      ECODE    ---       #76
      01001C96H   LINE      ECODE    ---       #77
      01001C96H   LINE      ECODE    ---       #78
      01001C99H   LINE      ECODE    ---       #79
      01001C9BH   LINE      ECODE    ---       #81
      01001C9BH   LINE      ECODE    ---       #82
      01001CA2H   LINE      ECODE    ---       #83
      01001CA5H   LINE      ECODE    ---       #84
      01001CA5H   LINE      ECODE    ---       #91
      01001CA5H   LINE      ECODE    ---       #92
      01001CA5H   LINE      ECODE    ---       #94
      01001CACH   LINE      ECODE    ---       #97
      01001CB3H   LINE      ECODE    ---       #99
      01001CB6H   LINE      ECODE    ---       #100
      ---         BLOCKEND  ---      ---       LVL=0

      0100200BH   BLOCK     ECODE    ---       LVL=0
      0100200BH   LINE      ECODE    ---       #113
      0100200BH   LINE      ECODE    ---       #114
      0100200BH   LINE      ECODE    ---       #116
      01002012H   LINE      ECODE    ---       #119
      ---         BLOCKEND  ---      ---       LVL=0

      0100174BH   BLOCK     ECODE    ---       LVL=0
      00000007H   SYMBOL    DATA     BYTE      ucIdleMode
      0100174BH   LINE      ECODE    ---       #132
      0100174BH   LINE      ECODE    ---       #133
      0100174BH   LINE      ECODE    ---       #134
      0100174EH   LINE      ECODE    ---       #135
      0100174EH   LINE      ECODE    ---       #136
      01001751H   LINE      ECODE    ---       #138
      01001752H   LINE      ECODE    ---       #139
      01001753H   LINE      ECODE    ---       #140
      01001754H   LINE      ECODE    ---       #141
      01001755H   LINE      ECODE    ---       #142
      01001756H   LINE      ECODE    ---       #143
      01001757H   LINE      ECODE    ---       #144
      0100175CH   LINE      ECODE    ---       #145
LX51 LINKER/LOCATER V4.10a                                                            10/17/2007  16:48:09  PAGE 37


      0100175CH   LINE      ECODE    ---       #148
      01001763H   LINE      ECODE    ---       #150
      01001767H   LINE      ECODE    ---       #152
      01001770H   LINE      ECODE    ---       #154
      01001777H   LINE      ECODE    ---       #168
      0100177AH   LINE      ECODE    ---       #169
      0100177AH   LINE      ECODE    ---       #170
      0100177CH   LINE      ECODE    ---       #171
      0100177EH   LINE      ECODE    ---       #172
      01001784H   LINE      ECODE    ---       #173
      01001784H   LINE      ECODE    ---       #174
      01001786H   LINE      ECODE    ---       #175
      01001788H   LINE      ECODE    ---       #177
      01001788H   LINE      ECODE    ---       #178
      0100178CH   LINE      ECODE    ---       #179
      0100178CH   LINE      ECODE    ---       #182
      01001795H   LINE      ECODE    ---       #184
      01001798H   LINE      ECODE    ---       #186
      01001799H   LINE      ECODE    ---       #187
      0100179AH   LINE      ECODE    ---       #188
      0100179BH   LINE      ECODE    ---       #189
      0100179CH   LINE      ECODE    ---       #190
      0100179DH   LINE      ECODE    ---       #193
      010017AAH   LINE      ECODE    ---       #195
      010017AAH   LINE      ECODE    ---       #197
      ---         BLOCKEND  ---      ---       LVL=0

      010016D4H   BLOCK     ECODE    ---       LVL=0
      010016D4H   LINE      ECODE    ---       #218
      010016D4H   LINE      ECODE    ---       #219
      010016D4H   LINE      ECODE    ---       #221
      010016DBH   LINE      ECODE    ---       #222
      010016DBH   LINE      ECODE    ---       #223
      010016DFH   LINE      ECODE    ---       #224
      010016E1H   LINE      ECODE    ---       #227
      010016E8H   LINE      ECODE    ---       #228
      010016E8H   LINE      ECODE    ---       #229
      010016ECH   LINE      ECODE    ---       #230
      010016EEH   LINE      ECODE    ---       #250
      0100170FH   LINE      ECODE    ---       #253
      0100170FH   LINE      ECODE    ---       #270
      01001716H   LINE      ECODE    ---       #284
      01001733H   LINE      ECODE    ---       #287
      01001735H   LINE      ECODE    ---       #291
      01001735H   LINE      ECODE    ---       #292
      0100173CH   LINE      ECODE    ---       #293
      0100173CH   LINE      ECODE    ---       #296
      01001743H   LINE      ECODE    ---       #297
      01001743H   LINE      ECODE    ---       #298
      0100174AH   LINE      ECODE    ---       #299
      0100174AH   LINE      ECODE    ---       #301
      ---         BLOCKEND  ---      ---       LVL=0

      ---         MODULE    ---      ---       SHA_1
      01000F6DH   PUBLIC    ECODE    ---       _SHA_1_Hash
      01001653H   PUBLIC    ECODE    ---       Call_SHA1
      000000D0H.6 SFRSYM    DATA     BIT       AC
      00000080H   SFRSYM    DATA     BIT       FSM_FINISH
      00000083H   SFRSYM    DATA     BYTE      DPH0
      000000E8H   SFRSYM    DATA     BIT       AM
      000000A8H   SFRSYM    DATA     BYTE      IE
      00000085H   SFRSYM    DATA     BYTE      DPH1
      00000082H   SFRSYM    DATA     BYTE      DPL0
      00000084H   SFRSYM    DATA     BYTE      DPL1
      00000088H   SFRSYM    DATA     BIT       SSINT
LX51 LINKER/LOCATER V4.10a                                                            10/17/2007  16:48:09  PAGE 38


      000000C0H   SFRSYM    DATA     BIT       PULLUP_RES_STATE
      00000088H.1 SFRSYM    DATA     BIT       USINT
      000000B8H   SFRSYM    DATA     BYTE      IP
      00000098H   SFRSYM    DATA     BIT       RI
      000000D0H.7 SFRSYM    DATA     BIT       CY
      00000098H.1 SFRSYM    DATA     BIT       TI
      000000EAH   SFRSYM    DATA     BYTE      MPTRX
      00000093H   SFRSYM    DATA     BYTE      DPX0
      00000095H   SFRSYM    DATA     BYTE      DPX1
      00000081H   SFRSYM    DATA     BYTE      SP
      000000D0H.2 SFRSYM    DATA     BIT       OV
      000000A1H   SFRSYM    DATA     BYTE      CBSL
      00000080H.5 SFRSYM    DATA     BIT       FSM_RESULT
      00000099H   SFRSYM    DATA     BYTE      SBUF
      00000087H   SFRSYM    DATA     BYTE      PCON
      00000088H.3 SFRSYM    DATA     BIT       MFLT
      00000098H   SFRSYM    DATA     BYTE      SCON
      00000089H   SFRSYM    DATA     BYTE      TMOD
      00000088H   SFRSYM    DATA     BYTE      TCON
      00000088H.1 SFRSYM    DATA     BIT       SINT
      000000E8H   SFRSYM    DATA     BYTE      EPSW
      000000F0H   SFRSYM    DATA     BYTE      B
      000000A2H   SFRSYM    DATA     BYTE      MPTR
      000000E0H   SFRSYM    DATA     BYTE      ACC
      00000088H.5 SFRSYM    DATA     BIT       TF0
      00000088H.7 SFRSYM    DATA     BIT       TF1
      0000008CH   SFRSYM    DATA     BYTE      TH0
      000000B2H   SFRSYM    DATA     BYTE      ISOCON
      0000008DH   SFRSYM    DATA     BYTE      TH1
      000000D8H   SFRSYM    DATA     BYTE      SPSW
      000000D0H   SFRSYM    DATA     BIT       P
      0000008AH   SFRSYM    DATA     BYTE      TL0
      0000008BH   SFRSYM    DATA     BYTE      TL1
      000000C0H   SFRSYM    DATA     BYTE      PROGIO
      000000D0H.3 SFRSYM    DATA     BIT       RS0
      00000088H.4 SFRSYM    DATA     BIT       TR0
      000000D0H.4 SFRSYM    DATA     BIT       RS1
      00000080H.1 SFRSYM    DATA     BIT       FSM_START
      00000088H.6 SFRSYM    DATA     BIT       TR1
      00000083H   SFRSYM    DATA     BYTE      DPH
      000000B4H   SFRSYM    DATA     BYTE      ISOTMR
      00000082H   SFRSYM    DATA     BYTE      DPL
      000000B0H   SFRSYM    DATA     BYTE      SECURITYSTATUS
      00000086H   SFRSYM    DATA     BYTE      DPS
      00000093H   SFRSYM    DATA     BYTE      DPX
      00000080H   SFRSYM    DATA     BYTE      NVFSMCON
      000000F7H   SFRSYM    DATA     BYTE      MFCON
      000000C9H   SFRSYM    DATA     BYTE      NvFsmMode
      000000D0H.5 SFRSYM    DATA     BIT       F0
      000000E8H.1 SFRSYM    DATA     BIT       F1
      000000D0H   SFRSYM    DATA     BYTE      PSW

      01001653H   BLOCK     ECODE    ---       LVL=0
      01001653H   BLOCK     ECODE    NEAR LAB  LVL=1
      00000008H   SYMBOL    DATA     ---       ucpSHA1_Hash_Output
      0100165AH   BLOCK     ECODE    NEAR LAB  LVL=2
      0000000BH   SYMBOL    DATA     ---       ucPtr_Data_To_Hash
      ---         BLOCKEND  ---      ---       LVL=2
      ---         BLOCKEND  ---      ---       LVL=1
      01001653H   LINE      ECODE    ---       #64
      01001653H   LINE      ECODE    ---       #65
      01001653H   LINE      ECODE    ---       #68
      0100165AH   LINE      ECODE    ---       #69
      0100165AH   LINE      ECODE    ---       #71
      0100165FH   LINE      ECODE    ---       #74
LX51 LINKER/LOCATER V4.10a                                                            10/17/2007  16:48:09  PAGE 39


      0100166BH   LINE      ECODE    ---       #75
      0100166BH   LINE      ECODE    ---       #76
      01001682H   LINE      ECODE    ---       #77
      01001687H   LINE      ECODE    ---       #79
      0100168DH   LINE      ECODE    ---       #82
      010016A2H   LINE      ECODE    ---       #84
      010016A6H   LINE      ECODE    ---       #85
      010016A6H   LINE      ECODE    ---       #86
      010016B6H   LINE      ECODE    ---       #87
      010016BFH   LINE      ECODE    ---       #89
      010016C3H   LINE      ECODE    ---       #90
      010016C5H   LINE      ECODE    ---       #92
      010016C5H   LINE      ECODE    ---       #93
      010016CCH   LINE      ECODE    ---       #94
      010016CCH   LINE      ECODE    ---       #96
      010016D3H   LINE      ECODE    ---       #98
      ---         BLOCKEND  ---      ---       LVL=0

      01000F6DH   BLOCK     ECODE    ---       LVL=0
      0000000DH   SYMBOL    DATA     ---       ucpDataBytesPtr
      00000010H   SYMBOL    DATA     WORD      uiNumberToHash
      01000F77H   BLOCK     ECODE    NEAR LAB  LVL=1
      00000012H   SYMBOL    DATA     ---       H
      00000026H   SYMBOL    DATA     DWORD     A
      0000002AH   SYMBOL    DATA     DWORD     B
      0000002EH   SYMBOL    DATA     DWORD     C
      00000032H   SYMBOL    DATA     DWORD     D
      00000036H   SYMBOL    DATA     DWORD     E
      0000004EH   SYMBOL    IDATA    ---       W
      0000003AH   SYMBOL    DATA     DWORD     ulTEMP
      0000003EH   SYMBOL    DATA     WORD      uiBytesAlreadyHashed
      00000040H   SYMBOL    DATA     BYTE      s
      00000041H   SYMBOL    DATA     BYTE      t
      00000042H   SYMBOL    DATA     BYTE      ucPaddingDone
      ---         BLOCKEND  ---      ---       LVL=1
      01000F6DH   LINE      ECODE    ---       #110
      01000F77H   LINE      ECODE    ---       #111
      01000F77H   LINE      ECODE    ---       #119
      01000F7AH   LINE      ECODE    ---       #131
      01000F86H   LINE      ECODE    ---       #132
      01000F92H   LINE      ECODE    ---       #133
      01000F9EH   LINE      ECODE    ---       #134
      01000FAAH   LINE      ECODE    ---       #135
      01000FB6H   LINE      ECODE    ---       #141
      01000FBAH   LINE      ECODE    ---       #146
      01000FCEH   LINE      ECODE    ---       #147
      01000FCEH   LINE      ECODE    ---       #148
      01000FD1H   LINE      ECODE    ---       #149
      01000FD1H   LINE      ECODE    ---       #150
      01000FE2H   LINE      ECODE    ---       #151
      01000FE9H   LINE      ECODE    ---       #153
      01000FECH   LINE      ECODE    ---       #155
      01000FF7H   LINE      ECODE    ---       #156
      01000FF7H   LINE      ECODE    ---       #158
      01000FF7H   LINE      ECODE    ---       #159
      0100103AH   LINE      ECODE    ---       #160
      01001045H   LINE      ECODE    ---       #161
      01001047H   LINE      ECODE    ---       #162
      01001061H   LINE      ECODE    ---       #163
      01001061H   LINE      ECODE    ---       #165
      0100107AH   LINE      ECODE    ---       #166
      0100107AH   LINE      ECODE    ---       #167
      0100107DH   LINE      ECODE    ---       #171
      01001084H   LINE      ECODE    ---       #172
      01001084H   LINE      ECODE    ---       #173
LX51 LINKER/LOCATER V4.10a                                                            10/17/2007  16:48:09  PAGE 40


      0100108AH   LINE      ECODE    ---       #175
      01001096H   LINE      ECODE    ---       #177
      0100109EH   LINE      ECODE    ---       #179
      010010B1H   LINE      ECODE    ---       #180
      010010B1H   LINE      ECODE    ---       #182
      010010BFH   LINE      ECODE    ---       #183
      010010C1H   LINE      ECODE    ---       #185
      010010C1H   LINE      ECODE    ---       #186
      010010D5H   LINE      ECODE    ---       #187
      010010D5H   LINE      ECODE    ---       #189
      010010EAH   LINE      ECODE    ---       #190
      010010ECH   LINE      ECODE    ---       #192
      010010ECH   LINE      ECODE    ---       #193
      01001102H   LINE      ECODE    ---       #194
      01001102H   LINE      ECODE    ---       #196
      01001112H   LINE      ECODE    ---       #197
      01001114H   LINE      ECODE    ---       #199
      01001114H   LINE      ECODE    ---       #201
      0100112AH   LINE      ECODE    ---       #202
      0100112AH   LINE      ECODE    ---       #203
      0100112AH   LINE      ECODE    ---       #204
      0100112AH   LINE      ECODE    ---       #206
      0100112DH   LINE      ECODE    ---       #207
      0100112DH   LINE      ECODE    ---       #209
      01001139H   LINE      ECODE    ---       #210
      01001139H   LINE      ECODE    ---       #211
      0100114FH   LINE      ECODE    ---       #214
      01001155H   LINE      ECODE    ---       #215
      01001158H   LINE      ECODE    ---       #216
      01001158H   LINE      ECODE    ---       #217
      01001158H   LINE      ECODE    ---       #227
      01001194H   LINE      ECODE    ---       #229
      01001197H   LINE      ECODE    ---       #230
      01001197H   LINE      ECODE    ---       #231
      0100119DH   LINE      ECODE    ---       #232
      01001204H   LINE      ECODE    ---       #234
      0100120BH   LINE      ECODE    ---       #235
      0100120BH   LINE      ECODE    ---       #236
      0100123CH   LINE      ECODE    ---       #237
      0100123CH   LINE      ECODE    ---       #238
      01001243H   LINE      ECODE    ---       #239
      01001243H   LINE      ECODE    ---       #240
      01001284H   LINE      ECODE    ---       #241
      01001287H   LINE      ECODE    ---       #243
      01001287H   LINE      ECODE    ---       #244
      0100128EH   LINE      ECODE    ---       #245
      0100128EH   LINE      ECODE    ---       #246
      010012C1H   LINE      ECODE    ---       #247
      010012C4H   LINE      ECODE    ---       #249
      010012C4H   LINE      ECODE    ---       #250
      010012CDH   LINE      ECODE    ---       #251
      010012CDH   LINE      ECODE    ---       #252
      01001324H   LINE      ECODE    ---       #253
      01001326H   LINE      ECODE    ---       #255
      01001326H   LINE      ECODE    ---       #256
      0100135FH   LINE      ECODE    ---       #257
      0100135FH   LINE      ECODE    ---       #258
      0100135FH   LINE      ECODE    ---       #259
      0100135FH   LINE      ECODE    ---       #261
      010013C3H   LINE      ECODE    ---       #263
      010013CFH   LINE      ECODE    ---       #264
      010013DBH   LINE      ECODE    ---       #265
      01001410H   LINE      ECODE    ---       #266
      0100141CH   LINE      ECODE    ---       #267
      01001428H   LINE      ECODE    ---       #269
LX51 LINKER/LOCATER V4.10a                                                            10/17/2007  16:48:09  PAGE 41


      01001433H   LINE      ECODE    ---       #275
      0100144EH   LINE      ECODE    ---       #276
      01001469H   LINE      ECODE    ---       #277
      01001484H   LINE      ECODE    ---       #278
      0100149FH   LINE      ECODE    ---       #279
      010014BAH   LINE      ECODE    ---       #281
      010014C5H   LINE      ECODE    ---       #283
      010014C8H   LINE      ECODE    ---       #291
      010014CEH   LINE      ECODE    ---       #293
      ---         BLOCKEND  ---      ---       LVL=0

      ---         MODULE    ---      ---       SET_IDLE_MODE
      01001DEAH   PUBLIC    ECODE    ---       Get_Idle_Mode
      01000816H   PUBLIC    ECODE    ---       Set_Idle_Mode
      000000D0H.6 SFRSYM    DATA     BIT       AC
      00000080H   SFRSYM    DATA     BIT       FSM_FINISH
      00000083H   SFRSYM    DATA     BYTE      DPH0
      000000E8H   SFRSYM    DATA     BIT       AM
      000000A8H   SFRSYM    DATA     BYTE      IE
      00000085H   SFRSYM    DATA     BYTE      DPH1
      00000082H   SFRSYM    DATA     BYTE      DPL0
      00000084H   SFRSYM    DATA     BYTE      DPL1
      00000088H   SFRSYM    DATA     BIT       SSINT
      000000C0H   SFRSYM    DATA     BIT       PULLUP_RES_STATE
      00000088H.1 SFRSYM    DATA     BIT       USINT
      000000B8H   SFRSYM    DATA     BYTE      IP
      00000098H   SFRSYM    DATA     BIT       RI
      000000D0H.7 SFRSYM    DATA     BIT       CY
      00000098H.1 SFRSYM    DATA     BIT       TI
      000000EAH   SFRSYM    DATA     BYTE      MPTRX
      00000093H   SFRSYM    DATA     BYTE      DPX0
      00000095H   SFRSYM    DATA     BYTE      DPX1
      00000081H   SFRSYM    DATA     BYTE      SP
      000000D0H.2 SFRSYM    DATA     BIT       OV
      000000A1H   SFRSYM    DATA     BYTE      CBSL
      00000080H.5 SFRSYM    DATA     BIT       FSM_RESULT
      00000099H   SFRSYM    DATA     BYTE      SBUF
      00000087H   SFRSYM    DATA     BYTE      PCON
      00000088H.3 SFRSYM    DATA     BIT       MFLT
      00000098H   SFRSYM    DATA     BYTE      SCON
      00000089H   SFRSYM    DATA     BYTE      TMOD
      00000088H   SFRSYM    DATA     BYTE      TCON
      00000088H.1 SFRSYM    DATA     BIT       SINT
      000000E8H   SFRSYM    DATA     BYTE      EPSW
      000000F0H   SFRSYM    DATA     BYTE      B
      000000A2H   SFRSYM    DATA     BYTE      MPTR
      000000E0H   SFRSYM    DATA     BYTE      ACC
      00000088H.5 SFRSYM    DATA     BIT       TF0
      00000088H.7 SFRSYM    DATA     BIT       TF1
      0000008CH   SFRSYM    DATA     BYTE      TH0
      000000B2H   SFRSYM    DATA     BYTE      ISOCON
      0000008DH   SFRSYM    DATA     BYTE      TH1
      000000D8H   SFRSYM    DATA     BYTE      SPSW
      000000D0H   SFRSYM    DATA     BIT       P
      0000008AH   SFRSYM    DATA     BYTE      TL0
      0000008BH   SFRSYM    DATA     BYTE      TL1
      000000C0H   SFRSYM    DATA     BYTE      PROGIO
      000000D0H.3 SFRSYM    DATA     BIT       RS0
      00000088H.4 SFRSYM    DATA     BIT       TR0
      000000D0H.4 SFRSYM    DATA     BIT       RS1
      00000080H.1 SFRSYM    DATA     BIT       FSM_START
      00000088H.6 SFRSYM    DATA     BIT       TR1
      00000083H   SFRSYM    DATA     BYTE      DPH
      000000B4H   SFRSYM    DATA     BYTE      ISOTMR
      00000082H   SFRSYM    DATA     BYTE      DPL
LX51 LINKER/LOCATER V4.10a                                                            10/17/2007  16:48:09  PAGE 42


      000000B0H   SFRSYM    DATA     BYTE      SECURITYSTATUS
      00000086H   SFRSYM    DATA     BYTE      DPS
      00000093H   SFRSYM    DATA     BYTE      DPX
      00000080H   SFRSYM    DATA     BYTE      NVFSMCON
      000000F7H   SFRSYM    DATA     BYTE      MFCON
      000000C9H   SFRSYM    DATA     BYTE      NvFsmMode
      000000D0H.5 SFRSYM    DATA     BIT       F0
      000000E8H.1 SFRSYM    DATA     BIT       F1
      000000D0H   SFRSYM    DATA     BYTE      PSW

      01000816H   BLOCK     ECODE    ---       LVL=0
      01000816H   LINE      ECODE    ---       #57
      01000816H   LINE      ECODE    ---       #58
      01000816H   LINE      ECODE    ---       #59
      0100081EH   LINE      ECODE    ---       #61
      01000822H   LINE      ECODE    ---       #63
      ---         BLOCKEND  ---      ---       LVL=0

      01001DEAH   BLOCK     ECODE    ---       LVL=0
      01001DEAH   LINE      ECODE    ---       #86
      01001DEAH   LINE      ECODE    ---       #87
      01001DEAH   LINE      ECODE    ---       #88
      01001DF0H   LINE      ECODE    ---       #89
      01001DF0H   LINE      ECODE    ---       #90
      01001DF7H   LINE      ECODE    ---       #92
      01001DFBH   LINE      ECODE    ---       #93
      01001DFDH   LINE      ECODE    ---       #95
      01001DFDH   LINE      ECODE    ---       #96
      01001E04H   LINE      ECODE    ---       #97
      01001E04H   LINE      ECODE    ---       #99
      01001E0BH   LINE      ECODE    ---       #101
      ---         BLOCKEND  ---      ---       LVL=0

      ---         MODULE    ---      ---       ISO_SELECT_SPEED
      010014CFH   PUBLIC    ECODE    ---       _ISO_Select_Speed
      000000D0H.6 SFRSYM    DATA     BIT       AC
      00000080H   SFRSYM    DATA     BIT       FSM_FINISH
      00000083H   SFRSYM    DATA     BYTE      DPH0
      000000E8H   SFRSYM    DATA     BIT       AM
      000000A8H   SFRSYM    DATA     BYTE      IE
      00000085H   SFRSYM    DATA     BYTE      DPH1
      00000082H   SFRSYM    DATA     BYTE      DPL0
      00000084H   SFRSYM    DATA     BYTE      DPL1
      00000088H   SFRSYM    DATA     BIT       SSINT
      000000C0H   SFRSYM    DATA     BIT       PULLUP_RES_STATE
      00000088H.1 SFRSYM    DATA     BIT       USINT
      000000B8H   SFRSYM    DATA     BYTE      IP
      00000098H   SFRSYM    DATA     BIT       RI
      000000D0H.7 SFRSYM    DATA     BIT       CY
      00000098H.1 SFRSYM    DATA     BIT       TI
      000000EAH   SFRSYM    DATA     BYTE      MPTRX
      00000093H   SFRSYM    DATA     BYTE      DPX0
      00000095H   SFRSYM    DATA     BYTE      DPX1
      00000081H   SFRSYM    DATA     BYTE      SP
      000000D0H.2 SFRSYM    DATA     BIT       OV
      000000A1H   SFRSYM    DATA     BYTE      CBSL
      00000080H.5 SFRSYM    DATA     BIT       FSM_RESULT
      00000099H   SFRSYM    DATA     BYTE      SBUF
      00000087H   SFRSYM    DATA     BYTE      PCON
      00000088H.3 SFRSYM    DATA     BIT       MFLT
      00000098H   SFRSYM    DATA     BYTE      SCON
      00000089H   SFRSYM    DATA     BYTE      TMOD
      00000088H   SFRSYM    DATA     BYTE      TCON
      00000088H.1 SFRSYM    DATA     BIT       SINT
      000000E8H   SFRSYM    DATA     BYTE      EPSW
LX51 LINKER/LOCATER V4.10a                                                            10/17/2007  16:48:09  PAGE 43


      000000F0H   SFRSYM    DATA     BYTE      B
      000000A2H   SFRSYM    DATA     BYTE      MPTR
      000000E0H   SFRSYM    DATA     BYTE      ACC
      00000088H.5 SFRSYM    DATA     BIT       TF0
      00000088H.7 SFRSYM    DATA     BIT       TF1
      0000008CH   SFRSYM    DATA     BYTE      TH0
      000000B2H   SFRSYM    DATA     BYTE      ISOCON
      0000008DH   SFRSYM    DATA     BYTE      TH1
      000000D8H   SFRSYM    DATA     BYTE      SPSW
      000000D0H   SFRSYM    DATA     BIT       P
      0000008AH   SFRSYM    DATA     BYTE      TL0
      0000008BH   SFRSYM    DATA     BYTE      TL1
      000000C0H   SFRSYM    DATA     BYTE      PROGIO
      000000D0H.3 SFRSYM    DATA     BIT       RS0
      00000088H.4 SFRSYM    DATA     BIT       TR0
      000000D0H.4 SFRSYM    DATA     BIT       RS1
      00000080H.1 SFRSYM    DATA     BIT       FSM_START
      00000088H.6 SFRSYM    DATA     BIT       TR1
      00000083H   SFRSYM    DATA     BYTE      DPH
      000000B4H   SFRSYM    DATA     BYTE      ISOTMR
      00000082H   SFRSYM    DATA     BYTE      DPL
      000000B0H   SFRSYM    DATA     BYTE      SECURITYSTATUS
      00000086H   SFRSYM    DATA     BYTE      DPS
      00000093H   SFRSYM    DATA     BYTE      DPX
      00000080H   SFRSYM    DATA     BYTE      NVFSMCON
      000000F7H   SFRSYM    DATA     BYTE      MFCON
      000000C9H   SFRSYM    DATA     BYTE      NvFsmMode
      000000D0H.5 SFRSYM    DATA     BIT       F0
      000000E8H.1 SFRSYM    DATA     BIT       F1
      000000D0H   SFRSYM    DATA     BYTE      PSW

      010014CFH   BLOCK     ECODE    ---       LVL=0
      00000007H   SYMBOL    DATA     BYTE      FiDi
      00000008H   SYMBOL    DATA     BYTE      ucCommand_Type
      010014D1H   BLOCK     ECODE    NEAR LAB  LVL=1
      0000004EH   SYMBOL    IDATA    WORD      F
      00000050H   SYMBOL    IDATA    WORD      D
      00000052H   SYMBOL    IDATA    WORD      ISO_Timer_Val
      ---         BLOCKEND  ---      ---       LVL=1
      010014CFH   LINE      ECODE    ---       #58
      010014D1H   LINE      ECODE    ---       #59
      010014D1H   LINE      ECODE    ---       #60
      010014D8H   LINE      ECODE    ---       #61
      010014DEH   LINE      ECODE    ---       #62
      010014E4H   LINE      ECODE    ---       #64
      0100150DH   LINE      ECODE    ---       #65
      0100150DH   LINE      ECODE    ---       #66
      01001516H   LINE      ECODE    ---       #67
      0100151FH   LINE      ECODE    ---       #68
      01001528H   LINE      ECODE    ---       #69
      01001531H   LINE      ECODE    ---       #70
      0100153AH   LINE      ECODE    ---       #71
      01001540H   LINE      ECODE    ---       #72
      01001546H   LINE      ECODE    ---       #73
      0100154CH   LINE      ECODE    ---       #74
      01001552H   LINE      ECODE    ---       #75
      0100155BH   LINE      ECODE    ---       #76
      01001562H   LINE      ECODE    ---       #77
      01001562H   LINE      ECODE    ---       #79
      01001581H   LINE      ECODE    ---       #80
      01001581H   LINE      ECODE    ---       #81
      0100158AH   LINE      ECODE    ---       #82
      01001593H   LINE      ECODE    ---       #83
      0100159CH   LINE      ECODE    ---       #84
      010015A5H   LINE      ECODE    ---       #85
LX51 LINKER/LOCATER V4.10a                                                            10/17/2007  16:48:09  PAGE 44


      010015AEH   LINE      ECODE    ---       #86
      010015B7H   LINE      ECODE    ---       #87
      010015C0H   LINE      ECODE    ---       #88
      010015C7H   LINE      ECODE    ---       #89
      010015C7H   LINE      ECODE    ---       #92
      010015E7H   LINE      ECODE    ---       #102
      010015F7H   LINE      ECODE    ---       #103
      010015F7H   LINE      ECODE    ---       #104
      010015FCH   LINE      ECODE    ---       #105
      010015FCH   LINE      ECODE    ---       #107
      01001603H   LINE      ECODE    ---       #108
      01001603H   LINE      ECODE    ---       #110
      01001608H   LINE      ECODE    ---       #111
      01001608H   LINE      ECODE    ---       #112
      0100160FH   LINE      ECODE    ---       #113
      01001616H   LINE      ECODE    ---       #114
      01001616H   LINE      ECODE    ---       #117
      01001620H   LINE      ECODE    ---       #120
      01001625H   LINE      ECODE    ---       #121
      01001626H   LINE      ECODE    ---       #124
      01001626H   LINE      ECODE    ---       #125
      0100162BH   LINE      ECODE    ---       #126
      0100162BH   LINE      ECODE    ---       #127
      01001630H   LINE      ECODE    ---       #128
      01001635H   LINE      ECODE    ---       #129
      0100163AH   LINE      ECODE    ---       #130
      0100163FH   LINE      ECODE    ---       #131
      0100163FH   LINE      ECODE    ---       #133
      01001644H   LINE      ECODE    ---       #134
      01001644H   LINE      ECODE    ---       #135
      0100164BH   LINE      ECODE    ---       #136
      01001652H   LINE      ECODE    ---       #137
      01001652H   LINE      ECODE    ---       #138
      01001652H   LINE      ECODE    ---       #140
      ---         BLOCKEND  ---      ---       LVL=0

      ---         MODULE    ---      ---       CHANGE_ISO_SPEED
      01001FC5H   PUBLIC    ECODE    ---       Change_ISO_Speed
      000000D0H.6 SFRSYM    DATA     BIT       AC
      00000080H   SFRSYM    DATA     BIT       FSM_FINISH
      00000083H   SFRSYM    DATA     BYTE      DPH0
      000000E8H   SFRSYM    DATA     BIT       AM
      000000A8H   SFRSYM    DATA     BYTE      IE
      00000085H   SFRSYM    DATA     BYTE      DPH1
      00000082H   SFRSYM    DATA     BYTE      DPL0
      00000084H   SFRSYM    DATA     BYTE      DPL1
      00000088H   SFRSYM    DATA     BIT       SSINT
      000000C0H   SFRSYM    DATA     BIT       PULLUP_RES_STATE
      00000088H.1 SFRSYM    DATA     BIT       USINT
      000000B8H   SFRSYM    DATA     BYTE      IP
      00000098H   SFRSYM    DATA     BIT       RI
      000000D0H.7 SFRSYM    DATA     BIT       CY
      00000098H.1 SFRSYM    DATA     BIT       TI
      000000EAH   SFRSYM    DATA     BYTE      MPTRX
      00000093H   SFRSYM    DATA     BYTE      DPX0
      00000095H   SFRSYM    DATA     BYTE      DPX1
      00000081H   SFRSYM    DATA     BYTE      SP
      000000D0H.2 SFRSYM    DATA     BIT       OV
      000000A1H   SFRSYM    DATA     BYTE      CBSL
      00000080H.5 SFRSYM    DATA     BIT       FSM_RESULT
      00000099H   SFRSYM    DATA     BYTE      SBUF
      00000087H   SFRSYM    DATA     BYTE      PCON
      00000088H.3 SFRSYM    DATA     BIT       MFLT
      00000098H   SFRSYM    DATA     BYTE      SCON
      00000089H   SFRSYM    DATA     BYTE      TMOD
LX51 LINKER/LOCATER V4.10a                                                            10/17/2007  16:48:09  PAGE 45


      00000088H   SFRSYM    DATA     BYTE      TCON
      00000088H.1 SFRSYM    DATA     BIT       SINT
      000000E8H   SFRSYM    DATA     BYTE      EPSW
      000000F0H   SFRSYM    DATA     BYTE      B
      000000A2H   SFRSYM    DATA     BYTE      MPTR
      000000E0H   SFRSYM    DATA     BYTE      ACC
      00000088H.5 SFRSYM    DATA     BIT       TF0
      00000088H.7 SFRSYM    DATA     BIT       TF1
      0000008CH   SFRSYM    DATA     BYTE      TH0
      000000B2H   SFRSYM    DATA     BYTE      ISOCON
      0000008DH   SFRSYM    DATA     BYTE      TH1
      000000D8H   SFRSYM    DATA     BYTE      SPSW
      000000D0H   SFRSYM    DATA     BIT       P
      0000008AH   SFRSYM    DATA     BYTE      TL0
      0000008BH   SFRSYM    DATA     BYTE      TL1
      000000C0H   SFRSYM    DATA     BYTE      PROGIO
      000000D0H.3 SFRSYM    DATA     BIT       RS0
      00000088H.4 SFRSYM    DATA     BIT       TR0
      000000D0H.4 SFRSYM    DATA     BIT       RS1
      00000080H.1 SFRSYM    DATA     BIT       FSM_START
      00000088H.6 SFRSYM    DATA     BIT       TR1
      00000083H   SFRSYM    DATA     BYTE      DPH
      000000B4H   SFRSYM    DATA     BYTE      ISOTMR
      00000082H   SFRSYM    DATA     BYTE      DPL
      000000B0H   SFRSYM    DATA     BYTE      SECURITYSTATUS
      00000086H   SFRSYM    DATA     BYTE      DPS
      00000093H   SFRSYM    DATA     BYTE      DPX
      00000080H   SFRSYM    DATA     BYTE      NVFSMCON
      000000F7H   SFRSYM    DATA     BYTE      MFCON
      000000C9H   SFRSYM    DATA     BYTE      NvFsmMode
      000000D0H.5 SFRSYM    DATA     BIT       F0
      000000E8H.1 SFRSYM    DATA     BIT       F1
      000000D0H   SFRSYM    DATA     BYTE      PSW

      01001FC5H   BLOCK     ECODE    ---       LVL=0
      01001FC5H   LINE      ECODE    ---       #62
      01001FC5H   LINE      ECODE    ---       #63
      01001FC5H   LINE      ECODE    ---       #66
      01001FCEH   LINE      ECODE    ---       #69
      01001FD4H   LINE      ECODE    ---       #71
      01001FD6H   LINE      ECODE    ---       #73
      ---         BLOCKEND  ---      ---       LVL=0

      ---         MODULE    ---      ---       SET_SECURITY_STATUS
      0100206CH   PUBLIC    ECODE    ---       Set_Security_Status
      000000D0H.6 SFRSYM    DATA     BIT       AC
      00000080H   SFRSYM    DATA     BIT       FSM_FINISH
      00000083H   SFRSYM    DATA     BYTE      DPH0
      000000E8H   SFRSYM    DATA     BIT       AM
      000000A8H   SFRSYM    DATA     BYTE      IE
      00000085H   SFRSYM    DATA     BYTE      DPH1
      00000082H   SFRSYM    DATA     BYTE      DPL0
      00000084H   SFRSYM    DATA     BYTE      DPL1
      00000088H   SFRSYM    DATA     BIT       SSINT
      000000C0H   SFRSYM    DATA     BIT       PULLUP_RES_STATE
      00000088H.1 SFRSYM    DATA     BIT       USINT
      000000B8H   SFRSYM    DATA     BYTE      IP
      00000098H   SFRSYM    DATA     BIT       RI
      000000D0H.7 SFRSYM    DATA     BIT       CY
      00000098H.1 SFRSYM    DATA     BIT       TI
      000000EAH   SFRSYM    DATA     BYTE      MPTRX
      00000093H   SFRSYM    DATA     BYTE      DPX0
      00000095H   SFRSYM    DATA     BYTE      DPX1
      00000081H   SFRSYM    DATA     BYTE      SP
      000000D0H.2 SFRSYM    DATA     BIT       OV
LX51 LINKER/LOCATER V4.10a                                                            10/17/2007  16:48:09  PAGE 46


      000000A1H   SFRSYM    DATA     BYTE      CBSL
      00000080H.5 SFRSYM    DATA     BIT       FSM_RESULT
      00000099H   SFRSYM    DATA     BYTE      SBUF
      00000087H   SFRSYM    DATA     BYTE      PCON
      00000088H.3 SFRSYM    DATA     BIT       MFLT
      00000098H   SFRSYM    DATA     BYTE      SCON
      00000089H   SFRSYM    DATA     BYTE      TMOD
      00000088H   SFRSYM    DATA     BYTE      TCON
      00000088H.1 SFRSYM    DATA     BIT       SINT
      000000E8H   SFRSYM    DATA     BYTE      EPSW
      000000F0H   SFRSYM    DATA     BYTE      B
      000000A2H   SFRSYM    DATA     BYTE      MPTR
      000000E0H   SFRSYM    DATA     BYTE      ACC
      00000088H.5 SFRSYM    DATA     BIT       TF0
      00000088H.7 SFRSYM    DATA     BIT       TF1
      0000008CH   SFRSYM    DATA     BYTE      TH0
      000000B2H   SFRSYM    DATA     BYTE      ISOCON
      0000008DH   SFRSYM    DATA     BYTE      TH1
      000000D8H   SFRSYM    DATA     BYTE      SPSW
      000000D0H   SFRSYM    DATA     BIT       P
      0000008AH   SFRSYM    DATA     BYTE      TL0
      0000008BH   SFRSYM    DATA     BYTE      TL1
      000000C0H   SFRSYM    DATA     BYTE      PROGIO
      000000D0H.3 SFRSYM    DATA     BIT       RS0
      00000088H.4 SFRSYM    DATA     BIT       TR0
      000000D0H.4 SFRSYM    DATA     BIT       RS1
      00000080H.1 SFRSYM    DATA     BIT       FSM_START
      00000088H.6 SFRSYM    DATA     BIT       TR1
      00000083H   SFRSYM    DATA     BYTE      DPH
      000000B4H   SFRSYM    DATA     BYTE      ISOTMR
      00000082H   SFRSYM    DATA     BYTE      DPL
      000000B0H   SFRSYM    DATA     BYTE      SECURITYSTATUS
      00000086H   SFRSYM    DATA     BYTE      DPS
      00000093H   SFRSYM    DATA     BYTE      DPX
      00000080H   SFRSYM    DATA     BYTE      NVFSMCON
      000000F7H   SFRSYM    DATA     BYTE      MFCON
      000000C9H   SFRSYM    DATA     BYTE      NvFsmMode
      000000D0H.5 SFRSYM    DATA     BIT       F0
      000000E8H.1 SFRSYM    DATA     BIT       F1
      000000D0H   SFRSYM    DATA     BYTE      PSW

      0100206CH   BLOCK     ECODE    ---       LVL=0
      0100206CH   LINE      ECODE    ---       #56
      0100206CH   LINE      ECODE    ---       #57
      0100206CH   LINE      ECODE    ---       #58
      01002071H   LINE      ECODE    ---       #60
      01002075H   LINE      ECODE    ---       #62
      ---         BLOCKEND  ---      ---       LVL=0

      ---         MODULE    ---      ---       GET_SECURITY_STATUS
      01001EB0H   PUBLIC    ECODE    ---       Get_Security_Status
      000000D0H.6 SFRSYM    DATA     BIT       AC
      00000080H   SFRSYM    DATA     BIT       FSM_FINISH
      00000083H   SFRSYM    DATA     BYTE      DPH0
      000000E8H   SFRSYM    DATA     BIT       AM
      000000A8H   SFRSYM    DATA     BYTE      IE
      00000085H   SFRSYM    DATA     BYTE      DPH1
      00000082H   SFRSYM    DATA     BYTE      DPL0
      00000084H   SFRSYM    DATA     BYTE      DPL1
      00000088H   SFRSYM    DATA     BIT       SSINT
      000000C0H   SFRSYM    DATA     BIT       PULLUP_RES_STATE
      00000088H.1 SFRSYM    DATA     BIT       USINT
      000000B8H   SFRSYM    DATA     BYTE      IP
      00000098H   SFRSYM    DATA     BIT       RI
      000000D0H.7 SFRSYM    DATA     BIT       CY
LX51 LINKER/LOCATER V4.10a                                                            10/17/2007  16:48:09  PAGE 47


      00000098H.1 SFRSYM    DATA     BIT       TI
      000000EAH   SFRSYM    DATA     BYTE      MPTRX
      00000093H   SFRSYM    DATA     BYTE      DPX0
      00000095H   SFRSYM    DATA     BYTE      DPX1
      00000081H   SFRSYM    DATA     BYTE      SP
      000000D0H.2 SFRSYM    DATA     BIT       OV
      000000A1H   SFRSYM    DATA     BYTE      CBSL
      00000080H.5 SFRSYM    DATA     BIT       FSM_RESULT
      00000099H   SFRSYM    DATA     BYTE      SBUF
      00000087H   SFRSYM    DATA     BYTE      PCON
      00000088H.3 SFRSYM    DATA     BIT       MFLT
      00000098H   SFRSYM    DATA     BYTE      SCON
      00000089H   SFRSYM    DATA     BYTE      TMOD
      00000088H   SFRSYM    DATA     BYTE      TCON
      00000088H.1 SFRSYM    DATA     BIT       SINT
      000000E8H   SFRSYM    DATA     BYTE      EPSW
      000000F0H   SFRSYM    DATA     BYTE      B
      000000A2H   SFRSYM    DATA     BYTE      MPTR
      000000E0H   SFRSYM    DATA     BYTE      ACC
      00000088H.5 SFRSYM    DATA     BIT       TF0
      00000088H.7 SFRSYM    DATA     BIT       TF1
      0000008CH   SFRSYM    DATA     BYTE      TH0
      000000B2H   SFRSYM    DATA     BYTE      ISOCON
      0000008DH   SFRSYM    DATA     BYTE      TH1
      000000D8H   SFRSYM    DATA     BYTE      SPSW
      000000D0H   SFRSYM    DATA     BIT       P
      0000008AH   SFRSYM    DATA     BYTE      TL0
      0000008BH   SFRSYM    DATA     BYTE      TL1
      000000C0H   SFRSYM    DATA     BYTE      PROGIO
      000000D0H.3 SFRSYM    DATA     BIT       RS0
      00000088H.4 SFRSYM    DATA     BIT       TR0
      000000D0H.4 SFRSYM    DATA     BIT       RS1
      00000080H.1 SFRSYM    DATA     BIT       FSM_START
      00000088H.6 SFRSYM    DATA     BIT       TR1
      00000083H   SFRSYM    DATA     BYTE      DPH
      000000B4H   SFRSYM    DATA     BYTE      ISOTMR
      00000082H   SFRSYM    DATA     BYTE      DPL
      000000B0H   SFRSYM    DATA     BYTE      SECURITYSTATUS
      00000086H   SFRSYM    DATA     BYTE      DPS
      00000093H   SFRSYM    DATA     BYTE      DPX
      00000080H   SFRSYM    DATA     BYTE      NVFSMCON
      000000F7H   SFRSYM    DATA     BYTE      MFCON
      000000C9H   SFRSYM    DATA     BYTE      NvFsmMode
      000000D0H.5 SFRSYM    DATA     BIT       F0
      000000E8H.1 SFRSYM    DATA     BIT       F1
      000000D0H   SFRSYM    DATA     BYTE      PSW

      01001EB0H   BLOCK     ECODE    ---       LVL=0
      01001EB0H   LINE      ECODE    ---       #58
      01001EB0H   LINE      ECODE    ---       #59
      01001EB0H   LINE      ECODE    ---       #60
      01001EB6H   LINE      ECODE    ---       #61
      01001EB6H   LINE      ECODE    ---       #62
      01001EBBH   LINE      ECODE    ---       #64
      01001EBFH   LINE      ECODE    ---       #65
      01001EC1H   LINE      ECODE    ---       #67
      01001EC1H   LINE      ECODE    ---       #68
      01001EC8H   LINE      ECODE    ---       #69
      01001EC8H   LINE      ECODE    ---       #71
      01001ECFH   LINE      ECODE    ---       #74
      ---         BLOCKEND  ---      ---       LVL=0

      ---         MODULE    ---      ---       GET_RESPONSE
      01001AC7H   PUBLIC    ECODE    ---       Get_Response
      000000D0H.6 SFRSYM    DATA     BIT       AC
LX51 LINKER/LOCATER V4.10a                                                            10/17/2007  16:48:09  PAGE 48


      00000080H   SFRSYM    DATA     BIT       FSM_FINISH
      00000083H   SFRSYM    DATA     BYTE      DPH0
      000000E8H   SFRSYM    DATA     BIT       AM
      000000A8H   SFRSYM    DATA     BYTE      IE
      00000085H   SFRSYM    DATA     BYTE      DPH1
      00000082H   SFRSYM    DATA     BYTE      DPL0
      00000084H   SFRSYM    DATA     BYTE      DPL1
      00000088H   SFRSYM    DATA     BIT       SSINT
      000000C0H   SFRSYM    DATA     BIT       PULLUP_RES_STATE
      00000088H.1 SFRSYM    DATA     BIT       USINT
      000000B8H   SFRSYM    DATA     BYTE      IP
      00000098H   SFRSYM    DATA     BIT       RI
      000000D0H.7 SFRSYM    DATA     BIT       CY
      00000098H.1 SFRSYM    DATA     BIT       TI
      000000EAH   SFRSYM    DATA     BYTE      MPTRX
      00000093H   SFRSYM    DATA     BYTE      DPX0
      00000095H   SFRSYM    DATA     BYTE      DPX1
      00000081H   SFRSYM    DATA     BYTE      SP
      000000D0H.2 SFRSYM    DATA     BIT       OV
      000000A1H   SFRSYM    DATA     BYTE      CBSL
      00000080H.5 SFRSYM    DATA     BIT       FSM_RESULT
      00000099H   SFRSYM    DATA     BYTE      SBUF
      00000087H   SFRSYM    DATA     BYTE      PCON
      00000088H.3 SFRSYM    DATA     BIT       MFLT
      00000098H   SFRSYM    DATA     BYTE      SCON
      00000089H   SFRSYM    DATA     BYTE      TMOD
      00000088H   SFRSYM    DATA     BYTE      TCON
      00000088H.1 SFRSYM    DATA     BIT       SINT
      000000E8H   SFRSYM    DATA     BYTE      EPSW
      000000F0H   SFRSYM    DATA     BYTE      B
      000000A2H   SFRSYM    DATA     BYTE      MPTR
      000000E0H   SFRSYM    DATA     BYTE      ACC
      00000088H.5 SFRSYM    DATA     BIT       TF0
      00000088H.7 SFRSYM    DATA     BIT       TF1
      0000008CH   SFRSYM    DATA     BYTE      TH0
      000000B2H   SFRSYM    DATA     BYTE      ISOCON
      0000008DH   SFRSYM    DATA     BYTE      TH1
      000000D8H   SFRSYM    DATA     BYTE      SPSW
      000000D0H   SFRSYM    DATA     BIT       P
      0000008AH   SFRSYM    DATA     BYTE      TL0
      0000008BH   SFRSYM    DATA     BYTE      TL1
      000000C0H   SFRSYM    DATA     BYTE      PROGIO
      000000D0H.3 SFRSYM    DATA     BIT       RS0
      00000088H.4 SFRSYM    DATA     BIT       TR0
      000000D0H.4 SFRSYM    DATA     BIT       RS1
      00000080H.1 SFRSYM    DATA     BIT       FSM_START
      00000088H.6 SFRSYM    DATA     BIT       TR1
      00000083H   SFRSYM    DATA     BYTE      DPH
      000000B4H   SFRSYM    DATA     BYTE      ISOTMR
      00000082H   SFRSYM    DATA     BYTE      DPL
      000000B0H   SFRSYM    DATA     BYTE      SECURITYSTATUS
      00000086H   SFRSYM    DATA     BYTE      DPS
      00000093H   SFRSYM    DATA     BYTE      DPX
      00000080H   SFRSYM    DATA     BYTE      NVFSMCON
      000000F7H   SFRSYM    DATA     BYTE      MFCON
      000000C9H   SFRSYM    DATA     BYTE      NvFsmMode
      000000D0H.5 SFRSYM    DATA     BIT       F0
      000000E8H.1 SFRSYM    DATA     BIT       F1
      000000D0H   SFRSYM    DATA     BYTE      PSW

      01001AC7H   BLOCK     ECODE    ---       LVL=0
      01001AC7H   LINE      ECODE    ---       #58
      01001AC7H   LINE      ECODE    ---       #59
      01001AC7H   LINE      ECODE    ---       #60
      01001ACFH   LINE      ECODE    ---       #61
LX51 LINKER/LOCATER V4.10a                                                            10/17/2007  16:48:09  PAGE 49


      01001ACFH   LINE      ECODE    ---       #63
      01001ADDH   LINE      ECODE    ---       #64
      01001ADDH   LINE      ECODE    ---       #65
      01001AEFH   LINE      ECODE    ---       #66
      01001AF4H   LINE      ECODE    ---       #67
      01001AF8H   LINE      ECODE    ---       #68
      01001AFAH   LINE      ECODE    ---       #70
      01001AFAH   LINE      ECODE    ---       #71
      01001B01H   LINE      ECODE    ---       #72
      01001B01H   LINE      ECODE    ---       #74
      01001B08H   LINE      ECODE    ---       #76
      ---         BLOCKEND  ---      ---       LVL=0

      ---         MODULE    ---      ---       TIMER0_FUNCTIONS
      010017FFH   PUBLIC    ECODE    ---       Timer0_Read
      01001FE9H   PUBLIC    ECODE    ---       Timer0_Stop
      01001D7EH   PUBLIC    ECODE    ---       _Timer0_Setup
      01001F5DH   PUBLIC    ECODE    ---       Timer0_Start
      000000D0H.6 SFRSYM    DATA     BIT       AC
      00000080H   SFRSYM    DATA     BIT       FSM_FINISH
      00000083H   SFRSYM    DATA     BYTE      DPH0
      000000E8H   SFRSYM    DATA     BIT       AM
      000000A8H   SFRSYM    DATA     BYTE      IE
      00000085H   SFRSYM    DATA     BYTE      DPH1
      00000082H   SFRSYM    DATA     BYTE      DPL0
      00000084H   SFRSYM    DATA     BYTE      DPL1
      00000088H   SFRSYM    DATA     BIT       SSINT
      000000C0H   SFRSYM    DATA     BIT       PULLUP_RES_STATE
      00000088H.1 SFRSYM    DATA     BIT       USINT
      000000B8H   SFRSYM    DATA     BYTE      IP
      00000098H   SFRSYM    DATA     BIT       RI
      000000D0H.7 SFRSYM    DATA     BIT       CY
      00000098H.1 SFRSYM    DATA     BIT       TI
      000000EAH   SFRSYM    DATA     BYTE      MPTRX
      00000093H   SFRSYM    DATA     BYTE      DPX0
      00000095H   SFRSYM    DATA     BYTE      DPX1
      00000081H   SFRSYM    DATA     BYTE      SP
      000000D0H.2 SFRSYM    DATA     BIT       OV
      000000A1H   SFRSYM    DATA     BYTE      CBSL
      00000080H.5 SFRSYM    DATA     BIT       FSM_RESULT
      00000099H   SFRSYM    DATA     BYTE      SBUF
      00000087H   SFRSYM    DATA     BYTE      PCON
      00000088H.3 SFRSYM    DATA     BIT       MFLT
      00000098H   SFRSYM    DATA     BYTE      SCON
      00000089H   SFRSYM    DATA     BYTE      TMOD
      00000088H   SFRSYM    DATA     BYTE      TCON
      00000088H.1 SFRSYM    DATA     BIT       SINT
      000000E8H   SFRSYM    DATA     BYTE      EPSW
      000000F0H   SFRSYM    DATA     BYTE      B
      000000A2H   SFRSYM    DATA     BYTE      MPTR
      000000E0H   SFRSYM    DATA     BYTE      ACC
      00000088H.5 SFRSYM    DATA     BIT       TF0
      00000088H.7 SFRSYM    DATA     BIT       TF1
      0000008CH   SFRSYM    DATA     BYTE      TH0
      000000B2H   SFRSYM    DATA     BYTE      ISOCON
      0000008DH   SFRSYM    DATA     BYTE      TH1
      000000D8H   SFRSYM    DATA     BYTE      SPSW
      000000D0H   SFRSYM    DATA     BIT       P
      0000008AH   SFRSYM    DATA     BYTE      TL0
      0000008BH   SFRSYM    DATA     BYTE      TL1
      000000C0H   SFRSYM    DATA     BYTE      PROGIO
      000000D0H.3 SFRSYM    DATA     BIT       RS0
      00000088H.4 SFRSYM    DATA     BIT       TR0
      000000D0H.4 SFRSYM    DATA     BIT       RS1
      00000080H.1 SFRSYM    DATA     BIT       FSM_START
LX51 LINKER/LOCATER V4.10a                                                            10/17/2007  16:48:09  PAGE 50


      00000088H.6 SFRSYM    DATA     BIT       TR1
      00000083H   SFRSYM    DATA     BYTE      DPH
      000000B4H   SFRSYM    DATA     BYTE      ISOTMR
      00000082H   SFRSYM    DATA     BYTE      DPL
      000000B0H   SFRSYM    DATA     BYTE      SECURITYSTATUS
      00000086H   SFRSYM    DATA     BYTE      DPS
      00000093H   SFRSYM    DATA     BYTE      DPX
      00000080H   SFRSYM    DATA     BYTE      NVFSMCON
      000000F7H   SFRSYM    DATA     BYTE      MFCON
      000000C9H   SFRSYM    DATA     BYTE      NvFsmMode
      000000D0H.5 SFRSYM    DATA     BIT       F0
      000000E8H.1 SFRSYM    DATA     BIT       F1
      000000D0H   SFRSYM    DATA     BYTE      PSW

      01001F5DH   BLOCK     ECODE    ---       LVL=0
      01001F5DH   BLOCK     ECODE    NEAR LAB  LVL=1
      00000005H   SYMBOL    DATA     BYTE      bTimerMode
      00000006H   SYMBOL    DATA     WORD      wTimerCounterValue
      ---         BLOCKEND  ---      ---       LVL=1
      01001F5DH   LINE      ECODE    ---       #61
      01001F5DH   LINE      ECODE    ---       #62
      01001F5DH   LINE      ECODE    ---       #64
      01001F62H   LINE      ECODE    ---       #67
      01001F66H   LINE      ECODE    ---       #70
      01001F6CH   LINE      ECODE    ---       #73
      01001F6FH   LINE      ECODE    ---       #76
      01001F73H   LINE      ECODE    ---       #77
      ---         BLOCKEND  ---      ---       LVL=0

      01001D7EH   BLOCK     ECODE    ---       LVL=0
      00000008H   SYMBOL    DATA     WORD      wCounter
      0000000AH   SYMBOL    DATA     BYTE      bMode
      01001D7EH   LINE      ECODE    ---       #91
      01001D84H   LINE      ECODE    ---       #92
      01001D84H   LINE      ECODE    ---       #93
      01001D86H   LINE      ECODE    ---       #94
      01001D88H   LINE      ECODE    ---       #97
      01001D92H   LINE      ECODE    ---       #99
      01001D95H   LINE      ECODE    ---       #100
      01001D99H   LINE      ECODE    ---       #102
      01001D9DH   LINE      ECODE    ---       #103
      01001DA1H   LINE      ECODE    ---       #105
      01001DA3H   LINE      ECODE    ---       #106
      ---         BLOCKEND  ---      ---       LVL=0

      01001FE9H   BLOCK     ECODE    ---       LVL=0
      01001FE9H   LINE      ECODE    ---       #126
      01001FE9H   LINE      ECODE    ---       #127
      01001FE9H   LINE      ECODE    ---       #129
      01001FF3H   LINE      ECODE    ---       #131
      01001FF5H   LINE      ECODE    ---       #134
      01001FF9H   LINE      ECODE    ---       #135
      ---         BLOCKEND  ---      ---       LVL=0

      010017FFH   BLOCK     ECODE    ---       LVL=0
      010017FFH   LINE      ECODE    ---       #161
      010017FFH   LINE      ECODE    ---       #162
      010017FFH   LINE      ECODE    ---       #164
      01001803H   LINE      ECODE    ---       #165
      01001806H   LINE      ECODE    ---       #166
      01001809H   LINE      ECODE    ---       #167
      0100180CH   LINE      ECODE    ---       #168
      01001812H   LINE      ECODE    ---       #170
      01001819H   LINE      ECODE    ---       #171
      01001819H   LINE      ECODE    ---       #172
LX51 LINKER/LOCATER V4.10a                                                            10/17/2007  16:48:09  PAGE 51


      01001820H   LINE      ECODE    ---       #173
      01001827H   LINE      ECODE    ---       #174
      0100182EH   LINE      ECODE    ---       #175
      01001835H   LINE      ECODE    ---       #176
      0100183CH   LINE      ECODE    ---       #178
      01001840H   LINE      ECODE    ---       #179
      01001842H   LINE      ECODE    ---       #181
      01001842H   LINE      ECODE    ---       #182
      01001849H   LINE      ECODE    ---       #183
      01001849H   LINE      ECODE    ---       #185
      01001850H   LINE      ECODE    ---       #186
      ---         BLOCKEND  ---      ---       LVL=0

      ---         MODULE    ---      ---       TIMER1_FUNCTIONS
      01001851H   PUBLIC    ECODE    ---       Timer1_Read
      01001FFAH   PUBLIC    ECODE    ---       Timer1_Stop
      01001CB8H   PUBLIC    ECODE    ---       _Timer1_Setup
      01001F74H   PUBLIC    ECODE    ---       Timer1_Start
      000000D0H.6 SFRSYM    DATA     BIT       AC
      00000080H   SFRSYM    DATA     BIT       FSM_FINISH
      00000083H   SFRSYM    DATA     BYTE      DPH0
      000000E8H   SFRSYM    DATA     BIT       AM
      000000A8H   SFRSYM    DATA     BYTE      IE
      00000085H   SFRSYM    DATA     BYTE      DPH1
      00000082H   SFRSYM    DATA     BYTE      DPL0
      00000084H   SFRSYM    DATA     BYTE      DPL1
      00000088H   SFRSYM    DATA     BIT       SSINT
      000000C0H   SFRSYM    DATA     BIT       PULLUP_RES_STATE
      00000088H.1 SFRSYM    DATA     BIT       USINT
      000000B8H   SFRSYM    DATA     BYTE      IP
      00000098H   SFRSYM    DATA     BIT       RI
      000000D0H.7 SFRSYM    DATA     BIT       CY
      00000098H.1 SFRSYM    DATA     BIT       TI
      000000EAH   SFRSYM    DATA     BYTE      MPTRX
      00000093H   SFRSYM    DATA     BYTE      DPX0
      00000095H   SFRSYM    DATA     BYTE      DPX1
      00000081H   SFRSYM    DATA     BYTE      SP
      000000D0H.2 SFRSYM    DATA     BIT       OV
      000000A1H   SFRSYM    DATA     BYTE      CBSL
      00000080H.5 SFRSYM    DATA     BIT       FSM_RESULT
      00000099H   SFRSYM    DATA     BYTE      SBUF
      00000087H   SFRSYM    DATA     BYTE      PCON
      00000088H.3 SFRSYM    DATA     BIT       MFLT
      00000098H   SFRSYM    DATA     BYTE      SCON
      00000089H   SFRSYM    DATA     BYTE      TMOD
      00000088H   SFRSYM    DATA     BYTE      TCON
      00000088H.1 SFRSYM    DATA     BIT       SINT
      000000E8H   SFRSYM    DATA     BYTE      EPSW
      000000F0H   SFRSYM    DATA     BYTE      B
      000000A2H   SFRSYM    DATA     BYTE      MPTR
      000000E0H   SFRSYM    DATA     BYTE      ACC
      00000088H.5 SFRSYM    DATA     BIT       TF0
      00000088H.7 SFRSYM    DATA     BIT       TF1
      0000008CH   SFRSYM    DATA     BYTE      TH0
      000000B2H   SFRSYM    DATA     BYTE      ISOCON
      0000008DH   SFRSYM    DATA     BYTE      TH1
      000000D8H   SFRSYM    DATA     BYTE      SPSW
      000000D0H   SFRSYM    DATA     BIT       P
      0000008AH   SFRSYM    DATA     BYTE      TL0
      0000008BH   SFRSYM    DATA     BYTE      TL1
      000000C0H   SFRSYM    DATA     BYTE      PROGIO
      000000D0H.3 SFRSYM    DATA     BIT       RS0
      00000088H.4 SFRSYM    DATA     BIT       TR0
      000000D0H.4 SFRSYM    DATA     BIT       RS1
      00000080H.1 SFRSYM    DATA     BIT       FSM_START
LX51 LINKER/LOCATER V4.10a                                                            10/17/2007  16:48:09  PAGE 52


      00000088H.6 SFRSYM    DATA     BIT       TR1
      00000083H   SFRSYM    DATA     BYTE      DPH
      000000B4H   SFRSYM    DATA     BYTE      ISOTMR
      00000082H   SFRSYM    DATA     BYTE      DPL
      000000B0H   SFRSYM    DATA     BYTE      SECURITYSTATUS
      00000086H   SFRSYM    DATA     BYTE      DPS
      00000093H   SFRSYM    DATA     BYTE      DPX
      00000080H   SFRSYM    DATA     BYTE      NVFSMCON
      000000F7H   SFRSYM    DATA     BYTE      MFCON
      000000C9H   SFRSYM    DATA     BYTE      NvFsmMode
      000000D0H.5 SFRSYM    DATA     BIT       F0
      000000E8H.1 SFRSYM    DATA     BIT       F1
      000000D0H   SFRSYM    DATA     BYTE      PSW

      01001F74H   BLOCK     ECODE    ---       LVL=0
      01001F74H   BLOCK     ECODE    NEAR LAB  LVL=1
      00000005H   SYMBOL    DATA     BYTE      bTimerMode
      00000006H   SYMBOL    DATA     WORD      wTimerCounterValue
      ---         BLOCKEND  ---      ---       LVL=1
      01001F74H   LINE      ECODE    ---       #61
      01001F74H   LINE      ECODE    ---       #62
      01001F74H   LINE      ECODE    ---       #64
      01001F79H   LINE      ECODE    ---       #67
      01001F7DH   LINE      ECODE    ---       #70
      01001F83H   LINE      ECODE    ---       #73
      01001F86H   LINE      ECODE    ---       #76
      01001F8AH   LINE      ECODE    ---       #77
      ---         BLOCKEND  ---      ---       LVL=0

      01001CB8H   BLOCK     ECODE    ---       LVL=0
      00000008H   SYMBOL    DATA     WORD      wCounter
      0000000AH   SYMBOL    DATA     BYTE      bMode
      01001CB8H   LINE      ECODE    ---       #91
      01001CBEH   LINE      ECODE    ---       #92
      01001CBEH   LINE      ECODE    ---       #93
      01001CC0H   LINE      ECODE    ---       #94
      01001CC2H   LINE      ECODE    ---       #97
      01001CCCH   LINE      ECODE    ---       #99
      01001CCFH   LINE      ECODE    ---       #100
      01001CD6H   LINE      ECODE    ---       #102
      01001CDAH   LINE      ECODE    ---       #103
      01001CDEH   LINE      ECODE    ---       #105
      01001CE0H   LINE      ECODE    ---       #106
      ---         BLOCKEND  ---      ---       LVL=0

      01001FFAH   BLOCK     ECODE    ---       LVL=0
      01001FFAH   LINE      ECODE    ---       #126
      01001FFAH   LINE      ECODE    ---       #127
      01001FFAH   LINE      ECODE    ---       #129
      01002004H   LINE      ECODE    ---       #131
      01002006H   LINE      ECODE    ---       #134
      0100200AH   LINE      ECODE    ---       #135
      ---         BLOCKEND  ---      ---       LVL=0

      01001851H   BLOCK     ECODE    ---       LVL=0
      01001851H   LINE      ECODE    ---       #161
      01001851H   LINE      ECODE    ---       #162
      01001851H   LINE      ECODE    ---       #164
      01001855H   LINE      ECODE    ---       #165
      01001858H   LINE      ECODE    ---       #166
      0100185BH   LINE      ECODE    ---       #167
      0100185EH   LINE      ECODE    ---       #168
      01001864H   LINE      ECODE    ---       #170
      0100186BH   LINE      ECODE    ---       #171
      0100186BH   LINE      ECODE    ---       #172
LX51 LINKER/LOCATER V4.10a                                                            10/17/2007  16:48:09  PAGE 53


      01001872H   LINE      ECODE    ---       #173
      01001879H   LINE      ECODE    ---       #174
      01001880H   LINE      ECODE    ---       #175
      01001887H   LINE      ECODE    ---       #176
      0100188EH   LINE      ECODE    ---       #178
      01001892H   LINE      ECODE    ---       #179
      01001894H   LINE      ECODE    ---       #181
      01001894H   LINE      ECODE    ---       #182
      0100189BH   LINE      ECODE    ---       #183
      0100189BH   LINE      ECODE    ---       #185
      010018A2H   LINE      ECODE    ---       #186
      ---         BLOCKEND  ---      ---       LVL=0

      ---         MODULE    ---      ---       WRITE_UCM_BYTES_FROM_IRAM_BUFFER_EXTENDED
      01001A7FH   PUBLIC    ECODE    ---       Write_UCM_Bytes_From_IRAM_Buffer_Extended_Addressing
      000000D0H.6 SFRSYM    DATA     BIT       AC
      00000080H   SFRSYM    DATA     BIT       FSM_FINISH
      00000083H   SFRSYM    DATA     BYTE      DPH0
      000000E8H   SFRSYM    DATA     BIT       AM
      000000A8H   SFRSYM    DATA     BYTE      IE
      00000085H   SFRSYM    DATA     BYTE      DPH1
      00000082H   SFRSYM    DATA     BYTE      DPL0
      00000084H   SFRSYM    DATA     BYTE      DPL1
      00000088H   SFRSYM    DATA     BIT       SSINT
      000000C0H   SFRSYM    DATA     BIT       PULLUP_RES_STATE
      00000088H.1 SFRSYM    DATA     BIT       USINT
      000000B8H   SFRSYM    DATA     BYTE      IP
      00000098H   SFRSYM    DATA     BIT       RI
      000000D0H.7 SFRSYM    DATA     BIT       CY
      00000098H.1 SFRSYM    DATA     BIT       TI
      000000EAH   SFRSYM    DATA     BYTE      MPTRX
      00000093H   SFRSYM    DATA     BYTE      DPX0
      00000095H   SFRSYM    DATA     BYTE      DPX1
      00000081H   SFRSYM    DATA     BYTE      SP
      000000D0H.2 SFRSYM    DATA     BIT       OV
      000000A1H   SFRSYM    DATA     BYTE      CBSL
      00000080H.5 SFRSYM    DATA     BIT       FSM_RESULT
      00000099H   SFRSYM    DATA     BYTE      SBUF
      00000087H   SFRSYM    DATA     BYTE      PCON
      00000088H.3 SFRSYM    DATA     BIT       MFLT
      00000098H   SFRSYM    DATA     BYTE      SCON
      00000089H   SFRSYM    DATA     BYTE      TMOD
      00000088H   SFRSYM    DATA     BYTE      TCON
      00000088H.1 SFRSYM    DATA     BIT       SINT
      000000E8H   SFRSYM    DATA     BYTE      EPSW
      000000F0H   SFRSYM    DATA     BYTE      B
      000000A2H   SFRSYM    DATA     BYTE      MPTR
      000000E0H   SFRSYM    DATA     BYTE      ACC
      00000088H.5 SFRSYM    DATA     BIT       TF0
      00000088H.7 SFRSYM    DATA     BIT       TF1
      0000008CH   SFRSYM    DATA     BYTE      TH0
      000000B2H   SFRSYM    DATA     BYTE      ISOCON
      0000008DH   SFRSYM    DATA     BYTE      TH1
      000000D8H   SFRSYM    DATA     BYTE      SPSW
      000000D0H   SFRSYM    DATA     BIT       P
      0000008AH   SFRSYM    DATA     BYTE      TL0
      0000008BH   SFRSYM    DATA     BYTE      TL1
      000000C0H   SFRSYM    DATA     BYTE      PROGIO
      000000D0H.3 SFRSYM    DATA     BIT       RS0
      00000088H.4 SFRSYM    DATA     BIT       TR0
      000000D0H.4 SFRSYM    DATA     BIT       RS1
      00000080H.1 SFRSYM    DATA     BIT       FSM_START
      00000088H.6 SFRSYM    DATA     BIT       TR1
      00000083H   SFRSYM    DATA     BYTE      DPH
      000000B4H   SFRSYM    DATA     BYTE      ISOTMR
LX51 LINKER/LOCATER V4.10a                                                            10/17/2007  16:48:09  PAGE 54


      00000082H   SFRSYM    DATA     BYTE      DPL
      000000B0H   SFRSYM    DATA     BYTE      SECURITYSTATUS
      00000086H   SFRSYM    DATA     BYTE      DPS
      00000093H   SFRSYM    DATA     BYTE      DPX
      00000080H   SFRSYM    DATA     BYTE      NVFSMCON
      000000F7H   SFRSYM    DATA     BYTE      MFCON
      000000C9H   SFRSYM    DATA     BYTE      NvFsmMode
      000000D0H.5 SFRSYM    DATA     BIT       F0
      000000E8H.1 SFRSYM    DATA     BIT       F1
      000000D0H   SFRSYM    DATA     BYTE      PSW

      01001A7FH   BLOCK     ECODE    ---       LVL=0
      01001A7FH   LINE      ECODE    ---       #64
      01001A7FH   LINE      ECODE    ---       #65
      01001A7FH   LINE      ECODE    ---       #66
      01001A86H   LINE      ECODE    ---       #67
      01001A86H   LINE      ECODE    ---       #69
      01001A8DH   LINE      ECODE    ---       #73
      01001A94H   LINE      ECODE    ---       #76
      01001AA8H   LINE      ECODE    ---       #78
      01001AADH   LINE      ECODE    ---       #79
      01001AADH   LINE      ECODE    ---       #80
      01001AB2H   LINE      ECODE    ---       #81
      01001AB4H   LINE      ECODE    ---       #83
      01001AB4H   LINE      ECODE    ---       #84
      01001AB6H   LINE      ECODE    ---       #85
      01001AB6H   LINE      ECODE    ---       #86
      01001AB8H   LINE      ECODE    ---       #89
      01001AB8H   LINE      ECODE    ---       #90
      01001ABFH   LINE      ECODE    ---       #91
      01001ABFH   LINE      ECODE    ---       #93
      01001AC6H   LINE      ECODE    ---       #95
      ---         BLOCKEND  ---      ---       LVL=0

      ---         MODULE    ---      ---       GET_TCON
      01001ED0H   PUBLIC    ECODE    ---       Get_TCON
      000000D0H.6 SFRSYM    DATA     BIT       AC
      00000080H   SFRSYM    DATA     BIT       FSM_FINISH
      00000083H   SFRSYM    DATA     BYTE      DPH0
      000000E8H   SFRSYM    DATA     BIT       AM
      000000A8H   SFRSYM    DATA     BYTE      IE
      00000085H   SFRSYM    DATA     BYTE      DPH1
      00000082H   SFRSYM    DATA     BYTE      DPL0
      00000084H   SFRSYM    DATA     BYTE      DPL1
      00000088H   SFRSYM    DATA     BIT       SSINT
      000000C0H   SFRSYM    DATA     BIT       PULLUP_RES_STATE
      00000088H.1 SFRSYM    DATA     BIT       USINT
      000000B8H   SFRSYM    DATA     BYTE      IP
      00000098H   SFRSYM    DATA     BIT       RI
      000000D0H.7 SFRSYM    DATA     BIT       CY
      00000098H.1 SFRSYM    DATA     BIT       TI
      000000EAH   SFRSYM    DATA     BYTE      MPTRX
      00000093H   SFRSYM    DATA     BYTE      DPX0
      00000095H   SFRSYM    DATA     BYTE      DPX1
      00000081H   SFRSYM    DATA     BYTE      SP
      000000D0H.2 SFRSYM    DATA     BIT       OV
      000000A1H   SFRSYM    DATA     BYTE      CBSL
      00000080H.5 SFRSYM    DATA     BIT       FSM_RESULT
      00000099H   SFRSYM    DATA     BYTE      SBUF
      00000087H   SFRSYM    DATA     BYTE      PCON
      00000088H.3 SFRSYM    DATA     BIT       MFLT
      00000098H   SFRSYM    DATA     BYTE      SCON
      00000089H   SFRSYM    DATA     BYTE      TMOD
      00000088H   SFRSYM    DATA     BYTE      TCON
      00000088H.1 SFRSYM    DATA     BIT       SINT
LX51 LINKER/LOCATER V4.10a                                                            10/17/2007  16:48:09  PAGE 55


      000000E8H   SFRSYM    DATA     BYTE      EPSW
      000000F0H   SFRSYM    DATA     BYTE      B
      000000A2H   SFRSYM    DATA     BYTE      MPTR
      000000E0H   SFRSYM    DATA     BYTE      ACC
      00000088H.5 SFRSYM    DATA     BIT       TF0
      00000088H.7 SFRSYM    DATA     BIT       TF1
      0000008CH   SFRSYM    DATA     BYTE      TH0
      000000B2H   SFRSYM    DATA     BYTE      ISOCON
      0000008DH   SFRSYM    DATA     BYTE      TH1
      000000D8H   SFRSYM    DATA     BYTE      SPSW
      000000D0H   SFRSYM    DATA     BIT       P
      0000008AH   SFRSYM    DATA     BYTE      TL0
      0000008BH   SFRSYM    DATA     BYTE      TL1
      000000C0H   SFRSYM    DATA     BYTE      PROGIO
      000000D0H.3 SFRSYM    DATA     BIT       RS0
      00000088H.4 SFRSYM    DATA     BIT       TR0
      000000D0H.4 SFRSYM    DATA     BIT       RS1
      00000080H.1 SFRSYM    DATA     BIT       FSM_START
      00000088H.6 SFRSYM    DATA     BIT       TR1
      00000083H   SFRSYM    DATA     BYTE      DPH
      000000B4H   SFRSYM    DATA     BYTE      ISOTMR
      00000082H   SFRSYM    DATA     BYTE      DPL
      000000B0H   SFRSYM    DATA     BYTE      SECURITYSTATUS
      00000086H   SFRSYM    DATA     BYTE      DPS
      00000093H   SFRSYM    DATA     BYTE      DPX
      00000080H   SFRSYM    DATA     BYTE      NVFSMCON
      000000F7H   SFRSYM    DATA     BYTE      MFCON
      000000C9H   SFRSYM    DATA     BYTE      NvFsmMode
      000000D0H.5 SFRSYM    DATA     BIT       F0
      000000E8H.1 SFRSYM    DATA     BIT       F1
      000000D0H   SFRSYM    DATA     BYTE      PSW

      01001ED0H   BLOCK     ECODE    ---       LVL=0
      01001ED0H   LINE      ECODE    ---       #58
      01001ED0H   LINE      ECODE    ---       #59
      01001ED0H   LINE      ECODE    ---       #60
      01001ED6H   LINE      ECODE    ---       #61
      01001ED6H   LINE      ECODE    ---       #62
      01001EDBH   LINE      ECODE    ---       #64
      01001EDFH   LINE      ECODE    ---       #65
      01001EE1H   LINE      ECODE    ---       #67
      01001EE1H   LINE      ECODE    ---       #68
      01001EE8H   LINE      ECODE    ---       #69
      01001EE8H   LINE      ECODE    ---       #71
      01001EEFH   LINE      ECODE    ---       #74
      ---         BLOCKEND  ---      ---       LVL=0

      ---         MODULE    ---      ---       CRC16_NORMAL
      01000BEDH   PUBLIC    CONST    ---       CRC16_LookUp_Table
      010017ABH   PUBLIC    ECODE    ---       _CalculateCRC
      010019E7H   PUBLIC    ECODE    ---       Create_CRC16_Hash_Of_XDATA
      000000D0H.6 SFRSYM    DATA     BIT       AC
      00000080H   SFRSYM    DATA     BIT       FSM_FINISH
      00000083H   SFRSYM    DATA     BYTE      DPH0
      000000E8H   SFRSYM    DATA     BIT       AM
      000000A8H   SFRSYM    DATA     BYTE      IE
      00000085H   SFRSYM    DATA     BYTE      DPH1
      00000082H   SFRSYM    DATA     BYTE      DPL0
      00000084H   SFRSYM    DATA     BYTE      DPL1
      00000088H   SFRSYM    DATA     BIT       SSINT
      000000C0H   SFRSYM    DATA     BIT       PULLUP_RES_STATE
      00000088H.1 SFRSYM    DATA     BIT       USINT
      000000B8H   SFRSYM    DATA     BYTE      IP
      00000098H   SFRSYM    DATA     BIT       RI
      000000D0H.7 SFRSYM    DATA     BIT       CY
LX51 LINKER/LOCATER V4.10a                                                            10/17/2007  16:48:09  PAGE 56


      00000098H.1 SFRSYM    DATA     BIT       TI
      000000EAH   SFRSYM    DATA     BYTE      MPTRX
      00000093H   SFRSYM    DATA     BYTE      DPX0
      00000095H   SFRSYM    DATA     BYTE      DPX1
      00000081H   SFRSYM    DATA     BYTE      SP
      000000D0H.2 SFRSYM    DATA     BIT       OV
      000000A1H   SFRSYM    DATA     BYTE      CBSL
      00000080H.5 SFRSYM    DATA     BIT       FSM_RESULT
      00000099H   SFRSYM    DATA     BYTE      SBUF
      00000087H   SFRSYM    DATA     BYTE      PCON
      00000088H.3 SFRSYM    DATA     BIT       MFLT
      00000098H   SFRSYM    DATA     BYTE      SCON
      00000089H   SFRSYM    DATA     BYTE      TMOD
      00000088H   SFRSYM    DATA     BYTE      TCON
      00000088H.1 SFRSYM    DATA     BIT       SINT
      000000E8H   SFRSYM    DATA     BYTE      EPSW
      000000F0H   SFRSYM    DATA     BYTE      B
      000000A2H   SFRSYM    DATA     BYTE      MPTR
      000000E0H   SFRSYM    DATA     BYTE      ACC
      00000088H.5 SFRSYM    DATA     BIT       TF0
      00000088H.7 SFRSYM    DATA     BIT       TF1
      0000008CH   SFRSYM    DATA     BYTE      TH0
      000000B2H   SFRSYM    DATA     BYTE      ISOCON
      0000008DH   SFRSYM    DATA     BYTE      TH1
      000000D8H   SFRSYM    DATA     BYTE      SPSW
      000000D0H   SFRSYM    DATA     BIT       P
      0000008AH   SFRSYM    DATA     BYTE      TL0
      0000008BH   SFRSYM    DATA     BYTE      TL1
      000000C0H   SFRSYM    DATA     BYTE      PROGIO
      000000D0H.3 SFRSYM    DATA     BIT       RS0
      00000088H.4 SFRSYM    DATA     BIT       TR0
      000000D0H.4 SFRSYM    DATA     BIT       RS1
      00000080H.1 SFRSYM    DATA     BIT       FSM_START
      00000088H.6 SFRSYM    DATA     BIT       TR1
      00000083H   SFRSYM    DATA     BYTE      DPH
      000000B4H   SFRSYM    DATA     BYTE      ISOTMR
      00000082H   SFRSYM    DATA     BYTE      DPL
      000000B0H   SFRSYM    DATA     BYTE      SECURITYSTATUS
      00000086H   SFRSYM    DATA     BYTE      DPS
      00000093H   SFRSYM    DATA     BYTE      DPX
      00000080H   SFRSYM    DATA     BYTE      NVFSMCON
      000000F7H   SFRSYM    DATA     BYTE      MFCON
      000000C9H   SFRSYM    DATA     BYTE      NvFsmMode
      000000D0H.5 SFRSYM    DATA     BIT       F0
      000000E8H.1 SFRSYM    DATA     BIT       F1
      000000D0H   SFRSYM    DATA     BYTE      PSW

      010019E7H   BLOCK     ECODE    ---       LVL=0
      010019E7H   BLOCK     ECODE    NEAR LAB  LVL=1
      00000008H   SYMBOL    DATA     WORD      CRC_Value
      ---         BLOCKEND  ---      ---       LVL=1
      010019E7H   LINE      ECODE    ---       #96
      010019E7H   LINE      ECODE    ---       #97
      010019E7H   LINE      ECODE    ---       #98
      010019ECH   LINE      ECODE    ---       #100
      010019F3H   LINE      ECODE    ---       #101
      010019F3H   LINE      ECODE    ---       #102
      01001A04H   LINE      ECODE    ---       #104
      01001A14H   LINE      ECODE    ---       #106
      01001A1AH   LINE      ECODE    ---       #107
      01001A21H   LINE      ECODE    ---       #109
      01001A25H   LINE      ECODE    ---       #110
      01001A27H   LINE      ECODE    ---       #112
      01001A27H   LINE      ECODE    ---       #113
      01001A2EH   LINE      ECODE    ---       #114
LX51 LINKER/LOCATER V4.10a                                                            10/17/2007  16:48:09  PAGE 57


      01001A2EH   LINE      ECODE    ---       #116
      01001A35H   LINE      ECODE    ---       #118
      ---         BLOCKEND  ---      ---       LVL=0

      010017ABH   BLOCK     ECODE    ---       LVL=0
      0000000AH   SYMBOL    DATA     ---       ucpStartAddress
      0000000CH   SYMBOL    DATA     WORD      uiInitRemainder
      00000002H   SYMBOL    DATA     WORD      uiLen
      010017ABH   LINE      ECODE    ---       #131
      010017B3H   LINE      ECODE    ---       #132
      010017B3H   LINE      ECODE    ---       #133
      010017BCH   LINE      ECODE    ---       #134
      010017BCH   LINE      ECODE    ---       #135
      010017F3H   LINE      ECODE    ---       #136
      010017FAH   LINE      ECODE    ---       #138
      010017FEH   LINE      ECODE    ---       #140
      ---         BLOCKEND  ---      ---       LVL=0

      ---         MODULE    ---      ---       CODE_MEMORY_DUMP_EXTENDED_ADDRESSING
      010018F5H   PUBLIC    ECODE    ---       CODE_Memory_Dump_Extended_Addressing
      000000D0H.6 SFRSYM    DATA     BIT       AC
      00000080H   SFRSYM    DATA     BIT       FSM_FINISH
      00000083H   SFRSYM    DATA     BYTE      DPH0
      000000E8H   SFRSYM    DATA     BIT       AM
      000000A8H   SFRSYM    DATA     BYTE      IE
      00000085H   SFRSYM    DATA     BYTE      DPH1
      00000082H   SFRSYM    DATA     BYTE      DPL0
      00000084H   SFRSYM    DATA     BYTE      DPL1
      00000088H   SFRSYM    DATA     BIT       SSINT
      000000C0H   SFRSYM    DATA     BIT       PULLUP_RES_STATE
      00000088H.1 SFRSYM    DATA     BIT       USINT
      000000B8H   SFRSYM    DATA     BYTE      IP
      00000098H   SFRSYM    DATA     BIT       RI
      000000D0H.7 SFRSYM    DATA     BIT       CY
      00000098H.1 SFRSYM    DATA     BIT       TI
      000000EAH   SFRSYM    DATA     BYTE      MPTRX
      00000093H   SFRSYM    DATA     BYTE      DPX0
      00000095H   SFRSYM    DATA     BYTE      DPX1
      00000081H   SFRSYM    DATA     BYTE      SP
      000000D0H.2 SFRSYM    DATA     BIT       OV
      000000A1H   SFRSYM    DATA     BYTE      CBSL
      00000080H.5 SFRSYM    DATA     BIT       FSM_RESULT
      00000099H   SFRSYM    DATA     BYTE      SBUF
      00000087H   SFRSYM    DATA     BYTE      PCON
      00000088H.3 SFRSYM    DATA     BIT       MFLT
      00000098H   SFRSYM    DATA     BYTE      SCON
      00000089H   SFRSYM    DATA     BYTE      TMOD
      00000088H   SFRSYM    DATA     BYTE      TCON
      00000088H.1 SFRSYM    DATA     BIT       SINT
      000000E8H   SFRSYM    DATA     BYTE      EPSW
      000000F0H   SFRSYM    DATA     BYTE      B
      000000A2H   SFRSYM    DATA     BYTE      MPTR
      000000E0H   SFRSYM    DATA     BYTE      ACC
      00000088H.5 SFRSYM    DATA     BIT       TF0
      00000088H.7 SFRSYM    DATA     BIT       TF1
      0000008CH   SFRSYM    DATA     BYTE      TH0
      000000B2H   SFRSYM    DATA     BYTE      ISOCON
      0000008DH   SFRSYM    DATA     BYTE      TH1
      000000D8H   SFRSYM    DATA     BYTE      SPSW
      000000D0H   SFRSYM    DATA     BIT       P
      0000008AH   SFRSYM    DATA     BYTE      TL0
      0000008BH   SFRSYM    DATA     BYTE      TL1
      000000C0H   SFRSYM    DATA     BYTE      PROGIO
      000000D0H.3 SFRSYM    DATA     BIT       RS0
      00000088H.4 SFRSYM    DATA     BIT       TR0
LX51 LINKER/LOCATER V4.10a                                                            10/17/2007  16:48:09  PAGE 58


      000000D0H.4 SFRSYM    DATA     BIT       RS1
      00000080H.1 SFRSYM    DATA     BIT       FSM_START
      00000088H.6 SFRSYM    DATA     BIT       TR1
      00000083H   SFRSYM    DATA     BYTE      DPH
      000000B4H   SFRSYM    DATA     BYTE      ISOTMR
      00000082H   SFRSYM    DATA     BYTE      DPL
      000000B0H   SFRSYM    DATA     BYTE      SECURITYSTATUS
      00000086H   SFRSYM    DATA     BYTE      DPS
      00000093H   SFRSYM    DATA     BYTE      DPX
      00000080H   SFRSYM    DATA     BYTE      NVFSMCON
      000000F7H   SFRSYM    DATA     BYTE      MFCON
      000000C9H   SFRSYM    DATA     BYTE      NvFsmMode
      000000D0H.5 SFRSYM    DATA     BIT       F0
      000000E8H.1 SFRSYM    DATA     BIT       F1
      000000D0H   SFRSYM    DATA     BYTE      PSW

      010018F5H   BLOCK     ECODE    ---       LVL=0
      010018F5H   LINE      ECODE    ---       #63
      010018F5H   LINE      ECODE    ---       #64
      010018F5H   LINE      ECODE    ---       #74
      010018F8H   LINE      ECODE    ---       #75
      01001900H   LINE      ECODE    ---       #76
      0100190AH   LINE      ECODE    ---       #77
      01001914H   LINE      ECODE    ---       #78
      0100191EH   LINE      ECODE    ---       #83
      0100191EH   LINE      ECODE    ---       #87
      0100193CH   LINE      ECODE    ---       #89
      01001942H   LINE      ECODE    ---       #91
      01001945H   LINE      ECODE    ---       #93
      ---         BLOCKEND  ---      ---       LVL=0

      ---         MODULE    ---      ---       XDATA_MEMORY_DUMP_EXTENDED_ADDRESSING
      01001946H   PUBLIC    ECODE    ---       XDATA_Memory_Dump_Extended_Addressing
      000000D0H.6 SFRSYM    DATA     BIT       AC
      00000080H   SFRSYM    DATA     BIT       FSM_FINISH
      00000083H   SFRSYM    DATA     BYTE      DPH0
      000000E8H   SFRSYM    DATA     BIT       AM
      000000A8H   SFRSYM    DATA     BYTE      IE
      00000085H   SFRSYM    DATA     BYTE      DPH1
      00000082H   SFRSYM    DATA     BYTE      DPL0
      00000084H   SFRSYM    DATA     BYTE      DPL1
      00000088H   SFRSYM    DATA     BIT       SSINT
      000000C0H   SFRSYM    DATA     BIT       PULLUP_RES_STATE
      00000088H.1 SFRSYM    DATA     BIT       USINT
      000000B8H   SFRSYM    DATA     BYTE      IP
      00000098H   SFRSYM    DATA     BIT       RI
      000000D0H.7 SFRSYM    DATA     BIT       CY
      00000098H.1 SFRSYM    DATA     BIT       TI
      000000EAH   SFRSYM    DATA     BYTE      MPTRX
      00000093H   SFRSYM    DATA     BYTE      DPX0
      00000095H   SFRSYM    DATA     BYTE      DPX1
      00000081H   SFRSYM    DATA     BYTE      SP
      000000D0H.2 SFRSYM    DATA     BIT       OV
      000000A1H   SFRSYM    DATA     BYTE      CBSL
      00000080H.5 SFRSYM    DATA     BIT       FSM_RESULT
      00000099H   SFRSYM    DATA     BYTE      SBUF
      00000087H   SFRSYM    DATA     BYTE      PCON
      00000088H.3 SFRSYM    DATA     BIT       MFLT
      00000098H   SFRSYM    DATA     BYTE      SCON
      00000089H   SFRSYM    DATA     BYTE      TMOD
      00000088H   SFRSYM    DATA     BYTE      TCON
      00000088H.1 SFRSYM    DATA     BIT       SINT
      000000E8H   SFRSYM    DATA     BYTE      EPSW
      000000F0H   SFRSYM    DATA     BYTE      B
      000000A2H   SFRSYM    DATA     BYTE      MPTR
LX51 LINKER/LOCATER V4.10a                                                            10/17/2007  16:48:09  PAGE 59


      000000E0H   SFRSYM    DATA     BYTE      ACC
      00000088H.5 SFRSYM    DATA     BIT       TF0
      00000088H.7 SFRSYM    DATA     BIT       TF1
      0000008CH   SFRSYM    DATA     BYTE      TH0
      000000B2H   SFRSYM    DATA     BYTE      ISOCON
      0000008DH   SFRSYM    DATA     BYTE      TH1
      000000D8H   SFRSYM    DATA     BYTE      SPSW
      000000D0H   SFRSYM    DATA     BIT       P
      0000008AH   SFRSYM    DATA     BYTE      TL0
      0000008BH   SFRSYM    DATA     BYTE      TL1
      000000C0H   SFRSYM    DATA     BYTE      PROGIO
      000000D0H.3 SFRSYM    DATA     BIT       RS0
      00000088H.4 SFRSYM    DATA     BIT       TR0
      000000D0H.4 SFRSYM    DATA     BIT       RS1
      00000080H.1 SFRSYM    DATA     BIT       FSM_START
      00000088H.6 SFRSYM    DATA     BIT       TR1
      00000083H   SFRSYM    DATA     BYTE      DPH
      000000B4H   SFRSYM    DATA     BYTE      ISOTMR
      00000082H   SFRSYM    DATA     BYTE      DPL
      000000B0H   SFRSYM    DATA     BYTE      SECURITYSTATUS
      00000086H   SFRSYM    DATA     BYTE      DPS
      00000093H   SFRSYM    DATA     BYTE      DPX
      00000080H   SFRSYM    DATA     BYTE      NVFSMCON
      000000F7H   SFRSYM    DATA     BYTE      MFCON
      000000C9H   SFRSYM    DATA     BYTE      NvFsmMode
      000000D0H.5 SFRSYM    DATA     BIT       F0
      000000E8H.1 SFRSYM    DATA     BIT       F1
      000000D0H   SFRSYM    DATA     BYTE      PSW

      01001946H   BLOCK     ECODE    ---       LVL=0
      01001946H   LINE      ECODE    ---       #62
      01001946H   LINE      ECODE    ---       #63
      01001946H   LINE      ECODE    ---       #73
      01001949H   LINE      ECODE    ---       #74
      01001951H   LINE      ECODE    ---       #75
      0100195BH   LINE      ECODE    ---       #76
      01001965H   LINE      ECODE    ---       #77
      0100196FH   LINE      ECODE    ---       #82
      0100196FH   LINE      ECODE    ---       #86
      0100198DH   LINE      ECODE    ---       #88
      01001993H   LINE      ECODE    ---       #90
      01001996H   LINE      ECODE    ---       #92
      ---         BLOCKEND  ---      ---       LVL=0

      ---         MODULE    ---      ---       IDATA_MEMORY_DUMP
      01001F29H   PUBLIC    ECODE    ---       IDATA_Memory_Dump
      000000D0H.6 SFRSYM    DATA     BIT       AC
      00000080H   SFRSYM    DATA     BIT       FSM_FINISH
      00000083H   SFRSYM    DATA     BYTE      DPH0
      000000E8H   SFRSYM    DATA     BIT       AM
      000000A8H   SFRSYM    DATA     BYTE      IE
      00000085H   SFRSYM    DATA     BYTE      DPH1
      00000082H   SFRSYM    DATA     BYTE      DPL0
      00000084H   SFRSYM    DATA     BYTE      DPL1
      00000088H   SFRSYM    DATA     BIT       SSINT
      000000C0H   SFRSYM    DATA     BIT       PULLUP_RES_STATE
      00000088H.1 SFRSYM    DATA     BIT       USINT
      000000B8H   SFRSYM    DATA     BYTE      IP
      00000098H   SFRSYM    DATA     BIT       RI
      000000D0H.7 SFRSYM    DATA     BIT       CY
      00000098H.1 SFRSYM    DATA     BIT       TI
      000000EAH   SFRSYM    DATA     BYTE      MPTRX
      00000093H   SFRSYM    DATA     BYTE      DPX0
      00000095H   SFRSYM    DATA     BYTE      DPX1
      00000081H   SFRSYM    DATA     BYTE      SP
LX51 LINKER/LOCATER V4.10a                                                            10/17/2007  16:48:09  PAGE 60


      000000D0H.2 SFRSYM    DATA     BIT       OV
      000000A1H   SFRSYM    DATA     BYTE      CBSL
      00000080H.5 SFRSYM    DATA     BIT       FSM_RESULT
      00000099H   SFRSYM    DATA     BYTE      SBUF
      00000087H   SFRSYM    DATA     BYTE      PCON
      00000088H.3 SFRSYM    DATA     BIT       MFLT
      00000098H   SFRSYM    DATA     BYTE      SCON
      00000089H   SFRSYM    DATA     BYTE      TMOD
      00000088H   SFRSYM    DATA     BYTE      TCON
      00000088H.1 SFRSYM    DATA     BIT       SINT
      000000E8H   SFRSYM    DATA     BYTE      EPSW
      000000F0H   SFRSYM    DATA     BYTE      B
      000000A2H   SFRSYM    DATA     BYTE      MPTR
      000000E0H   SFRSYM    DATA     BYTE      ACC
      00000088H.5 SFRSYM    DATA     BIT       TF0
      00000088H.7 SFRSYM    DATA     BIT       TF1
      0000008CH   SFRSYM    DATA     BYTE      TH0
      000000B2H   SFRSYM    DATA     BYTE      ISOCON
      0000008DH   SFRSYM    DATA     BYTE      TH1
      000000D8H   SFRSYM    DATA     BYTE      SPSW
      000000D0H   SFRSYM    DATA     BIT       P
      0000008AH   SFRSYM    DATA     BYTE      TL0
      0000008BH   SFRSYM    DATA     BYTE      TL1
      000000C0H   SFRSYM    DATA     BYTE      PROGIO
      000000D0H.3 SFRSYM    DATA     BIT       RS0
      00000088H.4 SFRSYM    DATA     BIT       TR0
      000000D0H.4 SFRSYM    DATA     BIT       RS1
      00000080H.1 SFRSYM    DATA     BIT       FSM_START
      00000088H.6 SFRSYM    DATA     BIT       TR1
      00000083H   SFRSYM    DATA     BYTE      DPH
      000000B4H   SFRSYM    DATA     BYTE      ISOTMR
      00000082H   SFRSYM    DATA     BYTE      DPL
      000000B0H   SFRSYM    DATA     BYTE      SECURITYSTATUS
      00000086H   SFRSYM    DATA     BYTE      DPS
      00000093H   SFRSYM    DATA     BYTE      DPX
      00000080H   SFRSYM    DATA     BYTE      NVFSMCON
      000000F7H   SFRSYM    DATA     BYTE      MFCON
      000000C9H   SFRSYM    DATA     BYTE      NvFsmMode
      000000D0H.5 SFRSYM    DATA     BIT       F0
      000000E8H.1 SFRSYM    DATA     BIT       F1
      000000D0H   SFRSYM    DATA     BYTE      PSW

      01001F29H   BLOCK     ECODE    ---       LVL=0
      01001F29H   LINE      ECODE    ---       #60
      01001F29H   LINE      ECODE    ---       #61
      01001F29H   LINE      ECODE    ---       #62
      01001F2EH   LINE      ECODE    ---       #67
      01001F2EH   LINE      ECODE    ---       #68
      01001F39H   LINE      ECODE    ---       #69
      01001F3FH   LINE      ECODE    ---       #71
      01001F42H   LINE      ECODE    ---       #73
      ---         BLOCKEND  ---      ---       LVL=0

      ---         MODULE    ---      ---       CONV_TWO_BYTES_TO_INT
      0100080EH   PUBLIC    ECODE    ---       _Conv_Two_Bytes_To_Int
      000000D0H.6 SFRSYM    DATA     BIT       AC
      00000080H   SFRSYM    DATA     BIT       FSM_FINISH
      00000083H   SFRSYM    DATA     BYTE      DPH0
      000000E8H   SFRSYM    DATA     BIT       AM
      000000A8H   SFRSYM    DATA     BYTE      IE
      00000085H   SFRSYM    DATA     BYTE      DPH1
      00000082H   SFRSYM    DATA     BYTE      DPL0
      00000084H   SFRSYM    DATA     BYTE      DPL1
      00000088H   SFRSYM    DATA     BIT       SSINT
      000000C0H   SFRSYM    DATA     BIT       PULLUP_RES_STATE
LX51 LINKER/LOCATER V4.10a                                                            10/17/2007  16:48:09  PAGE 61


      00000088H.1 SFRSYM    DATA     BIT       USINT
      000000B8H   SFRSYM    DATA     BYTE      IP
      00000098H   SFRSYM    DATA     BIT       RI
      000000D0H.7 SFRSYM    DATA     BIT       CY
      00000098H.1 SFRSYM    DATA     BIT       TI
      000000EAH   SFRSYM    DATA     BYTE      MPTRX
      00000093H   SFRSYM    DATA     BYTE      DPX0
      00000095H   SFRSYM    DATA     BYTE      DPX1
      00000081H   SFRSYM    DATA     BYTE      SP
      000000D0H.2 SFRSYM    DATA     BIT       OV
      000000A1H   SFRSYM    DATA     BYTE      CBSL
      00000080H.5 SFRSYM    DATA     BIT       FSM_RESULT
      00000099H   SFRSYM    DATA     BYTE      SBUF
      00000087H   SFRSYM    DATA     BYTE      PCON
      00000088H.3 SFRSYM    DATA     BIT       MFLT
      00000098H   SFRSYM    DATA     BYTE      SCON
      00000089H   SFRSYM    DATA     BYTE      TMOD
      00000088H   SFRSYM    DATA     BYTE      TCON
      00000088H.1 SFRSYM    DATA     BIT       SINT
      000000E8H   SFRSYM    DATA     BYTE      EPSW
      000000F0H   SFRSYM    DATA     BYTE      B
      000000A2H   SFRSYM    DATA     BYTE      MPTR
      000000E0H   SFRSYM    DATA     BYTE      ACC
      00000088H.5 SFRSYM    DATA     BIT       TF0
      00000088H.7 SFRSYM    DATA     BIT       TF1
      0000008CH   SFRSYM    DATA     BYTE      TH0
      000000B2H   SFRSYM    DATA     BYTE      ISOCON
      0000008DH   SFRSYM    DATA     BYTE      TH1
      000000D8H   SFRSYM    DATA     BYTE      SPSW
      000000D0H   SFRSYM    DATA     BIT       P
      0000008AH   SFRSYM    DATA     BYTE      TL0
      0000008BH   SFRSYM    DATA     BYTE      TL1
      000000C0H   SFRSYM    DATA     BYTE      PROGIO
      000000D0H.3 SFRSYM    DATA     BIT       RS0
      00000088H.4 SFRSYM    DATA     BIT       TR0
      000000D0H.4 SFRSYM    DATA     BIT       RS1
      00000080H.1 SFRSYM    DATA     BIT       FSM_START
      00000088H.6 SFRSYM    DATA     BIT       TR1
      00000083H   SFRSYM    DATA     BYTE      DPH
      000000B4H   SFRSYM    DATA     BYTE      ISOTMR
      00000082H   SFRSYM    DATA     BYTE      DPL
      000000B0H   SFRSYM    DATA     BYTE      SECURITYSTATUS
      00000086H   SFRSYM    DATA     BYTE      DPS
      00000093H   SFRSYM    DATA     BYTE      DPX
      00000080H   SFRSYM    DATA     BYTE      NVFSMCON
      000000F7H   SFRSYM    DATA     BYTE      MFCON
      000000C9H   SFRSYM    DATA     BYTE      NvFsmMode
      000000D0H.5 SFRSYM    DATA     BIT       F0
      000000E8H.1 SFRSYM    DATA     BIT       F1
      000000D0H   SFRSYM    DATA     BYTE      PSW

      0100080EH   BLOCK     ECODE    ---       LVL=0
      00000007H   SYMBOL    DATA     BYTE      ucHiByteAddr
      00000005H   SYMBOL    DATA     BYTE      ucLoByteAddr
      0100080EH   LINE      ECODE    ---       #48
      0100080EH   LINE      ECODE    ---       #49
      0100080EH   LINE      ECODE    ---       #50
      01000812H   LINE      ECODE    ---       #52
      ---         BLOCKEND  ---      ---       LVL=0

      ---         MODULE    ---      ---       WRITE_TO_IRAM
      01001F43H   PUBLIC    ECODE    ---       Write_To_IRAM
      000000D0H.6 SFRSYM    DATA     BIT       AC
      00000080H   SFRSYM    DATA     BIT       FSM_FINISH
      00000083H   SFRSYM    DATA     BYTE      DPH0
LX51 LINKER/LOCATER V4.10a                                                            10/17/2007  16:48:09  PAGE 62


      000000E8H   SFRSYM    DATA     BIT       AM
      000000A8H   SFRSYM    DATA     BYTE      IE
      00000085H   SFRSYM    DATA     BYTE      DPH1
      00000082H   SFRSYM    DATA     BYTE      DPL0
      00000084H   SFRSYM    DATA     BYTE      DPL1
      00000088H   SFRSYM    DATA     BIT       SSINT
      000000C0H   SFRSYM    DATA     BIT       PULLUP_RES_STATE
      00000088H.1 SFRSYM    DATA     BIT       USINT
      000000B8H   SFRSYM    DATA     BYTE      IP
      00000098H   SFRSYM    DATA     BIT       RI
      000000D0H.7 SFRSYM    DATA     BIT       CY
      00000098H.1 SFRSYM    DATA     BIT       TI
      000000EAH   SFRSYM    DATA     BYTE      MPTRX
      00000093H   SFRSYM    DATA     BYTE      DPX0
      00000095H   SFRSYM    DATA     BYTE      DPX1
      00000081H   SFRSYM    DATA     BYTE      SP
      000000D0H.2 SFRSYM    DATA     BIT       OV
      000000A1H   SFRSYM    DATA     BYTE      CBSL
      00000080H.5 SFRSYM    DATA     BIT       FSM_RESULT
      00000099H   SFRSYM    DATA     BYTE      SBUF
      00000087H   SFRSYM    DATA     BYTE      PCON
      00000088H.3 SFRSYM    DATA     BIT       MFLT
      00000098H   SFRSYM    DATA     BYTE      SCON
      00000089H   SFRSYM    DATA     BYTE      TMOD
      00000088H   SFRSYM    DATA     BYTE      TCON
      00000088H.1 SFRSYM    DATA     BIT       SINT
      000000E8H   SFRSYM    DATA     BYTE      EPSW
      000000F0H   SFRSYM    DATA     BYTE      B
      000000A2H   SFRSYM    DATA     BYTE      MPTR
      000000E0H   SFRSYM    DATA     BYTE      ACC
      00000088H.5 SFRSYM    DATA     BIT       TF0
      00000088H.7 SFRSYM    DATA     BIT       TF1
      0000008CH   SFRSYM    DATA     BYTE      TH0
      000000B2H   SFRSYM    DATA     BYTE      ISOCON
      0000008DH   SFRSYM    DATA     BYTE      TH1
      000000D8H   SFRSYM    DATA     BYTE      SPSW
      000000D0H   SFRSYM    DATA     BIT       P
      0000008AH   SFRSYM    DATA     BYTE      TL0
      0000008BH   SFRSYM    DATA     BYTE      TL1
      000000C0H   SFRSYM    DATA     BYTE      PROGIO
      000000D0H.3 SFRSYM    DATA     BIT       RS0
      00000088H.4 SFRSYM    DATA     BIT       TR0
      000000D0H.4 SFRSYM    DATA     BIT       RS1
      00000080H.1 SFRSYM    DATA     BIT       FSM_START
      00000088H.6 SFRSYM    DATA     BIT       TR1
      00000083H   SFRSYM    DATA     BYTE      DPH
      000000B4H   SFRSYM    DATA     BYTE      ISOTMR
      00000082H   SFRSYM    DATA     BYTE      DPL
      000000B0H   SFRSYM    DATA     BYTE      SECURITYSTATUS
      00000086H   SFRSYM    DATA     BYTE      DPS
      00000093H   SFRSYM    DATA     BYTE      DPX
      00000080H   SFRSYM    DATA     BYTE      NVFSMCON
      000000F7H   SFRSYM    DATA     BYTE      MFCON
      000000C9H   SFRSYM    DATA     BYTE      NvFsmMode
      000000D0H.5 SFRSYM    DATA     BIT       F0
      000000E8H.1 SFRSYM    DATA     BIT       F1
      000000D0H   SFRSYM    DATA     BYTE      PSW

      01001F43H   BLOCK     ECODE    ---       LVL=0
      01001F43H   LINE      ECODE    ---       #58
      01001F43H   LINE      ECODE    ---       #59
      01001F43H   LINE      ECODE    ---       #60
      01001F48H   LINE      ECODE    ---       #65
      01001F48H   LINE      ECODE    ---       #66
      01001F53H   LINE      ECODE    ---       #67
LX51 LINKER/LOCATER V4.10a                                                            10/17/2007  16:48:09  PAGE 63


      01001F59H   LINE      ECODE    ---       #69
      01001F5CH   LINE      ECODE    ---       #71
      ---         BLOCKEND  ---      ---       LVL=0

      ---         MODULE    ---      ---       WRITE_TO_XRAM_EXTENDED_ADDRESSING
      010018A3H   PUBLIC    ECODE    ---       Write_To_RAM_Extended_Addressing
      000000D0H.6 SFRSYM    DATA     BIT       AC
      00000080H   SFRSYM    DATA     BIT       FSM_FINISH
      00000083H   SFRSYM    DATA     BYTE      DPH0
      000000E8H   SFRSYM    DATA     BIT       AM
      000000A8H   SFRSYM    DATA     BYTE      IE
      00000085H   SFRSYM    DATA     BYTE      DPH1
      00000082H   SFRSYM    DATA     BYTE      DPL0
      00000084H   SFRSYM    DATA     BYTE      DPL1
      00000088H   SFRSYM    DATA     BIT       SSINT
      000000C0H   SFRSYM    DATA     BIT       PULLUP_RES_STATE
      00000088H.1 SFRSYM    DATA     BIT       USINT
      000000B8H   SFRSYM    DATA     BYTE      IP
      00000098H   SFRSYM    DATA     BIT       RI
      000000D0H.7 SFRSYM    DATA     BIT       CY
      00000098H.1 SFRSYM    DATA     BIT       TI
      000000EAH   SFRSYM    DATA     BYTE      MPTRX
      00000093H   SFRSYM    DATA     BYTE      DPX0
      00000095H   SFRSYM    DATA     BYTE      DPX1
      00000081H   SFRSYM    DATA     BYTE      SP
      000000D0H.2 SFRSYM    DATA     BIT       OV
      000000A1H   SFRSYM    DATA     BYTE      CBSL
      00000080H.5 SFRSYM    DATA     BIT       FSM_RESULT
      00000099H   SFRSYM    DATA     BYTE      SBUF
      00000087H   SFRSYM    DATA     BYTE      PCON
      00000088H.3 SFRSYM    DATA     BIT       MFLT
      00000098H   SFRSYM    DATA     BYTE      SCON
      00000089H   SFRSYM    DATA     BYTE      TMOD
      00000088H   SFRSYM    DATA     BYTE      TCON
      00000088H.1 SFRSYM    DATA     BIT       SINT
      000000E8H   SFRSYM    DATA     BYTE      EPSW
      000000F0H   SFRSYM    DATA     BYTE      B
      000000A2H   SFRSYM    DATA     BYTE      MPTR
      000000E0H   SFRSYM    DATA     BYTE      ACC
      00000088H.5 SFRSYM    DATA     BIT       TF0
      00000088H.7 SFRSYM    DATA     BIT       TF1
      0000008CH   SFRSYM    DATA     BYTE      TH0
      000000B2H   SFRSYM    DATA     BYTE      ISOCON
      0000008DH   SFRSYM    DATA     BYTE      TH1
      000000D8H   SFRSYM    DATA     BYTE      SPSW
      000000D0H   SFRSYM    DATA     BIT       P
      0000008AH   SFRSYM    DATA     BYTE      TL0
      0000008BH   SFRSYM    DATA     BYTE      TL1
      000000C0H   SFRSYM    DATA     BYTE      PROGIO
      000000D0H.3 SFRSYM    DATA     BIT       RS0
      00000088H.4 SFRSYM    DATA     BIT       TR0
      000000D0H.4 SFRSYM    DATA     BIT       RS1
      00000080H.1 SFRSYM    DATA     BIT       FSM_START
      00000088H.6 SFRSYM    DATA     BIT       TR1
      00000083H   SFRSYM    DATA     BYTE      DPH
      000000B4H   SFRSYM    DATA     BYTE      ISOTMR
      00000082H   SFRSYM    DATA     BYTE      DPL
      000000B0H   SFRSYM    DATA     BYTE      SECURITYSTATUS
      00000086H   SFRSYM    DATA     BYTE      DPS
      00000093H   SFRSYM    DATA     BYTE      DPX
      00000080H   SFRSYM    DATA     BYTE      NVFSMCON
      000000F7H   SFRSYM    DATA     BYTE      MFCON
      000000C9H   SFRSYM    DATA     BYTE      NvFsmMode
      000000D0H.5 SFRSYM    DATA     BIT       F0
      000000E8H.1 SFRSYM    DATA     BIT       F1
LX51 LINKER/LOCATER V4.10a                                                            10/17/2007  16:48:09  PAGE 64


      000000D0H   SFRSYM    DATA     BYTE      PSW

      010018A3H   BLOCK     ECODE    ---       LVL=0
      010018A3H   LINE      ECODE    ---       #62
      010018A3H   LINE      ECODE    ---       #63
      010018A3H   LINE      ECODE    ---       #73
      010018A6H   LINE      ECODE    ---       #74
      010018AEH   LINE      ECODE    ---       #75
      010018B8H   LINE      ECODE    ---       #76
      010018C2H   LINE      ECODE    ---       #77
      010018CCH   LINE      ECODE    ---       #82
      010018CCH   LINE      ECODE    ---       #86
      010018EBH   LINE      ECODE    ---       #88
      010018F1H   LINE      ECODE    ---       #90
      010018F4H   LINE      ECODE    ---       #92
      ---         BLOCKEND  ---      ---       LVL=0

      ---         MODULE    ---      ---       SOFTWARE_APIS_EXTENDED_ADDRESSING
      01000BCEH   PUBLIC    CODE     NEAR LAB  _FIRMWARE_WRITEEE
      01000BCEH   PUBLIC    CODE     NEAR LAB  _FIRMWARE_WRITEUCM
      01000BCEH   PUBLIC    CODE     NEAR LAB  FIRMWARE_WRITEEE
      01000BCEH   PUBLIC    CODE     NEAR LAB  FIRMWARE_WRITEUCM
      000000D0H.6 SFRSYM    DATA     BIT       AC
      000000E0H   SFRSYM    DATA     BYTE      ACC
      000000E8H   SFRSYM    DATA     BIT       AM
      000000F0H   SFRSYM    DATA     BYTE      B
      000000A1H   SFRSYM    DATA     BYTE      CBSL
      000000D0H.7 SFRSYM    DATA     BIT       CY
      00000083H   SFRSYM    DATA     BYTE      DPH
      00000083H   SFRSYM    DATA     BYTE      DPH0
      00000085H   SFRSYM    DATA     BYTE      DPH1
      00000082H   SFRSYM    DATA     BYTE      DPL
      00000082H   SFRSYM    DATA     BYTE      DPL0
      00000084H   SFRSYM    DATA     BYTE      DPL1
      00000086H   SFRSYM    DATA     BYTE      DPS
      00000093H   SFRSYM    DATA     BYTE      DPX
      00000093H   SFRSYM    DATA     BYTE      DPX0
      00000095H   SFRSYM    DATA     BYTE      DPX1
      000000E8H   SFRSYM    DATA     BYTE      EPSW
      000000D0H.5 SFRSYM    DATA     BIT       F0
      000000E8H.1 SFRSYM    DATA     BIT       F1
      00000080H   SFRSYM    DATA     BIT       FSM_FINISH
      00000080H.5 SFRSYM    DATA     BIT       FSM_RESULT
      00000080H.1 SFRSYM    DATA     BIT       FSM_START
      000000A8H   SFRSYM    DATA     BYTE      IE
      000000B8H   SFRSYM    DATA     BYTE      IP
      000000B2H   SFRSYM    DATA     BYTE      ISOCON
      000000B4H   SFRSYM    DATA     BYTE      ISOTMR
      000000F7H   SFRSYM    DATA     BYTE      MFCON
      00000088H.3 SFRSYM    DATA     BIT       MFLT
      000000A2H   SFRSYM    DATA     BYTE      MPTR
      000000EAH   SFRSYM    DATA     BYTE      MPTRX
      00000080H   SFRSYM    DATA     BYTE      NVFSMCON
      000000C9H   SFRSYM    DATA     BYTE      NVFSMMODE
      000000D0H.2 SFRSYM    DATA     BIT       OV
      000000D0H   SFRSYM    DATA     BIT       P
      00000087H   SFRSYM    DATA     BYTE      PCON
      000000C0H   SFRSYM    DATA     BYTE      PROGIO
      000000D0H   SFRSYM    DATA     BYTE      PSW
      000000C0H   SFRSYM    DATA     BIT       PULLUP_RES_STATE
      00000098H   SFRSYM    DATA     BIT       RI
      000000D0H.3 SFRSYM    DATA     BIT       RS0
      000000D0H.4 SFRSYM    DATA     BIT       RS1
      00000099H   SFRSYM    DATA     BYTE      SBUF
      00000098H   SFRSYM    DATA     BYTE      SCON
LX51 LINKER/LOCATER V4.10a                                                            10/17/2007  16:48:09  PAGE 65


      000000B0H   SFRSYM    DATA     BYTE      SECURITYSTATUS
      00000088H.1 SFRSYM    DATA     BIT       SINT
      00000081H   SFRSYM    DATA     BYTE      SP
      000000D8H   SFRSYM    DATA     BYTE      SPSW
      00000088H   SFRSYM    DATA     BIT       SSINT
      00000088H   SFRSYM    DATA     BYTE      TCON
      00000088H.5 SFRSYM    DATA     BIT       TF0
      00000088H.7 SFRSYM    DATA     BIT       TF1
      0000008CH   SFRSYM    DATA     BYTE      TH0
      0000008DH   SFRSYM    DATA     BYTE      TH1
      00000098H.1 SFRSYM    DATA     BIT       TI
      0000008AH   SFRSYM    DATA     BYTE      TL0
      0000008BH   SFRSYM    DATA     BYTE      TL1
      00000089H   SFRSYM    DATA     BYTE      TMOD
      00000088H.4 SFRSYM    DATA     BIT       TR0
      00000088H.6 SFRSYM    DATA     BIT       TR1
      00000088H.1 SFRSYM    DATA     BIT       USINT
      01000BD2H   SYMBOL    CODE     NEAR LAB  FIRMWARE_WRITENVM_LOOP
      01000BEAH   SYMBOL    CODE     NEAR LAB  FIRMWARE_WRITENVM_RETURN_FAIL
      01000BE7H   SYMBOL    CODE     NEAR LAB  FIRMWARE_WRITENVM_RETURN_SUCCESS

      01000BCEH   BLOCK     CODE     NEAR LAB  LVL=0
      01000BCEH   LINE      CODE     ---       #40
      01000BD0H   LINE      CODE     ---       #41
      01000BD2H   LINE      CODE     ---       #44
      01000BD3H   LINE      CODE     ---       #45
      01000BD4H   LINE      CODE     ---       #47
      01000BD8H   LINE      CODE     ---       #51
      01000BD9H   LINE      CODE     ---       #52
      01000BDBH   LINE      CODE     ---       #53
      01000BDDH   LINE      CODE     ---       #55
      01000BDEH   LINE      CODE     ---       #56
      01000BDFH   LINE      CODE     ---       #58
      01000BE1H   LINE      CODE     ---       #59
      01000BE3H   LINE      CODE     ---       #60
      01000BE5H   LINE      CODE     ---       #62
      01000BE7H   LINE      CODE     ---       #65
      01000BE9H   LINE      CODE     ---       #66
      01000BEAH   LINE      CODE     ---       #71
      01000BECH   LINE      CODE     ---       #72
      ---         BLOCKEND  ---      ---       LVL=0

      ---         MODULE    ---      ---       GET_CHIP_ID
      01001B8DH   PUBLIC    ECODE    ---       Get_Chip_ID
      000000D0H.6 SFRSYM    DATA     BIT       AC
      00000080H   SFRSYM    DATA     BIT       FSM_FINISH
      00000083H   SFRSYM    DATA     BYTE      DPH0
      000000E8H   SFRSYM    DATA     BIT       AM
      000000A8H   SFRSYM    DATA     BYTE      IE
      00000085H   SFRSYM    DATA     BYTE      DPH1
      00000082H   SFRSYM    DATA     BYTE      DPL0
      00000084H   SFRSYM    DATA     BYTE      DPL1
      00000088H   SFRSYM    DATA     BIT       SSINT
      000000C0H   SFRSYM    DATA     BIT       PULLUP_RES_STATE
      00000088H.1 SFRSYM    DATA     BIT       USINT
      000000B8H   SFRSYM    DATA     BYTE      IP
      00000098H   SFRSYM    DATA     BIT       RI
      000000D0H.7 SFRSYM    DATA     BIT       CY
      00000098H.1 SFRSYM    DATA     BIT       TI
      000000EAH   SFRSYM    DATA     BYTE      MPTRX
      00000093H   SFRSYM    DATA     BYTE      DPX0
      00000095H   SFRSYM    DATA     BYTE      DPX1
      00000081H   SFRSYM    DATA     BYTE      SP
      000000D0H.2 SFRSYM    DATA     BIT       OV
      000000A1H   SFRSYM    DATA     BYTE      CBSL
LX51 LINKER/LOCATER V4.10a                                                            10/17/2007  16:48:09  PAGE 66


      00000080H.5 SFRSYM    DATA     BIT       FSM_RESULT
      00000099H   SFRSYM    DATA     BYTE      SBUF
      00000087H   SFRSYM    DATA     BYTE      PCON
      00000088H.3 SFRSYM    DATA     BIT       MFLT
      00000098H   SFRSYM    DATA     BYTE      SCON
      00000089H   SFRSYM    DATA     BYTE      TMOD
      00000088H   SFRSYM    DATA     BYTE      TCON
      00000088H.1 SFRSYM    DATA     BIT       SINT
      000000E8H   SFRSYM    DATA     BYTE      EPSW
      000000F0H   SFRSYM    DATA     BYTE      B
      000000A2H   SFRSYM    DATA     BYTE      MPTR
      000000E0H   SFRSYM    DATA     BYTE      ACC
      00000088H.5 SFRSYM    DATA     BIT       TF0
      00000088H.7 SFRSYM    DATA     BIT       TF1
      0000008CH   SFRSYM    DATA     BYTE      TH0
      000000B2H   SFRSYM    DATA     BYTE      ISOCON
      0000008DH   SFRSYM    DATA     BYTE      TH1
      000000D8H   SFRSYM    DATA     BYTE      SPSW
      000000D0H   SFRSYM    DATA     BIT       P
      0000008AH   SFRSYM    DATA     BYTE      TL0
      0000008BH   SFRSYM    DATA     BYTE      TL1
      000000C0H   SFRSYM    DATA     BYTE      PROGIO
      000000D0H.3 SFRSYM    DATA     BIT       RS0
      00000088H.4 SFRSYM    DATA     BIT       TR0
      000000D0H.4 SFRSYM    DATA     BIT       RS1
      00000080H.1 SFRSYM    DATA     BIT       FSM_START
      00000088H.6 SFRSYM    DATA     BIT       TR1
      00000083H   SFRSYM    DATA     BYTE      DPH
      000000B4H   SFRSYM    DATA     BYTE      ISOTMR
      00000082H   SFRSYM    DATA     BYTE      DPL
      000000B0H   SFRSYM    DATA     BYTE      SECURITYSTATUS
      00000086H   SFRSYM    DATA     BYTE      DPS
      00000093H   SFRSYM    DATA     BYTE      DPX
      00000080H   SFRSYM    DATA     BYTE      NVFSMCON
      000000F7H   SFRSYM    DATA     BYTE      MFCON
      000000C9H   SFRSYM    DATA     BYTE      NvFsmMode
      000000D0H.5 SFRSYM    DATA     BIT       F0
      000000E8H.1 SFRSYM    DATA     BIT       F1
      000000D0H   SFRSYM    DATA     BYTE      PSW

      01001B8DH   BLOCK     ECODE    ---       LVL=0
      01001B8DH   LINE      ECODE    ---       #58
      01001B8DH   LINE      ECODE    ---       #59
      01001B8DH   LINE      ECODE    ---       #60
      01001B94H   LINE      ECODE    ---       #61
      01001B94H   LINE      ECODE    ---       #62
      01001BA0H   LINE      ECODE    ---       #63
      01001BA0H   LINE      ECODE    ---       #64
      01001BA6H   LINE      ECODE    ---       #65
      01001BABH   LINE      ECODE    ---       #67
      01001BB0H   LINE      ECODE    ---       #69
      01001BB7H   LINE      ECODE    ---       #71
      01001BBBH   LINE      ECODE    ---       #72
      01001BBDH   LINE      ECODE    ---       #75
      01001BBDH   LINE      ECODE    ---       #76
      01001BC4H   LINE      ECODE    ---       #77
      01001BC4H   LINE      ECODE    ---       #79
      01001BCBH   LINE      ECODE    ---       #81
      ---         BLOCKEND  ---      ---       LVL=0

      ---         MODULE    ---      ---       GET_CLOCK_SOURCE
      01001E2DH   PUBLIC    ECODE    ---       Get_Clock_Source
      000000D0H.6 SFRSYM    DATA     BIT       AC
      00000080H   SFRSYM    DATA     BIT       FSM_FINISH
      00000083H   SFRSYM    DATA     BYTE      DPH0
LX51 LINKER/LOCATER V4.10a                                                            10/17/2007  16:48:09  PAGE 67


      000000E8H   SFRSYM    DATA     BIT       AM
      000000A8H   SFRSYM    DATA     BYTE      IE
      00000085H   SFRSYM    DATA     BYTE      DPH1
      00000082H   SFRSYM    DATA     BYTE      DPL0
      00000084H   SFRSYM    DATA     BYTE      DPL1
      00000088H   SFRSYM    DATA     BIT       SSINT
      000000C0H   SFRSYM    DATA     BIT       PULLUP_RES_STATE
      00000088H.1 SFRSYM    DATA     BIT       USINT
      000000B8H   SFRSYM    DATA     BYTE      IP
      00000098H   SFRSYM    DATA     BIT       RI
      000000D0H.7 SFRSYM    DATA     BIT       CY
      00000098H.1 SFRSYM    DATA     BIT       TI
      000000EAH   SFRSYM    DATA     BYTE      MPTRX
      00000093H   SFRSYM    DATA     BYTE      DPX0
      00000095H   SFRSYM    DATA     BYTE      DPX1
      00000081H   SFRSYM    DATA     BYTE      SP
      000000D0H.2 SFRSYM    DATA     BIT       OV
      000000A1H   SFRSYM    DATA     BYTE      CBSL
      00000080H.5 SFRSYM    DATA     BIT       FSM_RESULT
      00000099H   SFRSYM    DATA     BYTE      SBUF
      00000087H   SFRSYM    DATA     BYTE      PCON
      00000088H.3 SFRSYM    DATA     BIT       MFLT
      00000098H   SFRSYM    DATA     BYTE      SCON
      00000089H   SFRSYM    DATA     BYTE      TMOD
      00000088H   SFRSYM    DATA     BYTE      TCON
      00000088H.1 SFRSYM    DATA     BIT       SINT
      000000E8H   SFRSYM    DATA     BYTE      EPSW
      000000F0H   SFRSYM    DATA     BYTE      B
      000000A2H   SFRSYM    DATA     BYTE      MPTR
      000000E0H   SFRSYM    DATA     BYTE      ACC
      00000088H.5 SFRSYM    DATA     BIT       TF0
      00000088H.7 SFRSYM    DATA     BIT       TF1
      0000008CH   SFRSYM    DATA     BYTE      TH0
      000000B2H   SFRSYM    DATA     BYTE      ISOCON
      0000008DH   SFRSYM    DATA     BYTE      TH1
      000000D8H   SFRSYM    DATA     BYTE      SPSW
      000000D0H   SFRSYM    DATA     BIT       P
      0000008AH   SFRSYM    DATA     BYTE      TL0
      0000008BH   SFRSYM    DATA     BYTE      TL1
      000000C0H   SFRSYM    DATA     BYTE      PROGIO
      000000D0H.3 SFRSYM    DATA     BIT       RS0
      00000088H.4 SFRSYM    DATA     BIT       TR0
      000000D0H.4 SFRSYM    DATA     BIT       RS1
      00000080H.1 SFRSYM    DATA     BIT       FSM_START
      00000088H.6 SFRSYM    DATA     BIT       TR1
      00000083H   SFRSYM    DATA     BYTE      DPH
      000000B4H   SFRSYM    DATA     BYTE      ISOTMR
      00000082H   SFRSYM    DATA     BYTE      DPL
      000000B0H   SFRSYM    DATA     BYTE      SECURITYSTATUS
      00000086H   SFRSYM    DATA     BYTE      DPS
      00000093H   SFRSYM    DATA     BYTE      DPX
      00000080H   SFRSYM    DATA     BYTE      NVFSMCON
      000000F7H   SFRSYM    DATA     BYTE      MFCON
      000000C9H   SFRSYM    DATA     BYTE      NvFsmMode
      000000D0H.5 SFRSYM    DATA     BIT       F0
      000000E8H.1 SFRSYM    DATA     BIT       F1
      000000D0H   SFRSYM    DATA     BYTE      PSW

      01001E2DH   BLOCK     ECODE    ---       LVL=0
      01001E2DH   LINE      ECODE    ---       #53
      01001E2DH   LINE      ECODE    ---       #54
      01001E2DH   LINE      ECODE    ---       #55
      01001E33H   LINE      ECODE    ---       #56
      01001E33H   LINE      ECODE    ---       #58
      01001E39H   LINE      ECODE    ---       #60
LX51 LINKER/LOCATER V4.10a                                                            10/17/2007  16:48:09  PAGE 68


      01001E3DH   LINE      ECODE    ---       #61
      01001E3FH   LINE      ECODE    ---       #63
      01001E3FH   LINE      ECODE    ---       #64
      01001E46H   LINE      ECODE    ---       #65
      01001E46H   LINE      ECODE    ---       #67
      01001E4DH   LINE      ECODE    ---       #69
      ---         BLOCKEND  ---      ---       LVL=0

      ---         MODULE    ---      ---       GET_DIAGNOSTIC_DATA
      01001BCCH   PUBLIC    ECODE    ---       Get_Diagnostic_Data
      000000D0H.6 SFRSYM    DATA     BIT       AC
      00000080H   SFRSYM    DATA     BIT       FSM_FINISH
      00000083H   SFRSYM    DATA     BYTE      DPH0
      000000E8H   SFRSYM    DATA     BIT       AM
      000000A8H   SFRSYM    DATA     BYTE      IE
      00000085H   SFRSYM    DATA     BYTE      DPH1
      00000082H   SFRSYM    DATA     BYTE      DPL0
      00000084H   SFRSYM    DATA     BYTE      DPL1
      00000088H   SFRSYM    DATA     BIT       SSINT
      000000C0H   SFRSYM    DATA     BIT       PULLUP_RES_STATE
      00000088H.1 SFRSYM    DATA     BIT       USINT
      000000B8H   SFRSYM    DATA     BYTE      IP
      00000098H   SFRSYM    DATA     BIT       RI
      000000D0H.7 SFRSYM    DATA     BIT       CY
      00000098H.1 SFRSYM    DATA     BIT       TI
      000000EAH   SFRSYM    DATA     BYTE      MPTRX
      00000093H   SFRSYM    DATA     BYTE      DPX0
      00000095H   SFRSYM    DATA     BYTE      DPX1
      00000081H   SFRSYM    DATA     BYTE      SP
      000000D0H.2 SFRSYM    DATA     BIT       OV
      000000A1H   SFRSYM    DATA     BYTE      CBSL
      00000080H.5 SFRSYM    DATA     BIT       FSM_RESULT
      00000099H   SFRSYM    DATA     BYTE      SBUF
      00000087H   SFRSYM    DATA     BYTE      PCON
      00000088H.3 SFRSYM    DATA     BIT       MFLT
      00000098H   SFRSYM    DATA     BYTE      SCON
      00000089H   SFRSYM    DATA     BYTE      TMOD
      00000088H   SFRSYM    DATA     BYTE      TCON
      00000088H.1 SFRSYM    DATA     BIT       SINT
      000000E8H   SFRSYM    DATA     BYTE      EPSW
      000000F0H   SFRSYM    DATA     BYTE      B
      000000A2H   SFRSYM    DATA     BYTE      MPTR
      000000E0H   SFRSYM    DATA     BYTE      ACC
      00000088H.5 SFRSYM    DATA     BIT       TF0
      00000088H.7 SFRSYM    DATA     BIT       TF1
      0000008CH   SFRSYM    DATA     BYTE      TH0
      000000B2H   SFRSYM    DATA     BYTE      ISOCON
      0000008DH   SFRSYM    DATA     BYTE      TH1
      000000D8H   SFRSYM    DATA     BYTE      SPSW
      000000D0H   SFRSYM    DATA     BIT       P
      0000008AH   SFRSYM    DATA     BYTE      TL0
      0000008BH   SFRSYM    DATA     BYTE      TL1
      000000C0H   SFRSYM    DATA     BYTE      PROGIO
      000000D0H.3 SFRSYM    DATA     BIT       RS0
      00000088H.4 SFRSYM    DATA     BIT       TR0
      000000D0H.4 SFRSYM    DATA     BIT       RS1
      00000080H.1 SFRSYM    DATA     BIT       FSM_START
      00000088H.6 SFRSYM    DATA     BIT       TR1
      00000083H   SFRSYM    DATA     BYTE      DPH
      000000B4H   SFRSYM    DATA     BYTE      ISOTMR
      00000082H   SFRSYM    DATA     BYTE      DPL
      000000B0H   SFRSYM    DATA     BYTE      SECURITYSTATUS
      00000086H   SFRSYM    DATA     BYTE      DPS
      00000093H   SFRSYM    DATA     BYTE      DPX
      00000080H   SFRSYM    DATA     BYTE      NVFSMCON
LX51 LINKER/LOCATER V4.10a                                                            10/17/2007  16:48:09  PAGE 69


      000000F7H   SFRSYM    DATA     BYTE      MFCON
      000000C9H   SFRSYM    DATA     BYTE      NvFsmMode
      000000D0H.5 SFRSYM    DATA     BIT       F0
      000000E8H.1 SFRSYM    DATA     BIT       F1
      000000D0H   SFRSYM    DATA     BYTE      PSW

      01001BCCH   BLOCK     ECODE    ---       LVL=0
      01001BCCH   LINE      ECODE    ---       #59
      01001BCCH   LINE      ECODE    ---       #60
      01001BCCH   LINE      ECODE    ---       #61
      01001BD3H   LINE      ECODE    ---       #62
      01001BD3H   LINE      ECODE    ---       #63
      01001BDFH   LINE      ECODE    ---       #64
      01001BDFH   LINE      ECODE    ---       #65
      01001BE5H   LINE      ECODE    ---       #66
      01001BEAH   LINE      ECODE    ---       #68
      01001BEFH   LINE      ECODE    ---       #70
      01001BF6H   LINE      ECODE    ---       #72
      01001BFAH   LINE      ECODE    ---       #73
      01001BFCH   LINE      ECODE    ---       #75
      01001BFCH   LINE      ECODE    ---       #76
      01001C03H   LINE      ECODE    ---       #77
      01001C03H   LINE      ECODE    ---       #79
      01001C0AH   LINE      ECODE    ---       #81
      ---         BLOCKEND  ---      ---       LVL=0

      ---         MODULE    ---      ---       SET_SECURITY_MASK
      01001D30H   PUBLIC    ECODE    ---       Set_Security_Mask
      000000D0H.6 SFRSYM    DATA     BIT       AC
      00000080H   SFRSYM    DATA     BIT       FSM_FINISH
      00000083H   SFRSYM    DATA     BYTE      DPH0
      000000E8H   SFRSYM    DATA     BIT       AM
      000000A8H   SFRSYM    DATA     BYTE      IE
      00000085H   SFRSYM    DATA     BYTE      DPH1
      00000082H   SFRSYM    DATA     BYTE      DPL0
      00000084H   SFRSYM    DATA     BYTE      DPL1
      00000088H   SFRSYM    DATA     BIT       SSINT
      000000C0H   SFRSYM    DATA     BIT       PULLUP_RES_STATE
      00000088H.1 SFRSYM    DATA     BIT       USINT
      000000B8H   SFRSYM    DATA     BYTE      IP
      00000098H   SFRSYM    DATA     BIT       RI
      000000D0H.7 SFRSYM    DATA     BIT       CY
      00000098H.1 SFRSYM    DATA     BIT       TI
      000000EAH   SFRSYM    DATA     BYTE      MPTRX
      00000093H   SFRSYM    DATA     BYTE      DPX0
      00000095H   SFRSYM    DATA     BYTE      DPX1
      00000081H   SFRSYM    DATA     BYTE      SP
      000000D0H.2 SFRSYM    DATA     BIT       OV
      000000A1H   SFRSYM    DATA     BYTE      CBSL
      00000080H.5 SFRSYM    DATA     BIT       FSM_RESULT
      00000099H   SFRSYM    DATA     BYTE      SBUF
      00000087H   SFRSYM    DATA     BYTE      PCON
      00000088H.3 SFRSYM    DATA     BIT       MFLT
      00000098H   SFRSYM    DATA     BYTE      SCON
      00000089H   SFRSYM    DATA     BYTE      TMOD
      00000088H   SFRSYM    DATA     BYTE      TCON
      00000088H.1 SFRSYM    DATA     BIT       SINT
      000000E8H   SFRSYM    DATA     BYTE      EPSW
      000000F0H   SFRSYM    DATA     BYTE      B
      000000A2H   SFRSYM    DATA     BYTE      MPTR
      000000E0H   SFRSYM    DATA     BYTE      ACC
      00000088H.5 SFRSYM    DATA     BIT       TF0
      00000088H.7 SFRSYM    DATA     BIT       TF1
      0000008CH   SFRSYM    DATA     BYTE      TH0
      000000B2H   SFRSYM    DATA     BYTE      ISOCON
LX51 LINKER/LOCATER V4.10a                                                            10/17/2007  16:48:09  PAGE 70


      0000008DH   SFRSYM    DATA     BYTE      TH1
      000000D8H   SFRSYM    DATA     BYTE      SPSW
      000000D0H   SFRSYM    DATA     BIT       P
      0000008AH   SFRSYM    DATA     BYTE      TL0
      0000008BH   SFRSYM    DATA     BYTE      TL1
      000000C0H   SFRSYM    DATA     BYTE      PROGIO
      000000D0H.3 SFRSYM    DATA     BIT       RS0
      00000088H.4 SFRSYM    DATA     BIT       TR0
      000000D0H.4 SFRSYM    DATA     BIT       RS1
      00000080H.1 SFRSYM    DATA     BIT       FSM_START
      00000088H.6 SFRSYM    DATA     BIT       TR1
      00000083H   SFRSYM    DATA     BYTE      DPH
      000000B4H   SFRSYM    DATA     BYTE      ISOTMR
      00000082H   SFRSYM    DATA     BYTE      DPL
      000000B0H   SFRSYM    DATA     BYTE      SECURITYSTATUS
      00000086H   SFRSYM    DATA     BYTE      DPS
      00000093H   SFRSYM    DATA     BYTE      DPX
      00000080H   SFRSYM    DATA     BYTE      NVFSMCON
      000000F7H   SFRSYM    DATA     BYTE      MFCON
      000000C9H   SFRSYM    DATA     BYTE      NvFsmMode
      000000D0H.5 SFRSYM    DATA     BIT       F0
      000000E8H.1 SFRSYM    DATA     BIT       F1
      000000D0H   SFRSYM    DATA     BYTE      PSW

      01001D30H   BLOCK     ECODE    ---       LVL=0
      01001D30H   LINE      ECODE    ---       #59
      01001D30H   LINE      ECODE    ---       #60
      01001D30H   LINE      ECODE    ---       #62
      01001D3EH   LINE      ECODE    ---       #65
      01001D43H   LINE      ECODE    ---       #66
      01001D43H   LINE      ECODE    ---       #67
      01001D48H   LINE      ECODE    ---       #68
      01001D4AH   LINE      ECODE    ---       #70
      01001D4AH   LINE      ECODE    ---       #71
      01001D4FH   LINE      ECODE    ---       #72
      01001D4FH   LINE      ECODE    ---       #74
      01001D56H   LINE      ECODE    ---       #76
      ---         BLOCKEND  ---      ---       LVL=0

      ---         MODULE    ---      ---       GET_CLOCK_CONTROL
      01001E4EH   PUBLIC    ECODE    ---       Get_Clock_Control
      000000D0H.6 SFRSYM    DATA     BIT       AC
      00000080H   SFRSYM    DATA     BIT       FSM_FINISH
      00000083H   SFRSYM    DATA     BYTE      DPH0
      000000E8H   SFRSYM    DATA     BIT       AM
      000000A8H   SFRSYM    DATA     BYTE      IE
      00000085H   SFRSYM    DATA     BYTE      DPH1
      00000082H   SFRSYM    DATA     BYTE      DPL0
      00000084H   SFRSYM    DATA     BYTE      DPL1
      00000088H   SFRSYM    DATA     BIT       SSINT
      000000C0H   SFRSYM    DATA     BIT       PULLUP_RES_STATE
      00000088H.1 SFRSYM    DATA     BIT       USINT
      000000B8H   SFRSYM    DATA     BYTE      IP
      00000098H   SFRSYM    DATA     BIT       RI
      000000D0H.7 SFRSYM    DATA     BIT       CY
      00000098H.1 SFRSYM    DATA     BIT       TI
      000000EAH   SFRSYM    DATA     BYTE      MPTRX
      00000093H   SFRSYM    DATA     BYTE      DPX0
      00000095H   SFRSYM    DATA     BYTE      DPX1
      00000081H   SFRSYM    DATA     BYTE      SP
      000000D0H.2 SFRSYM    DATA     BIT       OV
      000000A1H   SFRSYM    DATA     BYTE      CBSL
      00000080H.5 SFRSYM    DATA     BIT       FSM_RESULT
      00000099H   SFRSYM    DATA     BYTE      SBUF
      00000087H   SFRSYM    DATA     BYTE      PCON
LX51 LINKER/LOCATER V4.10a                                                            10/17/2007  16:48:09  PAGE 71


      00000088H.3 SFRSYM    DATA     BIT       MFLT
      00000098H   SFRSYM    DATA     BYTE      SCON
      00000089H   SFRSYM    DATA     BYTE      TMOD
      00000088H   SFRSYM    DATA     BYTE      TCON
      00000088H.1 SFRSYM    DATA     BIT       SINT
      000000E8H   SFRSYM    DATA     BYTE      EPSW
      000000F0H   SFRSYM    DATA     BYTE      B
      000000A2H   SFRSYM    DATA     BYTE      MPTR
      000000E0H   SFRSYM    DATA     BYTE      ACC
      00000088H.5 SFRSYM    DATA     BIT       TF0
      00000088H.7 SFRSYM    DATA     BIT       TF1
      0000008CH   SFRSYM    DATA     BYTE      TH0
      000000B2H   SFRSYM    DATA     BYTE      ISOCON
      0000008DH   SFRSYM    DATA     BYTE      TH1
      000000D8H   SFRSYM    DATA     BYTE      SPSW
      000000D0H   SFRSYM    DATA     BIT       P
      0000008AH   SFRSYM    DATA     BYTE      TL0
      0000008BH   SFRSYM    DATA     BYTE      TL1
      000000C0H   SFRSYM    DATA     BYTE      PROGIO
      000000D0H.3 SFRSYM    DATA     BIT       RS0
      00000088H.4 SFRSYM    DATA     BIT       TR0
      000000D0H.4 SFRSYM    DATA     BIT       RS1
      00000080H.1 SFRSYM    DATA     BIT       FSM_START
      00000088H.6 SFRSYM    DATA     BIT       TR1
      00000083H   SFRSYM    DATA     BYTE      DPH
      000000B4H   SFRSYM    DATA     BYTE      ISOTMR
      00000082H   SFRSYM    DATA     BYTE      DPL
      000000B0H   SFRSYM    DATA     BYTE      SECURITYSTATUS
      00000086H   SFRSYM    DATA     BYTE      DPS
      00000093H   SFRSYM    DATA     BYTE      DPX
      00000080H   SFRSYM    DATA     BYTE      NVFSMCON
      000000F7H   SFRSYM    DATA     BYTE      MFCON
      000000C9H   SFRSYM    DATA     BYTE      NvFsmMode
      000000D0H.5 SFRSYM    DATA     BIT       F0
      000000E8H.1 SFRSYM    DATA     BIT       F1
      000000D0H   SFRSYM    DATA     BYTE      PSW

      01001E4EH   BLOCK     ECODE    ---       LVL=0
      01001E4EH   LINE      ECODE    ---       #53
      01001E4EH   LINE      ECODE    ---       #54
      01001E4EH   LINE      ECODE    ---       #55
      01001E54H   LINE      ECODE    ---       #56
      01001E54H   LINE      ECODE    ---       #58
      01001E5AH   LINE      ECODE    ---       #60
      01001E5EH   LINE      ECODE    ---       #61
      01001E60H   LINE      ECODE    ---       #63
      01001E60H   LINE      ECODE    ---       #64
      01001E67H   LINE      ECODE    ---       #65
      01001E67H   LINE      ECODE    ---       #67
      01001E6EH   LINE      ECODE    ---       #69
      ---         BLOCKEND  ---      ---       LVL=0

      ---         MODULE    ---      ---       SET_SECURITY_ACTION
      01001D57H   PUBLIC    ECODE    ---       Set_Security_Action
      000000D0H.6 SFRSYM    DATA     BIT       AC
      00000080H   SFRSYM    DATA     BIT       FSM_FINISH
      00000083H   SFRSYM    DATA     BYTE      DPH0
      000000E8H   SFRSYM    DATA     BIT       AM
      000000A8H   SFRSYM    DATA     BYTE      IE
      00000085H   SFRSYM    DATA     BYTE      DPH1
      00000082H   SFRSYM    DATA     BYTE      DPL0
      00000084H   SFRSYM    DATA     BYTE      DPL1
      00000088H   SFRSYM    DATA     BIT       SSINT
      000000C0H   SFRSYM    DATA     BIT       PULLUP_RES_STATE
      00000088H.1 SFRSYM    DATA     BIT       USINT
LX51 LINKER/LOCATER V4.10a                                                            10/17/2007  16:48:09  PAGE 72


      000000B8H   SFRSYM    DATA     BYTE      IP
      00000098H   SFRSYM    DATA     BIT       RI
      000000D0H.7 SFRSYM    DATA     BIT       CY
      00000098H.1 SFRSYM    DATA     BIT       TI
      000000EAH   SFRSYM    DATA     BYTE      MPTRX
      00000093H   SFRSYM    DATA     BYTE      DPX0
      00000095H   SFRSYM    DATA     BYTE      DPX1
      00000081H   SFRSYM    DATA     BYTE      SP
      000000D0H.2 SFRSYM    DATA     BIT       OV
      000000A1H   SFRSYM    DATA     BYTE      CBSL
      00000080H.5 SFRSYM    DATA     BIT       FSM_RESULT
      00000099H   SFRSYM    DATA     BYTE      SBUF
      00000087H   SFRSYM    DATA     BYTE      PCON
      00000088H.3 SFRSYM    DATA     BIT       MFLT
      00000098H   SFRSYM    DATA     BYTE      SCON
      00000089H   SFRSYM    DATA     BYTE      TMOD
      00000088H   SFRSYM    DATA     BYTE      TCON
      00000088H.1 SFRSYM    DATA     BIT       SINT
      000000E8H   SFRSYM    DATA     BYTE      EPSW
      000000F0H   SFRSYM    DATA     BYTE      B
      000000A2H   SFRSYM    DATA     BYTE      MPTR
      000000E0H   SFRSYM    DATA     BYTE      ACC
      00000088H.5 SFRSYM    DATA     BIT       TF0
      00000088H.7 SFRSYM    DATA     BIT       TF1
      0000008CH   SFRSYM    DATA     BYTE      TH0
      000000B2H   SFRSYM    DATA     BYTE      ISOCON
      0000008DH   SFRSYM    DATA     BYTE      TH1
      000000D8H   SFRSYM    DATA     BYTE      SPSW
      000000D0H   SFRSYM    DATA     BIT       P
      0000008AH   SFRSYM    DATA     BYTE      TL0
      0000008BH   SFRSYM    DATA     BYTE      TL1
      000000C0H   SFRSYM    DATA     BYTE      PROGIO
      000000D0H.3 SFRSYM    DATA     BIT       RS0
      00000088H.4 SFRSYM    DATA     BIT       TR0
      000000D0H.4 SFRSYM    DATA     BIT       RS1
      00000080H.1 SFRSYM    DATA     BIT       FSM_START
      00000088H.6 SFRSYM    DATA     BIT       TR1
      00000083H   SFRSYM    DATA     BYTE      DPH
      000000B4H   SFRSYM    DATA     BYTE      ISOTMR
      00000082H   SFRSYM    DATA     BYTE      DPL
      000000B0H   SFRSYM    DATA     BYTE      SECURITYSTATUS
      00000086H   SFRSYM    DATA     BYTE      DPS
      00000093H   SFRSYM    DATA     BYTE      DPX
      00000080H   SFRSYM    DATA     BYTE      NVFSMCON
      000000F7H   SFRSYM    DATA     BYTE      MFCON
      000000C9H   SFRSYM    DATA     BYTE      NvFsmMode
      000000D0H.5 SFRSYM    DATA     BIT       F0
      000000E8H.1 SFRSYM    DATA     BIT       F1
      000000D0H   SFRSYM    DATA     BYTE      PSW

      01001D57H   BLOCK     ECODE    ---       LVL=0
      01001D57H   LINE      ECODE    ---       #59
      01001D57H   LINE      ECODE    ---       #60
      01001D57H   LINE      ECODE    ---       #62
      01001D65H   LINE      ECODE    ---       #65
      01001D6AH   LINE      ECODE    ---       #66
      01001D6AH   LINE      ECODE    ---       #67
      01001D6FH   LINE      ECODE    ---       #68
      01001D71H   LINE      ECODE    ---       #70
      01001D71H   LINE      ECODE    ---       #71
      01001D76H   LINE      ECODE    ---       #72
      01001D76H   LINE      ECODE    ---       #74
      01001D7DH   LINE      ECODE    ---       #76
      ---         BLOCKEND  ---      ---       LVL=0

LX51 LINKER/LOCATER V4.10a                                                            10/17/2007  16:48:09  PAGE 73


      ---         MODULE    ---      ---       GET_FIRMWARE_VERSION
      01001E6FH   PUBLIC    ECODE    ---       Get_Firmware_Version
      000000D0H.6 SFRSYM    DATA     BIT       AC
      00000080H   SFRSYM    DATA     BIT       FSM_FINISH
      00000083H   SFRSYM    DATA     BYTE      DPH0
      000000E8H   SFRSYM    DATA     BIT       AM
      000000A8H   SFRSYM    DATA     BYTE      IE
      00000085H   SFRSYM    DATA     BYTE      DPH1
      00000082H   SFRSYM    DATA     BYTE      DPL0
      00000084H   SFRSYM    DATA     BYTE      DPL1
      00000088H   SFRSYM    DATA     BIT       SSINT
      000000C0H   SFRSYM    DATA     BIT       PULLUP_RES_STATE
      00000088H.1 SFRSYM    DATA     BIT       USINT
      000000B8H   SFRSYM    DATA     BYTE      IP
      00000098H   SFRSYM    DATA     BIT       RI
      000000D0H.7 SFRSYM    DATA     BIT       CY
      00000098H.1 SFRSYM    DATA     BIT       TI
      000000EAH   SFRSYM    DATA     BYTE      MPTRX
      00000093H   SFRSYM    DATA     BYTE      DPX0
      00000095H   SFRSYM    DATA     BYTE      DPX1
      00000081H   SFRSYM    DATA     BYTE      SP
      000000D0H.2 SFRSYM    DATA     BIT       OV
      000000A1H   SFRSYM    DATA     BYTE      CBSL
      00000080H.5 SFRSYM    DATA     BIT       FSM_RESULT
      00000099H   SFRSYM    DATA     BYTE      SBUF
      00000087H   SFRSYM    DATA     BYTE      PCON
      00000088H.3 SFRSYM    DATA     BIT       MFLT
      00000098H   SFRSYM    DATA     BYTE      SCON
      00000089H   SFRSYM    DATA     BYTE      TMOD
      00000088H   SFRSYM    DATA     BYTE      TCON
      00000088H.1 SFRSYM    DATA     BIT       SINT
      000000E8H   SFRSYM    DATA     BYTE      EPSW
      000000F0H   SFRSYM    DATA     BYTE      B
      000000A2H   SFRSYM    DATA     BYTE      MPTR
      000000E0H   SFRSYM    DATA     BYTE      ACC
      00000088H.5 SFRSYM    DATA     BIT       TF0
      00000088H.7 SFRSYM    DATA     BIT       TF1
      0000008CH   SFRSYM    DATA     BYTE      TH0
      000000B2H   SFRSYM    DATA     BYTE      ISOCON
      0000008DH   SFRSYM    DATA     BYTE      TH1
      000000D8H   SFRSYM    DATA     BYTE      SPSW
      000000D0H   SFRSYM    DATA     BIT       P
      0000008AH   SFRSYM    DATA     BYTE      TL0
      0000008BH   SFRSYM    DATA     BYTE      TL1
      000000C0H   SFRSYM    DATA     BYTE      PROGIO
      000000D0H.3 SFRSYM    DATA     BIT       RS0
      00000088H.4 SFRSYM    DATA     BIT       TR0
      000000D0H.4 SFRSYM    DATA     BIT       RS1
      00000080H.1 SFRSYM    DATA     BIT       FSM_START
      00000088H.6 SFRSYM    DATA     BIT       TR1
      00000083H   SFRSYM    DATA     BYTE      DPH
      000000B4H   SFRSYM    DATA     BYTE      ISOTMR
      00000082H   SFRSYM    DATA     BYTE      DPL
      000000B0H   SFRSYM    DATA     BYTE      SECURITYSTATUS
      00000086H   SFRSYM    DATA     BYTE      DPS
      00000093H   SFRSYM    DATA     BYTE      DPX
      00000080H   SFRSYM    DATA     BYTE      NVFSMCON
      000000F7H   SFRSYM    DATA     BYTE      MFCON
      000000C9H   SFRSYM    DATA     BYTE      NvFsmMode
      000000D0H.5 SFRSYM    DATA     BIT       F0
      000000E8H.1 SFRSYM    DATA     BIT       F1
      000000D0H   SFRSYM    DATA     BYTE      PSW

      01001E6FH   BLOCK     ECODE    ---       LVL=0
      01001E6FH   LINE      ECODE    ---       #58
LX51 LINKER/LOCATER V4.10a                                                            10/17/2007  16:48:09  PAGE 74


      01001E6FH   LINE      ECODE    ---       #59
      01001E6FH   LINE      ECODE    ---       #60
      01001E75H   LINE      ECODE    ---       #61
      01001E75H   LINE      ECODE    ---       #63
      01001E7BH   LINE      ECODE    ---       #65
      01001E7FH   LINE      ECODE    ---       #66
      01001E81H   LINE      ECODE    ---       #69
      01001E81H   LINE      ECODE    ---       #70
      01001E88H   LINE      ECODE    ---       #71
      01001E88H   LINE      ECODE    ---       #73
      01001E8FH   LINE      ECODE    ---       #75
      ---         BLOCKEND  ---      ---       LVL=0

      ---         MODULE    ---      ---       LOAD_DPX
      01002061H   PUBLIC    ECODE    ---       Load_DPX
      000000D0H.6 SFRSYM    DATA     BIT       AC
      00000080H   SFRSYM    DATA     BIT       FSM_FINISH
      00000083H   SFRSYM    DATA     BYTE      DPH0
      000000E8H   SFRSYM    DATA     BIT       AM
      000000A8H   SFRSYM    DATA     BYTE      IE
      00000085H   SFRSYM    DATA     BYTE      DPH1
      00000082H   SFRSYM    DATA     BYTE      DPL0
      00000084H   SFRSYM    DATA     BYTE      DPL1
      00000088H   SFRSYM    DATA     BIT       SSINT
      000000C0H   SFRSYM    DATA     BIT       PULLUP_RES_STATE
      00000088H.1 SFRSYM    DATA     BIT       USINT
      000000B8H   SFRSYM    DATA     BYTE      IP
      00000098H   SFRSYM    DATA     BIT       RI
      000000D0H.7 SFRSYM    DATA     BIT       CY
      00000098H.1 SFRSYM    DATA     BIT       TI
      000000EAH   SFRSYM    DATA     BYTE      MPTRX
      00000093H   SFRSYM    DATA     BYTE      DPX0
      00000095H   SFRSYM    DATA     BYTE      DPX1
      00000081H   SFRSYM    DATA     BYTE      SP
      000000D0H.2 SFRSYM    DATA     BIT       OV
      000000A1H   SFRSYM    DATA     BYTE      CBSL
      00000080H.5 SFRSYM    DATA     BIT       FSM_RESULT
      00000099H   SFRSYM    DATA     BYTE      SBUF
      00000087H   SFRSYM    DATA     BYTE      PCON
      00000088H.3 SFRSYM    DATA     BIT       MFLT
      00000098H   SFRSYM    DATA     BYTE      SCON
      00000089H   SFRSYM    DATA     BYTE      TMOD
      00000088H   SFRSYM    DATA     BYTE      TCON
      00000088H.1 SFRSYM    DATA     BIT       SINT
      000000E8H   SFRSYM    DATA     BYTE      EPSW
      000000F0H   SFRSYM    DATA     BYTE      B
      000000A2H   SFRSYM    DATA     BYTE      MPTR
      000000E0H   SFRSYM    DATA     BYTE      ACC
      00000088H.5 SFRSYM    DATA     BIT       TF0
      00000088H.7 SFRSYM    DATA     BIT       TF1
      0000008CH   SFRSYM    DATA     BYTE      TH0
      000000B2H   SFRSYM    DATA     BYTE      ISOCON
      0000008DH   SFRSYM    DATA     BYTE      TH1
      000000D8H   SFRSYM    DATA     BYTE      SPSW
      000000D0H   SFRSYM    DATA     BIT       P
      0000008AH   SFRSYM    DATA     BYTE      TL0
      0000008BH   SFRSYM    DATA     BYTE      TL1
      000000C0H   SFRSYM    DATA     BYTE      PROGIO
      000000D0H.3 SFRSYM    DATA     BIT       RS0
      00000088H.4 SFRSYM    DATA     BIT       TR0
      000000D0H.4 SFRSYM    DATA     BIT       RS1
      00000080H.1 SFRSYM    DATA     BIT       FSM_START
      00000088H.6 SFRSYM    DATA     BIT       TR1
      00000083H   SFRSYM    DATA     BYTE      DPH
      000000B4H   SFRSYM    DATA     BYTE      ISOTMR
LX51 LINKER/LOCATER V4.10a                                                            10/17/2007  16:48:09  PAGE 75


      00000082H   SFRSYM    DATA     BYTE      DPL
      000000B0H   SFRSYM    DATA     BYTE      SECURITYSTATUS
      00000086H   SFRSYM    DATA     BYTE      DPS
      00000093H   SFRSYM    DATA     BYTE      DPX
      00000080H   SFRSYM    DATA     BYTE      NVFSMCON
      000000F7H   SFRSYM    DATA     BYTE      MFCON
      000000C9H   SFRSYM    DATA     BYTE      NvFsmMode
      000000D0H.5 SFRSYM    DATA     BIT       F0
      000000E8H.1 SFRSYM    DATA     BIT       F1
      000000D0H   SFRSYM    DATA     BYTE      PSW

      01002061H   BLOCK     ECODE    ---       LVL=0
      01002061H   LINE      ECODE    ---       #56
      01002061H   LINE      ECODE    ---       #57
      01002061H   LINE      ECODE    ---       #59
      01002067H   LINE      ECODE    ---       #61
      0100206BH   LINE      ECODE    ---       #63
      ---         BLOCKEND  ---      ---       LVL=0

      ---         MODULE    ---      ---       SET_CLOCK
      01001997H   PUBLIC    ECODE    ---       Set_Clock
      000000D0H.6 SFRSYM    DATA     BIT       AC
      00000080H   SFRSYM    DATA     BIT       FSM_FINISH
      00000083H   SFRSYM    DATA     BYTE      DPH0
      000000E8H   SFRSYM    DATA     BIT       AM
      000000A8H   SFRSYM    DATA     BYTE      IE
      00000085H   SFRSYM    DATA     BYTE      DPH1
      00000082H   SFRSYM    DATA     BYTE      DPL0
      00000084H   SFRSYM    DATA     BYTE      DPL1
      00000088H   SFRSYM    DATA     BIT       SSINT
      000000C0H   SFRSYM    DATA     BIT       PULLUP_RES_STATE
      00000088H.1 SFRSYM    DATA     BIT       USINT
      000000B8H   SFRSYM    DATA     BYTE      IP
      00000098H   SFRSYM    DATA     BIT       RI
      000000D0H.7 SFRSYM    DATA     BIT       CY
      00000098H.1 SFRSYM    DATA     BIT       TI
      000000EAH   SFRSYM    DATA     BYTE      MPTRX
      00000093H   SFRSYM    DATA     BYTE      DPX0
      00000095H   SFRSYM    DATA     BYTE      DPX1
      00000081H   SFRSYM    DATA     BYTE      SP
      000000D0H.2 SFRSYM    DATA     BIT       OV
      000000A1H   SFRSYM    DATA     BYTE      CBSL
      00000080H.5 SFRSYM    DATA     BIT       FSM_RESULT
      00000099H   SFRSYM    DATA     BYTE      SBUF
      00000087H   SFRSYM    DATA     BYTE      PCON
      00000088H.3 SFRSYM    DATA     BIT       MFLT
      00000098H   SFRSYM    DATA     BYTE      SCON
      00000089H   SFRSYM    DATA     BYTE      TMOD
      00000088H   SFRSYM    DATA     BYTE      TCON
      00000088H.1 SFRSYM    DATA     BIT       SINT
      000000E8H   SFRSYM    DATA     BYTE      EPSW
      000000F0H   SFRSYM    DATA     BYTE      B
      000000A2H   SFRSYM    DATA     BYTE      MPTR
      000000E0H   SFRSYM    DATA     BYTE      ACC
      00000088H.5 SFRSYM    DATA     BIT       TF0
      00000088H.7 SFRSYM    DATA     BIT       TF1
      0000008CH   SFRSYM    DATA     BYTE      TH0
      000000B2H   SFRSYM    DATA     BYTE      ISOCON
      0000008DH   SFRSYM    DATA     BYTE      TH1
      000000D8H   SFRSYM    DATA     BYTE      SPSW
      000000D0H   SFRSYM    DATA     BIT       P
      0000008AH   SFRSYM    DATA     BYTE      TL0
      0000008BH   SFRSYM    DATA     BYTE      TL1
      000000C0H   SFRSYM    DATA     BYTE      PROGIO
      000000D0H.3 SFRSYM    DATA     BIT       RS0
LX51 LINKER/LOCATER V4.10a                                                            10/17/2007  16:48:09  PAGE 76


      00000088H.4 SFRSYM    DATA     BIT       TR0
      000000D0H.4 SFRSYM    DATA     BIT       RS1
      00000080H.1 SFRSYM    DATA     BIT       FSM_START
      00000088H.6 SFRSYM    DATA     BIT       TR1
      00000083H   SFRSYM    DATA     BYTE      DPH
      000000B4H   SFRSYM    DATA     BYTE      ISOTMR
      00000082H   SFRSYM    DATA     BYTE      DPL
      000000B0H   SFRSYM    DATA     BYTE      SECURITYSTATUS
      00000086H   SFRSYM    DATA     BYTE      DPS
      00000093H   SFRSYM    DATA     BYTE      DPX
      00000080H   SFRSYM    DATA     BYTE      NVFSMCON
      000000F7H   SFRSYM    DATA     BYTE      MFCON
      000000C9H   SFRSYM    DATA     BYTE      NvFsmMode
      000000D0H.5 SFRSYM    DATA     BIT       F0
      000000E8H.1 SFRSYM    DATA     BIT       F1
      000000D0H   SFRSYM    DATA     BYTE      PSW

      01001997H   BLOCK     ECODE    ---       LVL=0
      01001997H   LINE      ECODE    ---       #63
      01001997H   LINE      ECODE    ---       #64
      01001997H   LINE      ECODE    ---       #65
      0100199EH   LINE      ECODE    ---       #66
      0100199EH   LINE      ECODE    ---       #67
      010019A2H   LINE      ECODE    ---       #68
      010019A4H   LINE      ECODE    ---       #70
      010019A4H   LINE      ECODE    ---       #72
      010019ABH   LINE      ECODE    ---       #76
      010019C2H   LINE      ECODE    ---       #77
      010019C2H   LINE      ECODE    ---       #78
      010019C9H   LINE      ECODE    ---       #79
      010019CBH   LINE      ECODE    ---       #81
      010019CBH   LINE      ECODE    ---       #83
      010019D2H   LINE      ECODE    ---       #85
      010019D6H   LINE      ECODE    ---       #86
      010019D6H   LINE      ECODE    ---       #87
      010019D8H   LINE      ECODE    ---       #88
      010019DAH   LINE      ECODE    ---       #90
      010019DAH   LINE      ECODE    ---       #91
      010019DFH   LINE      ECODE    ---       #92
      010019DFH   LINE      ECODE    ---       #93
      010019DFH   LINE      ECODE    ---       #94
      010019DFH   LINE      ECODE    ---       #96
      010019E6H   LINE      ECODE    ---       #98
      ---         BLOCKEND  ---      ---       LVL=0

      ---         MODULE    ---      ---       ERASE_256_UCM_EXTENDED_ADDRESSING
      01001C0BH   PUBLIC    ECODE    ---       Erase_256_UCM_Extended_Addressing
      000000D0H.6 SFRSYM    DATA     BIT       AC
      00000080H   SFRSYM    DATA     BIT       FSM_FINISH
      00000083H   SFRSYM    DATA     BYTE      DPH0
      000000E8H   SFRSYM    DATA     BIT       AM
      000000A8H   SFRSYM    DATA     BYTE      IE
      00000085H   SFRSYM    DATA     BYTE      DPH1
      00000082H   SFRSYM    DATA     BYTE      DPL0
      00000084H   SFRSYM    DATA     BYTE      DPL1
      00000088H   SFRSYM    DATA     BIT       SSINT
      000000C0H   SFRSYM    DATA     BIT       PULLUP_RES_STATE
      00000088H.1 SFRSYM    DATA     BIT       USINT
      000000B8H   SFRSYM    DATA     BYTE      IP
      00000098H   SFRSYM    DATA     BIT       RI
      000000D0H.7 SFRSYM    DATA     BIT       CY
      00000098H.1 SFRSYM    DATA     BIT       TI
      000000EAH   SFRSYM    DATA     BYTE      MPTRX
      00000093H   SFRSYM    DATA     BYTE      DPX0
      00000095H   SFRSYM    DATA     BYTE      DPX1
LX51 LINKER/LOCATER V4.10a                                                            10/17/2007  16:48:09  PAGE 77


      00000081H   SFRSYM    DATA     BYTE      SP
      000000D0H.2 SFRSYM    DATA     BIT       OV
      000000A1H   SFRSYM    DATA     BYTE      CBSL
      00000080H.5 SFRSYM    DATA     BIT       FSM_RESULT
      00000099H   SFRSYM    DATA     BYTE      SBUF
      00000087H   SFRSYM    DATA     BYTE      PCON
      00000088H.3 SFRSYM    DATA     BIT       MFLT
      00000098H   SFRSYM    DATA     BYTE      SCON
      00000089H   SFRSYM    DATA     BYTE      TMOD
      00000088H   SFRSYM    DATA     BYTE      TCON
      00000088H.1 SFRSYM    DATA     BIT       SINT
      000000E8H   SFRSYM    DATA     BYTE      EPSW
      000000F0H   SFRSYM    DATA     BYTE      B
      000000A2H   SFRSYM    DATA     BYTE      MPTR
      000000E0H   SFRSYM    DATA     BYTE      ACC
      00000088H.5 SFRSYM    DATA     BIT       TF0
      00000088H.7 SFRSYM    DATA     BIT       TF1
      0000008CH   SFRSYM    DATA     BYTE      TH0
      000000B2H   SFRSYM    DATA     BYTE      ISOCON
      0000008DH   SFRSYM    DATA     BYTE      TH1
      000000D8H   SFRSYM    DATA     BYTE      SPSW
      000000D0H   SFRSYM    DATA     BIT       P
      0000008AH   SFRSYM    DATA     BYTE      TL0
      0000008BH   SFRSYM    DATA     BYTE      TL1
      000000C0H   SFRSYM    DATA     BYTE      PROGIO
      000000D0H.3 SFRSYM    DATA     BIT       RS0
      00000088H.4 SFRSYM    DATA     BIT       TR0
      000000D0H.4 SFRSYM    DATA     BIT       RS1
      00000080H.1 SFRSYM    DATA     BIT       FSM_START
      00000088H.6 SFRSYM    DATA     BIT       TR1
      00000083H   SFRSYM    DATA     BYTE      DPH
      000000B4H   SFRSYM    DATA     BYTE      ISOTMR
      00000082H   SFRSYM    DATA     BYTE      DPL
      000000B0H   SFRSYM    DATA     BYTE      SECURITYSTATUS
      00000086H   SFRSYM    DATA     BYTE      DPS
      00000093H   SFRSYM    DATA     BYTE      DPX
      00000080H   SFRSYM    DATA     BYTE      NVFSMCON
      000000F7H   SFRSYM    DATA     BYTE      MFCON
      000000C9H   SFRSYM    DATA     BYTE      NvFsmMode
      000000D0H.5 SFRSYM    DATA     BIT       F0
      000000E8H.1 SFRSYM    DATA     BIT       F1
      000000D0H   SFRSYM    DATA     BYTE      PSW

      01001C0BH   BLOCK     ECODE    ---       LVL=0
      01001C0BH   LINE      ECODE    ---       #62
      01001C0BH   LINE      ECODE    ---       #63
      01001C0BH   LINE      ECODE    ---       #64
      01001C12H   LINE      ECODE    ---       #65
      01001C12H   LINE      ECODE    ---       #68
      01001C19H   LINE      ECODE    ---       #71
      01001C26H   LINE      ECODE    ---       #74
      01001C2BH   LINE      ECODE    ---       #75
      01001C2BH   LINE      ECODE    ---       #76
      01001C30H   LINE      ECODE    ---       #77
      01001C32H   LINE      ECODE    ---       #79
      01001C32H   LINE      ECODE    ---       #80
      01001C34H   LINE      ECODE    ---       #81
      01001C34H   LINE      ECODE    ---       #82
      01001C36H   LINE      ECODE    ---       #85
      01001C36H   LINE      ECODE    ---       #86
      01001C3DH   LINE      ECODE    ---       #87
      01001C3DH   LINE      ECODE    ---       #89
      01001C44H   LINE      ECODE    ---       #91
      ---         BLOCKEND  ---      ---       LVL=0

LX51 LINKER/LOCATER V4.10a                                                            10/17/2007  16:48:09  PAGE 78


      ---         MODULE    ---      ---       ERASE_512_UCM_EXTENDED_ADDRESSING
      01001C45H   PUBLIC    ECODE    ---       Erase_512_UCM_Extended_Addressing
      000000D0H.6 SFRSYM    DATA     BIT       AC
      00000080H   SFRSYM    DATA     BIT       FSM_FINISH
      00000083H   SFRSYM    DATA     BYTE      DPH0
      000000E8H   SFRSYM    DATA     BIT       AM
      000000A8H   SFRSYM    DATA     BYTE      IE
      00000085H   SFRSYM    DATA     BYTE      DPH1
      00000082H   SFRSYM    DATA     BYTE      DPL0
      00000084H   SFRSYM    DATA     BYTE      DPL1
      00000088H   SFRSYM    DATA     BIT       SSINT
      000000C0H   SFRSYM    DATA     BIT       PULLUP_RES_STATE
      00000088H.1 SFRSYM    DATA     BIT       USINT
      000000B8H   SFRSYM    DATA     BYTE      IP
      00000098H   SFRSYM    DATA     BIT       RI
      000000D0H.7 SFRSYM    DATA     BIT       CY
      00000098H.1 SFRSYM    DATA     BIT       TI
      000000EAH   SFRSYM    DATA     BYTE      MPTRX
      00000093H   SFRSYM    DATA     BYTE      DPX0
      00000095H   SFRSYM    DATA     BYTE      DPX1
      00000081H   SFRSYM    DATA     BYTE      SP
      000000D0H.2 SFRSYM    DATA     BIT       OV
      000000A1H   SFRSYM    DATA     BYTE      CBSL
      00000080H.5 SFRSYM    DATA     BIT       FSM_RESULT
      00000099H   SFRSYM    DATA     BYTE      SBUF
      00000087H   SFRSYM    DATA     BYTE      PCON
      00000088H.3 SFRSYM    DATA     BIT       MFLT
      00000098H   SFRSYM    DATA     BYTE      SCON
      00000089H   SFRSYM    DATA     BYTE      TMOD
      00000088H   SFRSYM    DATA     BYTE      TCON
      00000088H.1 SFRSYM    DATA     BIT       SINT
      000000E8H   SFRSYM    DATA     BYTE      EPSW
      000000F0H   SFRSYM    DATA     BYTE      B
      000000A2H   SFRSYM    DATA     BYTE      MPTR
      000000E0H   SFRSYM    DATA     BYTE      ACC
      00000088H.5 SFRSYM    DATA     BIT       TF0
      00000088H.7 SFRSYM    DATA     BIT       TF1
      0000008CH   SFRSYM    DATA     BYTE      TH0
      000000B2H   SFRSYM    DATA     BYTE      ISOCON
      0000008DH   SFRSYM    DATA     BYTE      TH1
      000000D8H   SFRSYM    DATA     BYTE      SPSW
      000000D0H   SFRSYM    DATA     BIT       P
      0000008AH   SFRSYM    DATA     BYTE      TL0
      0000008BH   SFRSYM    DATA     BYTE      TL1
      000000C0H   SFRSYM    DATA     BYTE      PROGIO
      000000D0H.3 SFRSYM    DATA     BIT       RS0
      00000088H.4 SFRSYM    DATA     BIT       TR0
      000000D0H.4 SFRSYM    DATA     BIT       RS1
      00000080H.1 SFRSYM    DATA     BIT       FSM_START
      00000088H.6 SFRSYM    DATA     BIT       TR1
      00000083H   SFRSYM    DATA     BYTE      DPH
      000000B4H   SFRSYM    DATA     BYTE      ISOTMR
      00000082H   SFRSYM    DATA     BYTE      DPL
      000000B0H   SFRSYM    DATA     BYTE      SECURITYSTATUS
      00000086H   SFRSYM    DATA     BYTE      DPS
      00000093H   SFRSYM    DATA     BYTE      DPX
      00000080H   SFRSYM    DATA     BYTE      NVFSMCON
      000000F7H   SFRSYM    DATA     BYTE      MFCON
      000000C9H   SFRSYM    DATA     BYTE      NvFsmMode
      000000D0H.5 SFRSYM    DATA     BIT       F0
      000000E8H.1 SFRSYM    DATA     BIT       F1
      000000D0H   SFRSYM    DATA     BYTE      PSW

      01001C45H   BLOCK     ECODE    ---       LVL=0
      01001C45H   LINE      ECODE    ---       #62
LX51 LINKER/LOCATER V4.10a                                                            10/17/2007  16:48:09  PAGE 79


      01001C45H   LINE      ECODE    ---       #63
      01001C45H   LINE      ECODE    ---       #64
      01001C4CH   LINE      ECODE    ---       #65
      01001C4CH   LINE      ECODE    ---       #68
      01001C53H   LINE      ECODE    ---       #71
      01001C60H   LINE      ECODE    ---       #74
      01001C65H   LINE      ECODE    ---       #75
      01001C65H   LINE      ECODE    ---       #76
      01001C6AH   LINE      ECODE    ---       #77
      01001C6CH   LINE      ECODE    ---       #79
      01001C6CH   LINE      ECODE    ---       #80
      01001C6EH   LINE      ECODE    ---       #81
      01001C6EH   LINE      ECODE    ---       #82
      01001C70H   LINE      ECODE    ---       #85
      01001C70H   LINE      ECODE    ---       #86
      01001C77H   LINE      ECODE    ---       #87
      01001C77H   LINE      ECODE    ---       #89
      01001C7EH   LINE      ECODE    ---       #91
      ---         BLOCKEND  ---      ---       LVL=0

      ---         MODULE    ---      ---       WRITE_BYTE_UCM_EXTENDED_ADDRESSING
      000000ACH   PUBLIC    IDATA    ---       ConfigWriteBuff
      02012000H   PUBLIC    HDATA    ---       gCONFIGP1
      00000008H   PUBLIC    DATA     BYTE      ?_WriteConfig?BYTE
      01002076H   PUBLIC    ECODE    ---       _WriteConfig
      01001DC7H   PUBLIC    ECODE    ---       Write_Byte_UCM_Extended_Addressing
      000000D0H.6 SFRSYM    DATA     BIT       AC
      00000080H   SFRSYM    DATA     BIT       FSM_FINISH
      00000083H   SFRSYM    DATA     BYTE      DPH0
      000000E8H   SFRSYM    DATA     BIT       AM
      000000A8H   SFRSYM    DATA     BYTE      IE
      00000085H   SFRSYM    DATA     BYTE      DPH1
      00000082H   SFRSYM    DATA     BYTE      DPL0
      00000084H   SFRSYM    DATA     BYTE      DPL1
      00000088H   SFRSYM    DATA     BIT       SSINT
      000000C0H   SFRSYM    DATA     BIT       PULLUP_RES_STATE
      00000088H.1 SFRSYM    DATA     BIT       USINT
      000000B8H   SFRSYM    DATA     BYTE      IP
      00000098H   SFRSYM    DATA     BIT       RI
      000000D0H.7 SFRSYM    DATA     BIT       CY
      00000098H.1 SFRSYM    DATA     BIT       TI
      000000EAH   SFRSYM    DATA     BYTE      MPTRX
      00000093H   SFRSYM    DATA     BYTE      DPX0
      00000095H   SFRSYM    DATA     BYTE      DPX1
      00000081H   SFRSYM    DATA     BYTE      SP
      000000D0H.2 SFRSYM    DATA     BIT       OV
      000000A1H   SFRSYM    DATA     BYTE      CBSL
      00000080H.5 SFRSYM    DATA     BIT       FSM_RESULT
      00000099H   SFRSYM    DATA     BYTE      SBUF
      00000087H   SFRSYM    DATA     BYTE      PCON
      00000088H.3 SFRSYM    DATA     BIT       MFLT
      00000098H   SFRSYM    DATA     BYTE      SCON
      00000089H   SFRSYM    DATA     BYTE      TMOD
      00000088H   SFRSYM    DATA     BYTE      TCON
      00000088H.1 SFRSYM    DATA     BIT       SINT
      000000E8H   SFRSYM    DATA     BYTE      EPSW
      000000F0H   SFRSYM    DATA     BYTE      B
      000000A2H   SFRSYM    DATA     BYTE      MPTR
      000000E0H   SFRSYM    DATA     BYTE      ACC
      00000088H.5 SFRSYM    DATA     BIT       TF0
      00000088H.7 SFRSYM    DATA     BIT       TF1
      0000008CH   SFRSYM    DATA     BYTE      TH0
      000000B2H   SFRSYM    DATA     BYTE      ISOCON
      0000008DH   SFRSYM    DATA     BYTE      TH1
      000000D8H   SFRSYM    DATA     BYTE      SPSW
LX51 LINKER/LOCATER V4.10a                                                            10/17/2007  16:48:09  PAGE 80


      000000D0H   SFRSYM    DATA     BIT       P
      0000008AH   SFRSYM    DATA     BYTE      TL0
      0000008BH   SFRSYM    DATA     BYTE      TL1
      000000C0H   SFRSYM    DATA     BYTE      PROGIO
      000000D0H.3 SFRSYM    DATA     BIT       RS0
      00000088H.4 SFRSYM    DATA     BIT       TR0
      000000D0H.4 SFRSYM    DATA     BIT       RS1
      00000080H.1 SFRSYM    DATA     BIT       FSM_START
      00000088H.6 SFRSYM    DATA     BIT       TR1
      00000083H   SFRSYM    DATA     BYTE      DPH
      000000B4H   SFRSYM    DATA     BYTE      ISOTMR
      00000082H   SFRSYM    DATA     BYTE      DPL
      000000B0H   SFRSYM    DATA     BYTE      SECURITYSTATUS
      00000086H   SFRSYM    DATA     BYTE      DPS
      00000093H   SFRSYM    DATA     BYTE      DPX
      00000080H   SFRSYM    DATA     BYTE      NVFSMCON
      000000F7H   SFRSYM    DATA     BYTE      MFCON
      000000C9H   SFRSYM    DATA     BYTE      NvFsmMode
      000000D0H.5 SFRSYM    DATA     BIT       F0
      000000E8H.1 SFRSYM    DATA     BIT       F1
      000000D0H   SFRSYM    DATA     BYTE      PSW

      01001DC7H   BLOCK     ECODE    ---       LVL=0
      01001DC7H   LINE      ECODE    ---       #74
      01001DC7H   LINE      ECODE    ---       #75
      01001DC7H   LINE      ECODE    ---       #112
      01001DCBH   LINE      ECODE    ---       #127
      01001DE2H   LINE      ECODE    ---       #131
      01001DE9H   LINE      ECODE    ---       #133
      ---         BLOCKEND  ---      ---       LVL=0

      01002076H   BLOCK     ECODE    ---       LVL=0
      00000008H   SYMBOL    DATA     DWORD     dest_addr
      0000000CH   SYMBOL    DATA     ---       source_addr
      0000000DH   SYMBOL    DATA     CHAR      num_of_bytes
      0100207EH   BLOCK     ECODE    NEAR LAB  LVL=1
      0000000EH   SYMBOL    DATA     BYTE      i
      ---         BLOCKEND  ---      ---       LVL=1
      01002076H   LINE      ECODE    ---       #141
      0100207EH   LINE      ECODE    ---       #142
      0100207EH   LINE      ECODE    ---       #159
      ---         BLOCKEND  ---      ---       LVL=0

      ---         MODULE    ---      ---       GET_RANDOM_NUMBER
      0100201BH   PUBLIC    ECODE    ---       Get_Random_Number
      000000D0H.6 SFRSYM    DATA     BIT       AC
      00000080H   SFRSYM    DATA     BIT       FSM_FINISH
      00000083H   SFRSYM    DATA     BYTE      DPH0
      000000E8H   SFRSYM    DATA     BIT       AM
      000000A8H   SFRSYM    DATA     BYTE      IE
      00000085H   SFRSYM    DATA     BYTE      DPH1
      00000082H   SFRSYM    DATA     BYTE      DPL0
      00000084H   SFRSYM    DATA     BYTE      DPL1
      00000088H   SFRSYM    DATA     BIT       SSINT
      000000C0H   SFRSYM    DATA     BIT       PULLUP_RES_STATE
      00000088H.1 SFRSYM    DATA     BIT       USINT
      000000B8H   SFRSYM    DATA     BYTE      IP
      00000098H   SFRSYM    DATA     BIT       RI
      000000D0H.7 SFRSYM    DATA     BIT       CY
      00000098H.1 SFRSYM    DATA     BIT       TI
      000000EAH   SFRSYM    DATA     BYTE      MPTRX
      00000093H   SFRSYM    DATA     BYTE      DPX0
      00000095H   SFRSYM    DATA     BYTE      DPX1
      00000081H   SFRSYM    DATA     BYTE      SP
      000000D0H.2 SFRSYM    DATA     BIT       OV
LX51 LINKER/LOCATER V4.10a                                                            10/17/2007  16:48:09  PAGE 81


      000000A1H   SFRSYM    DATA     BYTE      CBSL
      00000080H.5 SFRSYM    DATA     BIT       FSM_RESULT
      00000099H   SFRSYM    DATA     BYTE      SBUF
      00000087H   SFRSYM    DATA     BYTE      PCON
      00000088H.3 SFRSYM    DATA     BIT       MFLT
      00000098H   SFRSYM    DATA     BYTE      SCON
      00000089H   SFRSYM    DATA     BYTE      TMOD
      00000088H   SFRSYM    DATA     BYTE      TCON
      00000088H.1 SFRSYM    DATA     BIT       SINT
      000000E8H   SFRSYM    DATA     BYTE      EPSW
      000000F0H   SFRSYM    DATA     BYTE      B
      000000A2H   SFRSYM    DATA     BYTE      MPTR
      000000E0H   SFRSYM    DATA     BYTE      ACC
      00000088H.5 SFRSYM    DATA     BIT       TF0
      00000088H.7 SFRSYM    DATA     BIT       TF1
      0000008CH   SFRSYM    DATA     BYTE      TH0
      000000B2H   SFRSYM    DATA     BYTE      ISOCON
      0000008DH   SFRSYM    DATA     BYTE      TH1
      000000D8H   SFRSYM    DATA     BYTE      SPSW
      000000D0H   SFRSYM    DATA     BIT       P
      0000008AH   SFRSYM    DATA     BYTE      TL0
      0000008BH   SFRSYM    DATA     BYTE      TL1
      000000C0H   SFRSYM    DATA     BYTE      PROGIO
      000000D0H.3 SFRSYM    DATA     BIT       RS0
      00000088H.4 SFRSYM    DATA     BIT       TR0
      000000D0H.4 SFRSYM    DATA     BIT       RS1
      00000080H.1 SFRSYM    DATA     BIT       FSM_START
      00000088H.6 SFRSYM    DATA     BIT       TR1
      00000083H   SFRSYM    DATA     BYTE      DPH
      000000B4H   SFRSYM    DATA     BYTE      ISOTMR
      00000082H   SFRSYM    DATA     BYTE      DPL
      000000B0H   SFRSYM    DATA     BYTE      SECURITYSTATUS
      00000086H   SFRSYM    DATA     BYTE      DPS
      00000093H   SFRSYM    DATA     BYTE      DPX
      00000080H   SFRSYM    DATA     BYTE      NVFSMCON
      000000F7H   SFRSYM    DATA     BYTE      MFCON
      000000C9H   SFRSYM    DATA     BYTE      NvFsmMode
      000000D0H.5 SFRSYM    DATA     BIT       F0
      000000E8H.1 SFRSYM    DATA     BIT       F1
      000000D0H   SFRSYM    DATA     BYTE      PSW

      0100201BH   BLOCK     ECODE    ---       LVL=0
      0100201BH   LINE      ECODE    ---       #57
      0100201BH   LINE      ECODE    ---       #58
      0100201BH   LINE      ECODE    ---       #60
      0100201BH   LINE      ECODE    ---       #61
      01002021H   LINE      ECODE    ---       #62
      01002027H   LINE      ECODE    ---       #64
      0100202AH   LINE      ECODE    ---       #66
      ---         BLOCKEND  ---      ---       LVL=0

      ---         MODULE    ---      ---       SET_EXECUTE_ONLY_STATUS
      01001B09H   PUBLIC    ECODE    ---       Set_Execute_Only_Status
      000000D0H.6 SFRSYM    DATA     BIT       AC
      00000080H   SFRSYM    DATA     BIT       FSM_FINISH
      00000083H   SFRSYM    DATA     BYTE      DPH0
      000000E8H   SFRSYM    DATA     BIT       AM
      000000A8H   SFRSYM    DATA     BYTE      IE
      00000085H   SFRSYM    DATA     BYTE      DPH1
      00000082H   SFRSYM    DATA     BYTE      DPL0
      00000084H   SFRSYM    DATA     BYTE      DPL1
      00000088H   SFRSYM    DATA     BIT       SSINT
      000000C0H   SFRSYM    DATA     BIT       PULLUP_RES_STATE
      00000088H.1 SFRSYM    DATA     BIT       USINT
      000000B8H   SFRSYM    DATA     BYTE      IP
LX51 LINKER/LOCATER V4.10a                                                            10/17/2007  16:48:09  PAGE 82


      00000098H   SFRSYM    DATA     BIT       RI
      000000D0H.7 SFRSYM    DATA     BIT       CY
      00000098H.1 SFRSYM    DATA     BIT       TI
      000000EAH   SFRSYM    DATA     BYTE      MPTRX
      00000093H   SFRSYM    DATA     BYTE      DPX0
      00000095H   SFRSYM    DATA     BYTE      DPX1
      00000081H   SFRSYM    DATA     BYTE      SP
      000000D0H.2 SFRSYM    DATA     BIT       OV
      000000A1H   SFRSYM    DATA     BYTE      CBSL
      00000080H.5 SFRSYM    DATA     BIT       FSM_RESULT
      00000099H   SFRSYM    DATA     BYTE      SBUF
      00000087H   SFRSYM    DATA     BYTE      PCON
      00000088H.3 SFRSYM    DATA     BIT       MFLT
      00000098H   SFRSYM    DATA     BYTE      SCON
      00000089H   SFRSYM    DATA     BYTE      TMOD
      00000088H   SFRSYM    DATA     BYTE      TCON
      00000088H.1 SFRSYM    DATA     BIT       SINT
      000000E8H   SFRSYM    DATA     BYTE      EPSW
      000000F0H   SFRSYM    DATA     BYTE      B
      000000A2H   SFRSYM    DATA     BYTE      MPTR
      000000E0H   SFRSYM    DATA     BYTE      ACC
      00000088H.5 SFRSYM    DATA     BIT       TF0
      00000088H.7 SFRSYM    DATA     BIT       TF1
      0000008CH   SFRSYM    DATA     BYTE      TH0
      000000B2H   SFRSYM    DATA     BYTE      ISOCON
      0000008DH   SFRSYM    DATA     BYTE      TH1
      000000D8H   SFRSYM    DATA     BYTE      SPSW
      000000D0H   SFRSYM    DATA     BIT       P
      0000008AH   SFRSYM    DATA     BYTE      TL0
      0000008BH   SFRSYM    DATA     BYTE      TL1
      000000C0H   SFRSYM    DATA     BYTE      PROGIO
      000000D0H.3 SFRSYM    DATA     BIT       RS0
      00000088H.4 SFRSYM    DATA     BIT       TR0
      000000D0H.4 SFRSYM    DATA     BIT       RS1
      00000080H.1 SFRSYM    DATA     BIT       FSM_START
      00000088H.6 SFRSYM    DATA     BIT       TR1
      00000083H   SFRSYM    DATA     BYTE      DPH
      000000B4H   SFRSYM    DATA     BYTE      ISOTMR
      00000082H   SFRSYM    DATA     BYTE      DPL
      000000B0H   SFRSYM    DATA     BYTE      SECURITYSTATUS
      00000086H   SFRSYM    DATA     BYTE      DPS
      00000093H   SFRSYM    DATA     BYTE      DPX
      00000080H   SFRSYM    DATA     BYTE      NVFSMCON
      000000F7H   SFRSYM    DATA     BYTE      MFCON
      000000C9H   SFRSYM    DATA     BYTE      NvFsmMode
      000000D0H.5 SFRSYM    DATA     BIT       F0
      000000E8H.1 SFRSYM    DATA     BIT       F1
      000000D0H   SFRSYM    DATA     BYTE      PSW

      01001B09H   BLOCK     ECODE    ---       LVL=0
      01001B09H   LINE      ECODE    ---       #64
      01001B09H   LINE      ECODE    ---       #65
      01001B09H   LINE      ECODE    ---       #66
      01001B10H   LINE      ECODE    ---       #67
      01001B10H   LINE      ECODE    ---       #68
      01001B17H   LINE      ECODE    ---       #71
      01001B2CH   LINE      ECODE    ---       #74
      01001B31H   LINE      ECODE    ---       #75
      01001B31H   LINE      ECODE    ---       #76
      01001B36H   LINE      ECODE    ---       #77
      01001B38H   LINE      ECODE    ---       #79
      01001B38H   LINE      ECODE    ---       #80
      01001B3AH   LINE      ECODE    ---       #81
      01001B3AH   LINE      ECODE    ---       #82
      01001B3CH   LINE      ECODE    ---       #85
LX51 LINKER/LOCATER V4.10a                                                            10/17/2007  16:48:09  PAGE 83


      01001B3CH   LINE      ECODE    ---       #86
      01001B43H   LINE      ECODE    ---       #87
      01001B43H   LINE      ECODE    ---       #89
      01001B4AH   LINE      ECODE    ---       #91
      ---         BLOCKEND  ---      ---       LVL=0

      ---         MODULE    ---      ---       SET_PROTECTION_STATUS
      01001B4BH   PUBLIC    ECODE    ---       Set_Protection_Status
      000000D0H.6 SFRSYM    DATA     BIT       AC
      00000080H   SFRSYM    DATA     BIT       FSM_FINISH
      00000083H   SFRSYM    DATA     BYTE      DPH0
      000000E8H   SFRSYM    DATA     BIT       AM
      000000A8H   SFRSYM    DATA     BYTE      IE
      00000085H   SFRSYM    DATA     BYTE      DPH1
      00000082H   SFRSYM    DATA     BYTE      DPL0
      00000084H   SFRSYM    DATA     BYTE      DPL1
      00000088H   SFRSYM    DATA     BIT       SSINT
      000000C0H   SFRSYM    DATA     BIT       PULLUP_RES_STATE
      00000088H.1 SFRSYM    DATA     BIT       USINT
      000000B8H   SFRSYM    DATA     BYTE      IP
      00000098H   SFRSYM    DATA     BIT       RI
      000000D0H.7 SFRSYM    DATA     BIT       CY
      00000098H.1 SFRSYM    DATA     BIT       TI
      000000EAH   SFRSYM    DATA     BYTE      MPTRX
      00000093H   SFRSYM    DATA     BYTE      DPX0
      00000095H   SFRSYM    DATA     BYTE      DPX1
      00000081H   SFRSYM    DATA     BYTE      SP
      000000D0H.2 SFRSYM    DATA     BIT       OV
      000000A1H   SFRSYM    DATA     BYTE      CBSL
      00000080H.5 SFRSYM    DATA     BIT       FSM_RESULT
      00000099H   SFRSYM    DATA     BYTE      SBUF
      00000087H   SFRSYM    DATA     BYTE      PCON
      00000088H.3 SFRSYM    DATA     BIT       MFLT
      00000098H   SFRSYM    DATA     BYTE      SCON
      00000089H   SFRSYM    DATA     BYTE      TMOD
      00000088H   SFRSYM    DATA     BYTE      TCON
      00000088H.1 SFRSYM    DATA     BIT       SINT
      000000E8H   SFRSYM    DATA     BYTE      EPSW
      000000F0H   SFRSYM    DATA     BYTE      B
      000000A2H   SFRSYM    DATA     BYTE      MPTR
      000000E0H   SFRSYM    DATA     BYTE      ACC
      00000088H.5 SFRSYM    DATA     BIT       TF0
      00000088H.7 SFRSYM    DATA     BIT       TF1
      0000008CH   SFRSYM    DATA     BYTE      TH0
      000000B2H   SFRSYM    DATA     BYTE      ISOCON
      0000008DH   SFRSYM    DATA     BYTE      TH1
      000000D8H   SFRSYM    DATA     BYTE      SPSW
      000000D0H   SFRSYM    DATA     BIT       P
      0000008AH   SFRSYM    DATA     BYTE      TL0
      0000008BH   SFRSYM    DATA     BYTE      TL1
      000000C0H   SFRSYM    DATA     BYTE      PROGIO
      000000D0H.3 SFRSYM    DATA     BIT       RS0
      00000088H.4 SFRSYM    DATA     BIT       TR0
      000000D0H.4 SFRSYM    DATA     BIT       RS1
      00000080H.1 SFRSYM    DATA     BIT       FSM_START
      00000088H.6 SFRSYM    DATA     BIT       TR1
      00000083H   SFRSYM    DATA     BYTE      DPH
      000000B4H   SFRSYM    DATA     BYTE      ISOTMR
      00000082H   SFRSYM    DATA     BYTE      DPL
      000000B0H   SFRSYM    DATA     BYTE      SECURITYSTATUS
      00000086H   SFRSYM    DATA     BYTE      DPS
      00000093H   SFRSYM    DATA     BYTE      DPX
      00000080H   SFRSYM    DATA     BYTE      NVFSMCON
      000000F7H   SFRSYM    DATA     BYTE      MFCON
      000000C9H   SFRSYM    DATA     BYTE      NvFsmMode
LX51 LINKER/LOCATER V4.10a                                                            10/17/2007  16:48:09  PAGE 84


      000000D0H.5 SFRSYM    DATA     BIT       F0
      000000E8H.1 SFRSYM    DATA     BIT       F1
      000000D0H   SFRSYM    DATA     BYTE      PSW

      01001B4BH   BLOCK     ECODE    ---       LVL=0
      01001B4BH   LINE      ECODE    ---       #65
      01001B4BH   LINE      ECODE    ---       #66
      01001B4BH   LINE      ECODE    ---       #67
      01001B52H   LINE      ECODE    ---       #68
      01001B52H   LINE      ECODE    ---       #69
      01001B59H   LINE      ECODE    ---       #72
      01001B6EH   LINE      ECODE    ---       #75
      01001B73H   LINE      ECODE    ---       #76
      01001B73H   LINE      ECODE    ---       #77
      01001B78H   LINE      ECODE    ---       #78
      01001B7AH   LINE      ECODE    ---       #80
      01001B7AH   LINE      ECODE    ---       #81
      01001B7CH   LINE      ECODE    ---       #82
      01001B7CH   LINE      ECODE    ---       #83
      01001B7EH   LINE      ECODE    ---       #86
      01001B7EH   LINE      ECODE    ---       #87
      01001B85H   LINE      ECODE    ---       #88
      01001B85H   LINE      ECODE    ---       #90
      01001B8CH   LINE      ECODE    ---       #92
      ---         BLOCKEND  ---      ---       LVL=0

      ---         MODULE    ---      ---       ERASE_UCM_BLOCKS__R6R7_PASSING
      01001FD7H   PUBLIC    ECODE    ---       Erase_UCM_Blocks__R6R7_Passing
      000000D0H.6 SFRSYM    DATA     BIT       AC
      00000080H   SFRSYM    DATA     BIT       FSM_FINISH
      00000083H   SFRSYM    DATA     BYTE      DPH0
      000000E8H   SFRSYM    DATA     BIT       AM
      000000A8H   SFRSYM    DATA     BYTE      IE
      00000085H   SFRSYM    DATA     BYTE      DPH1
      00000082H   SFRSYM    DATA     BYTE      DPL0
      00000084H   SFRSYM    DATA     BYTE      DPL1
      00000088H   SFRSYM    DATA     BIT       SSINT
      000000C0H   SFRSYM    DATA     BIT       PULLUP_RES_STATE
      00000088H.1 SFRSYM    DATA     BIT       USINT
      000000B8H   SFRSYM    DATA     BYTE      IP
      00000098H   SFRSYM    DATA     BIT       RI
      000000D0H.7 SFRSYM    DATA     BIT       CY
      00000098H.1 SFRSYM    DATA     BIT       TI
      000000EAH   SFRSYM    DATA     BYTE      MPTRX
      00000093H   SFRSYM    DATA     BYTE      DPX0
      00000095H   SFRSYM    DATA     BYTE      DPX1
      00000081H   SFRSYM    DATA     BYTE      SP
      000000D0H.2 SFRSYM    DATA     BIT       OV
      000000A1H   SFRSYM    DATA     BYTE      CBSL
      00000080H.5 SFRSYM    DATA     BIT       FSM_RESULT
      00000099H   SFRSYM    DATA     BYTE      SBUF
      00000087H   SFRSYM    DATA     BYTE      PCON
      00000088H.3 SFRSYM    DATA     BIT       MFLT
      00000098H   SFRSYM    DATA     BYTE      SCON
      00000089H   SFRSYM    DATA     BYTE      TMOD
      00000088H   SFRSYM    DATA     BYTE      TCON
      00000088H.1 SFRSYM    DATA     BIT       SINT
      000000E8H   SFRSYM    DATA     BYTE      EPSW
      000000F0H   SFRSYM    DATA     BYTE      B
      000000A2H   SFRSYM    DATA     BYTE      MPTR
      000000E0H   SFRSYM    DATA     BYTE      ACC
      00000088H.5 SFRSYM    DATA     BIT       TF0
      00000088H.7 SFRSYM    DATA     BIT       TF1
      0000008CH   SFRSYM    DATA     BYTE      TH0
      000000B2H   SFRSYM    DATA     BYTE      ISOCON
LX51 LINKER/LOCATER V4.10a                                                            10/17/2007  16:48:09  PAGE 85


      0000008DH   SFRSYM    DATA     BYTE      TH1
      000000D8H   SFRSYM    DATA     BYTE      SPSW
      000000D0H   SFRSYM    DATA     BIT       P
      0000008AH   SFRSYM    DATA     BYTE      TL0
      0000008BH   SFRSYM    DATA     BYTE      TL1
      000000C0H   SFRSYM    DATA     BYTE      PROGIO
      000000D0H.3 SFRSYM    DATA     BIT       RS0
      00000088H.4 SFRSYM    DATA     BIT       TR0
      000000D0H.4 SFRSYM    DATA     BIT       RS1
      00000080H.1 SFRSYM    DATA     BIT       FSM_START
      00000088H.6 SFRSYM    DATA     BIT       TR1
      00000083H   SFRSYM    DATA     BYTE      DPH
      000000B4H   SFRSYM    DATA     BYTE      ISOTMR
      00000082H   SFRSYM    DATA     BYTE      DPL
      000000B0H   SFRSYM    DATA     BYTE      SECURITYSTATUS
      00000086H   SFRSYM    DATA     BYTE      DPS
      00000093H   SFRSYM    DATA     BYTE      DPX
      00000080H   SFRSYM    DATA     BYTE      NVFSMCON
      000000F7H   SFRSYM    DATA     BYTE      MFCON
      000000C9H   SFRSYM    DATA     BYTE      NvFsmMode
      000000D0H.5 SFRSYM    DATA     BIT       F0
      000000E8H.1 SFRSYM    DATA     BIT       F1
      000000D0H   SFRSYM    DATA     BYTE      PSW

      01001FD7H   BLOCK     ECODE    ---       LVL=0
      01001FD7H   LINE      ECODE    ---       #58
      01001FD7H   LINE      ECODE    ---       #59
      01001FD7H   LINE      ECODE    ---       #61
      01001FE4H   LINE      ECODE    ---       #67
      01001FE8H   LINE      ECODE    ---       #69
      ---         BLOCKEND  ---      ---       LVL=0

      ---         MODULE    ---      ---       MASS_ERASE_UCM
      01002087H   PUBLIC    ECODE    ---       Mass_Erase_UCM
      000000D0H.6 SFRSYM    DATA     BIT       AC
      00000080H   SFRSYM    DATA     BIT       FSM_FINISH
      00000083H   SFRSYM    DATA     BYTE      DPH0
      000000E8H   SFRSYM    DATA     BIT       AM
      000000A8H   SFRSYM    DATA     BYTE      IE
      00000085H   SFRSYM    DATA     BYTE      DPH1
      00000082H   SFRSYM    DATA     BYTE      DPL0
      00000084H   SFRSYM    DATA     BYTE      DPL1
      00000088H   SFRSYM    DATA     BIT       SSINT
      000000C0H   SFRSYM    DATA     BIT       PULLUP_RES_STATE
      00000088H.1 SFRSYM    DATA     BIT       USINT
      000000B8H   SFRSYM    DATA     BYTE      IP
      00000098H   SFRSYM    DATA     BIT       RI
      000000D0H.7 SFRSYM    DATA     BIT       CY
      00000098H.1 SFRSYM    DATA     BIT       TI
      000000EAH   SFRSYM    DATA     BYTE      MPTRX
      00000093H   SFRSYM    DATA     BYTE      DPX0
      00000095H   SFRSYM    DATA     BYTE      DPX1
      00000081H   SFRSYM    DATA     BYTE      SP
      000000D0H.2 SFRSYM    DATA     BIT       OV
      000000A1H   SFRSYM    DATA     BYTE      CBSL
      00000080H.5 SFRSYM    DATA     BIT       FSM_RESULT
      00000099H   SFRSYM    DATA     BYTE      SBUF
      00000087H   SFRSYM    DATA     BYTE      PCON
      00000088H.3 SFRSYM    DATA     BIT       MFLT
      00000098H   SFRSYM    DATA     BYTE      SCON
      00000089H   SFRSYM    DATA     BYTE      TMOD
      00000088H   SFRSYM    DATA     BYTE      TCON
      00000088H.1 SFRSYM    DATA     BIT       SINT
      000000E8H   SFRSYM    DATA     BYTE      EPSW
      000000F0H   SFRSYM    DATA     BYTE      B
LX51 LINKER/LOCATER V4.10a                                                            10/17/2007  16:48:09  PAGE 86


      000000A2H   SFRSYM    DATA     BYTE      MPTR
      000000E0H   SFRSYM    DATA     BYTE      ACC
      00000088H.5 SFRSYM    DATA     BIT       TF0
      00000088H.7 SFRSYM    DATA     BIT       TF1
      0000008CH   SFRSYM    DATA     BYTE      TH0
      000000B2H   SFRSYM    DATA     BYTE      ISOCON
      0000008DH   SFRSYM    DATA     BYTE      TH1
      000000D8H   SFRSYM    DATA     BYTE      SPSW
      000000D0H   SFRSYM    DATA     BIT       P
      0000008AH   SFRSYM    DATA     BYTE      TL0
      0000008BH   SFRSYM    DATA     BYTE      TL1
      000000C0H   SFRSYM    DATA     BYTE      PROGIO
      000000D0H.3 SFRSYM    DATA     BIT       RS0
      00000088H.4 SFRSYM    DATA     BIT       TR0
      000000D0H.4 SFRSYM    DATA     BIT       RS1
      00000080H.1 SFRSYM    DATA     BIT       FSM_START
      00000088H.6 SFRSYM    DATA     BIT       TR1
      00000083H   SFRSYM    DATA     BYTE      DPH
      000000B4H   SFRSYM    DATA     BYTE      ISOTMR
      00000082H   SFRSYM    DATA     BYTE      DPL
      000000B0H   SFRSYM    DATA     BYTE      SECURITYSTATUS
      00000086H   SFRSYM    DATA     BYTE      DPS
      00000093H   SFRSYM    DATA     BYTE      DPX
      00000080H   SFRSYM    DATA     BYTE      NVFSMCON
      000000F7H   SFRSYM    DATA     BYTE      MFCON
      000000C9H   SFRSYM    DATA     BYTE      NvFsmMode
      000000D0H.5 SFRSYM    DATA     BIT       F0
      000000E8H.1 SFRSYM    DATA     BIT       F1
      000000D0H   SFRSYM    DATA     BYTE      PSW

      01002087H   BLOCK     ECODE    ---       LVL=0
      01002087H   LINE      ECODE    ---       #57
      01002087H   LINE      ECODE    ---       #58
      01002087H   LINE      ECODE    ---       #59
      0100208AH   LINE      ECODE    ---       #61
      0100208EH   LINE      ECODE    ---       #63
      ---         BLOCKEND  ---      ---       LVL=0

      ---         MODULE    ---      ---       ?C_INIT
      01000A01H   PUBLIC    CODE     NEAR LAB  ?C_START
      000000E0H   SFRSYM    DATA     BYTE      ACC
      00000083H   SFRSYM    DATA     BYTE      DPH
      00000082H   SFRSYM    DATA     BYTE      DPL
      00000093H   SFRSYM    DATA     BYTE      DPX
      010009F4H   SYMBOL    CODE     NEAR LAB  BITREADY
      010009DBH   SYMBOL    CODE     NEAR LAB  BITS
      01000A88H   SYMBOL    CODE     NEAR LAB  COMMON
      01000A44H   SYMBOL    CODE     NEAR LAB  HINC
      01000A2DH   SYMBOL    CODE     NEAR LAB  HLOOP
      01000A21H   SYMBOL    CODE     NEAR LAB  HPTRINIT
      010009D7H   SYMBOL    CODE     NEAR LAB  INITEND
      01000A7BH   SYMBOL    CODE     NEAR LAB  IORPDATA
      01000A7FH   SYMBOL    CODE     NEAR LAB  IORPLOOP
      010009EDH   SYMBOL    CODE     NEAR LAB  LOADTAB
      01000A05H   SYMBOL    CODE     NEAR LAB  LOOP
      01000A1BH   SYMBOL    CODE     NEAR LAB  NOBIG
      01000A4AH   SYMBOL    CODE     NEAR LAB  NOHDATA
      01000A87H   SYMBOL    CODE     NEAR LAB  PDATA
      010009F3H   SYMBOL    CODE     NEAR LAB  SETZEN
      010009F9H   SYMBOL    CODE     BYTE      TABLE
      01000A52H   SYMBOL    CODE     NEAR LAB  XDATAMEM
      01000A5AH   SYMBOL    CODE     NEAR LAB  XLOOP

      010009D7H   BLOCK     CODE     NEAR LAB  LVL=0
      010009D7H   LINE      CODE     ---       #94
LX51 LINKER/LOCATER V4.10a                                                            10/17/2007  16:48:09  PAGE 87


      010009DBH   LINE      CODE     ---       #100
      010009DCH   LINE      CODE     ---       #101
      010009DDH   LINE      CODE     ---       #102
      010009DEH   LINE      CODE     ---       #103
      010009DFH   LINE      CODE     ---       #104
      010009E1H   LINE      CODE     ---       #105
      010009E3H   LINE      CODE     ---       #106
      010009E4H   LINE      CODE     ---       #107
      010009E5H   LINE      CODE     ---       #108
      010009E6H   LINE      CODE     ---       #109
      010009E7H   LINE      CODE     ---       #110
      010009E9H   LINE      CODE     ---       #111
      010009EBH   LINE      CODE     ---       #112
      010009ECH   LINE      CODE     ---       #113
      010009EDH   LINE      CODE     ---       #114
      010009EFH   LINE      CODE     ---       #115
      010009F0H   LINE      CODE     ---       #116
      010009F1H   LINE      CODE     ---       #117
      010009F3H   LINE      CODE     ---       #118
      010009F4H   LINE      CODE     ---       #119
      010009F5H   LINE      CODE     ---       #120
      010009F7H   LINE      CODE     ---       #121
      01000A01H   LINE      CODE     ---       #134
      01000A05H   LINE      CODE     ---       #137
      01000A06H   LINE      CODE     ---       #138
      01000A08H   LINE      CODE     ---       #139
      01000A09H   LINE      CODE     ---       #140
      01000A0BH   LINE      CODE     ---       #141
      01000A0CH   LINE      CODE     ---       #142
      01000A0DH   LINE      CODE     ---       #143
      01000A0FH   LINE      CODE     ---       #144
      01000A12H   LINE      CODE     ---       #145
      01000A14H   LINE      CODE     ---       #146
      01000A15H   LINE      CODE     ---       #147
      01000A16H   LINE      CODE     ---       #148
      01000A17H   LINE      CODE     ---       #149
      01000A18H   LINE      CODE     ---       #150
      01000A1AH   LINE      CODE     ---       #151
      01000A1BH   LINE      CODE     ---       #152
      01000A1CH   LINE      CODE     ---       #164
      01000A1EH   LINE      CODE     ---       #165
      01000A21H   LINE      CODE     ---       #167
      01000A22H   LINE      CODE     ---       #168
      01000A23H   LINE      CODE     ---       #169
      01000A24H   LINE      CODE     ---       #170
      01000A25H   LINE      CODE     ---       #171
      01000A26H   LINE      CODE     ---       #172
      01000A27H   LINE      CODE     ---       #173
      01000A28H   LINE      CODE     ---       #174
      01000A29H   LINE      CODE     ---       #175
      01000A2AH   LINE      CODE     ---       #176
      01000A2BH   LINE      CODE     ---       #177
      01000A2CH   LINE      CODE     ---       #178
      01000A2DH   LINE      CODE     ---       #179
      01000A2EH   LINE      CODE     ---       #180
      01000A2FH   LINE      CODE     ---       #181
      01000A31H   LINE      CODE     ---       #182
      01000A33H   LINE      CODE     ---       #183
      01000A37H   LINE      CODE     ---       #185
      01000A3AH   LINE      CODE     ---       #187
      01000A3CH   LINE      CODE     ---       #188
      01000A3EH   LINE      CODE     ---       #189
      01000A3FH   LINE      CODE     ---       #190
      01000A40H   LINE      CODE     ---       #191
      01000A41H   LINE      CODE     ---       #192
LX51 LINKER/LOCATER V4.10a                                                            10/17/2007  16:48:09  PAGE 88


      01000A43H   LINE      CODE     ---       #193
      01000A44H   LINE      CODE     ---       #194
      01000A46H   LINE      CODE     ---       #195
      01000A48H   LINE      CODE     ---       #196
      01000A4AH   LINE      CODE     ---       #199
      01000A4CH   LINE      CODE     ---       #200
      01000A4EH   LINE      CODE     ---       #201
      01000A50H   LINE      CODE     ---       #202
      01000A52H   LINE      CODE     ---       #204
      01000A53H   LINE      CODE     ---       #205
      01000A54H   LINE      CODE     ---       #206
      01000A55H   LINE      CODE     ---       #207
      01000A56H   LINE      CODE     ---       #208
      01000A57H   LINE      CODE     ---       #209
      01000A58H   LINE      CODE     ---       #210
      01000A59H   LINE      CODE     ---       #211
      01000A5AH   LINE      CODE     ---       #212
      01000A5BH   LINE      CODE     ---       #213
      01000A5CH   LINE      CODE     ---       #214
      01000A5DH   LINE      CODE     ---       #215
      01000A5EH   LINE      CODE     ---       #216
      01000A60H   LINE      CODE     ---       #217
      01000A61H   LINE      CODE     ---       #218
      01000A62H   LINE      CODE     ---       #219
      01000A64H   LINE      CODE     ---       #220
      01000A65H   LINE      CODE     ---       #222
      01000A68H   LINE      CODE     ---       #224
      01000A69H   LINE      CODE     ---       #226
      01000A6CH   LINE      CODE     ---       #228
      01000A6DH   LINE      CODE     ---       #229
      01000A6EH   LINE      CODE     ---       #230
      01000A70H   LINE      CODE     ---       #231
      01000A71H   LINE      CODE     ---       #232
      01000A72H   LINE      CODE     ---       #233
      01000A74H   LINE      CODE     ---       #234
      01000A75H   LINE      CODE     ---       #235
      01000A77H   LINE      CODE     ---       #236
      01000A79H   LINE      CODE     ---       #237
      01000A7BH   LINE      CODE     ---       #240
      ---         BLOCKEND  ---      ---       LVL=0

      ---         MODULE    ---      ---       ?C?CLDPTR
      0100082EH   PUBLIC    CODE     NEAR LAB  ?C?CLDPTR

      ---         MODULE    ---      ---       ?C?CSTPTR
      01000844H   PUBLIC    CODE     NEAR LAB  ?C?CSTPTR

      ---         MODULE    ---      ---       ?C?UIDIV
      01000858H   PUBLIC    CODE     NEAR LAB  ?C?UIDIV

      ---         MODULE    ---      ---       ?C?LADD
      010008AEH   PUBLIC    CODE     NEAR LAB  ?C?LADD

      ---         MODULE    ---      ---       ?C?LOR
      010008BBH   PUBLIC    CODE     NEAR LAB  ?C?LOR

      ---         MODULE    ---      ---       ?C?LXOR
      010008C8H   PUBLIC    CODE     NEAR LAB  ?C?LXOR

      ---         MODULE    ---      ---       ?C?LNOT
      010008D5H   PUBLIC    CODE     NEAR LAB  ?C?LNOT

      ---         MODULE    ---      ---       ?C?ULCMP
      010008E2H   PUBLIC    CODE     NEAR LAB  ?C?ULCMP

LX51 LINKER/LOCATER V4.10a                                                            10/17/2007  16:48:09  PAGE 89


      ---         MODULE    ---      ---       ?C?ULSHR
      010008F3H   PUBLIC    CODE     NEAR LAB  ?C?ULSHR

      ---         MODULE    ---      ---       ?C?LSHL
      01000906H   PUBLIC    CODE     NEAR LAB  ?C?LSHL

      ---         MODULE    ---      ---       ?C?LLDIDATA
      01000919H   PUBLIC    CODE     NEAR LAB  ?C?LLDIDATA

      ---         MODULE    ---      ---       ?C?LLDIDATA0
      01000925H   PUBLIC    CODE     NEAR LAB  ?C?LLDIDATA0

      ---         MODULE    ---      ---       ?C?LLDIIDATA
      0100093BH   PUBLIC    CODE     NEAR LAB  ?C?LLDIIDATA
      01000932H   PUBLIC    CODE     NEAR LAB  ?C?LLDIIDATA1
      01000934H   PUBLIC    CODE     NEAR LAB  ?C?LLDIIDATA8

      ---         MODULE    ---      ---       ?C?LSTIDATA
      01000952H   PUBLIC    CODE     NEAR LAB  ?C?LSTIDATA

      ---         MODULE    ---      ---       ?C?OFFXADD
      0100095EH   PUBLIC    CODE     NEAR LAB  ?C?OFFXADD

      ---         MODULE    ---      ---       ?C?PLDIIDATA
      0100096AH   PUBLIC    CODE     NEAR LAB  ?C?PLDIIDATA

      ---         MODULE    ---      ---       ?C?PLDCODE
      0100097AH   PUBLIC    CODE     NEAR LAB  ?C?PLDCODE

      ---         MODULE    ---      ---       ?C?CCASE
      01000986H   PUBLIC    CODE     NEAR LAB  ?C?CCASE

      ---         MODULE    ---      ---       ?C?ICALL390
      010009AEH   PUBLIC    CODE     NEAR LAB  ?C?ICALL390
      010009B4H   PUBLIC    CODE     NEAR LAB  ?C?ICALLX2

Program Size: data=199.0 xdata=1088 const=896 code=5447
LX51 RUN COMPLETE.  0 WARNING(S),  0 ERROR(S)
